
camera.elf:     file format elf32-littleriscv
camera.elf
architecture: riscv:rv32, flags 0x00000112:
EXEC_P, HAS_SYMS, D_PAGED
start address 0x00000000

Program Header:
    LOAD off    0x00001000 vaddr 0x00000000 paddr 0x00000000 align 2**12
         filesz 0x00004ff0 memsz 0x00004ff0 flags r-x
    LOAD off    0x00006000 vaddr 0x20000000 paddr 0x00004ff0 align 2**12
         filesz 0x00000120 memsz 0x000001a4 flags rw-
    LOAD off    0x00006800 vaddr 0x2000f800 paddr 0x2000f800 align 2**12
         filesz 0x00000000 memsz 0x00000800 flags rw-

Sections:
Idx Name           Size      VMA       LMA       File off  Algn  Flags
  0 .init          00000038  00000000  00000000  00001000  2**1  CONTENTS, ALLOC, LOAD, READONLY, CODE
  1 .vector        000001c8  00000038  00000038  00001038  2**1  CONTENTS, ALLOC, LOAD, READONLY, CODE
  2 .text          00004df0  00000200  00000200  00001200  2**2  CONTENTS, ALLOC, LOAD, READONLY, CODE
  3 .fini          00000000  00004ff0  00004ff0  00006120  2**0  CONTENTS, ALLOC, LOAD, CODE
  4 .dalign        00000000  20000000  20000000  00006120  2**0  CONTENTS
  5 .dlalign       00000000  00004ff0  00004ff0  00006120  2**0  CONTENTS
  6 .data          00000120  20000000  00004ff0  00006000  2**2  CONTENTS, ALLOC, LOAD, DATA
  7 .bss           00000084  20000120  00005110  00006120  2**2  ALLOC
  8 .stack         00000800  2000f800  2000f800  00006800  2**0  ALLOC
  9 .debug_info    000110ca  00000000  00000000  00006120  2**0  CONTENTS, READONLY, DEBUGGING
 10 .debug_abbrev  00002a4f  00000000  00000000  000171ea  2**0  CONTENTS, READONLY, DEBUGGING
 11 .debug_aranges 00000d08  00000000  00000000  00019c40  2**3  CONTENTS, READONLY, DEBUGGING
 12 .debug_ranges  00000b90  00000000  00000000  0001a948  2**3  CONTENTS, READONLY, DEBUGGING
 13 .debug_line    0000cba5  00000000  00000000  0001b4d8  2**0  CONTENTS, READONLY, DEBUGGING
 14 .debug_str     0000500a  00000000  00000000  0002807d  2**0  CONTENTS, READONLY, DEBUGGING
 15 .comment       00000033  00000000  00000000  0002d087  2**0  CONTENTS, READONLY
 16 .debug_frame   000037bc  00000000  00000000  0002d0bc  2**2  CONTENTS, READONLY, DEBUGGING
 17 .stab          00000084  00000000  00000000  00030878  2**2  CONTENTS, READONLY, DEBUGGING
 18 .stabstr       00000117  00000000  00000000  000308fc  2**0  CONTENTS, READONLY, DEBUGGING
SYMBOL TABLE:
00000000 l    d  .init	00000000 .init
00000038 l    d  .vector	00000000 .vector
00000200 l    d  .text	00000000 .text
00004ff0 l    d  .fini	00000000 .fini
20000000 l    d  .dalign	00000000 .dalign
00004ff0 l    d  .dlalign	00000000 .dlalign
20000000 l    d  .data	00000000 .data
20000120 l    d  .bss	00000000 .bss
2000f800 l    d  .stack	00000000 .stack
00000000 l    d  .debug_info	00000000 .debug_info
00000000 l    d  .debug_abbrev	00000000 .debug_abbrev
00000000 l    d  .debug_aranges	00000000 .debug_aranges
00000000 l    d  .debug_ranges	00000000 .debug_ranges
00000000 l    d  .debug_line	00000000 .debug_line
00000000 l    d  .debug_str	00000000 .debug_str
00000000 l    d  .comment	00000000 .comment
00000000 l    d  .debug_frame	00000000 .debug_frame
00000000 l    d  .stab	00000000 .stab
00000000 l    d  .stabstr	00000000 .stabstr
00000000 l    df *ABS*	00000000 ./sdk/Startup/startup_ch32v30x.o
00000038 l       .vector	00000000 _vector_base
00000000 l    df *ABS*	00000000 zf_driver_delay.c
00000000 l    df *ABS*	00000000 zf_driver_gpio.c
00000000 l    df *ABS*	00000000 zf_driver_uart.c
00000000 l    df *ABS*	00000000 zf_device_bluetooth_ch9141.c
00000000 l    df *ABS*	00000000 zf_device_camera.c
00000000 l    df *ABS*	00000000 zf_device_mt9v03x_dvp.c
20000138 l     O .bss	00000003 receive_dvp
2000013b l     O .bss	00000001 receive_num_dvp
2000013c l     O .bss	00000001 uart_receive_flag_dvp
00000000 l    df *ABS*	00000000 zf_device_wireless_uart.c
00000000 l    df *ABS*	00000000 zf_common_clock.c
00000fa2 l     F .text	00000076 clock_reset
00001018 l     F .text	00000260 clock_set_freq
00000000 l    df *ABS*	00000000 zf_common_debug.c
00000000 l    df *ABS*	00000000 zf_common_interrupt.c
00001328 l     F .text	00000032 NVIC_EnableIRQ
0000135a l     F .text	00000032 NVIC_DisableIRQ
00000000 l    df *ABS*	00000000 isr.c
00000000 l    df *ABS*	00000000 main.c
00000000 l    df *ABS*	00000000 system_ch32v30x.c
00001cca l     F .text	00000014 SetSysClock
00001cde l     F .text	00000162 SetSysClockTo144
00000000 l    df *ABS*	00000000 ch32v30x_exti.c
00000000 l    df *ABS*	00000000 ch32v30x_gpio.c
00000000 l    df *ABS*	00000000 ch32v30x_rcc.c
20000044 l     O .data	00000010 APBAHBPrescTable
200000fc l     O .data	00000004 ADCPrescTable
00000000 l    df *ABS*	00000000 ch32v30x_tim.c
00000000 l    df *ABS*	00000000 ch32v30x_usart.c
00000000 l    df *ABS*	00000000 ch32v30x_usbotg_device.c
00000000 l    df *ABS*	00000000 core_riscv.c
00000000 l    df *ABS*	00000000 memcpy.c
00000000 l    df *ABS*	00000000 printf.c
00000000 l    df *ABS*	00000000 puts.c
00000000 l    df *ABS*	00000000 strncmp.c
00000000 l    df *ABS*	00000000 wbuf.c
00000000 l    df *ABS*	00000000 wsetup.c
00000000 l    df *ABS*	00000000 fflush.c
00000000 l    df *ABS*	00000000 findfp.c
00003ea0 l     F .text	0000006a std
00000000 l    df *ABS*	00000000 fwalk.c
00000000 l    df *ABS*	00000000 makebuf.c
00000000 l    df *ABS*	00000000 nano-mallocr.c
00000000 l    df *ABS*	00000000 nano-mallocr.c
00000000 l    df *ABS*	00000000 nano-vfprintf.c
0000433e l     F .text	0000002a __sfputc_r
00000000 l    df *ABS*	00000000 nano-vfprintf_i.c
00000000 l    df *ABS*	00000000 sbrkr.c
00000000 l    df *ABS*	00000000 stdio.c
00000000 l    df *ABS*	00000000 writer.c
00000000 l    df *ABS*	00000000 closer.c
00000000 l    df *ABS*	00000000 fstatr.c
00000000 l    df *ABS*	00000000 isattyr.c
00000000 l    df *ABS*	00000000 lseekr.c
00000000 l    df *ABS*	00000000 memchr.c
00000000 l    df *ABS*	00000000 mlock.c
00000000 l    df *ABS*	00000000 readr.c
00000000 l    df *ABS*	00000000 close.c
00000000 l    df *ABS*	00000000 fstat.c
00000000 l    df *ABS*	00000000 isatty.c
00000000 l    df *ABS*	00000000 lseek.c
00000000 l    df *ABS*	00000000 read.c
00000000 l    df *ABS*	00000000 sbrk.c
2000017c l     O .bss	00000004 heap_end.1518
00000000 l    df *ABS*	00000000 impure.c
20000098 l     O .data	00000060 impure_data
00000000 l    df *ABS*	00000000 zf_device_type.c
00000000 l    df *ABS*	00000000 reent.c
0000166c g     F .text	00000024 EXTI2_IRQHandler
20000144 g     O .bss	00000004 wireless_type
00001b6a  w      .text	00000000 TIM8_TRG_COM_IRQHandler
00000d82 g     F .text	0000004a bluetooth_ch9141_check_response
00001b6c  w      .text	00000000 TIM8_CC_IRQHandler
2000016e g     O .bss	00000001 USBHD_Dev_SleepStatus
00004b5e g     F .text	00000028 _isatty_r
00003a22 g     F .text	000000da _puts_r
00002b64 g     F .text	0000003e DevEP1_IN_Deal
00004b86 g     F .text	0000002c _lseek_r
000015ba g     F .text	0000002c UART8_IRQHandler
000039e2 g     F .text	00000040 printf
200008f8 g       .data	00000000 __global_pointer$
00001b46  w      .text	00000000 TIM1_CC_IRQHandler
00004aa2 g     F .text	00000036 __sseek
00003f5a g     F .text	00000066 __sinit
00003b32 g     F .text	000000c0 __swbuf_r
000019e2 g     F .text	00000012 HardFault_Handler
20000148 g     O .bss	00000002 wireless_rx_buffer
00003f14 g     F .text	00000046 __sfmoreglue
00004bce g     F .text	00000002 __malloc_unlock
00000dcc g     F .text	00000028 camera_uart_handler
000018f2 g     F .text	00000028 TIM6_IRQHandler
00001b0c  w      .text	00000000 SysTick_Handler
00001b12  w      .text	00000000 PVD_IRQHandler
00001b72  w      .text	00000000 SDIO_IRQHandler
00001ba4  w      .text	00000000 TIM9_BRK_IRQHandler
00001bb8  w      .text	00000000 DMA2_Channel8_IRQHandler
000019d2 g     F .text	00000010 NMI_Handler
00001b92  w      .text	00000000 CAN2_RX1_IRQHandler
00001690 g     F .text	00000024 EXTI3_IRQHandler
20000140 g     O .bss	00000004 camera_type
00003912 g     F .text	0000001a __get_MSTATUS
00001b9a  w      .text	00000000 USBHS_IRQHandler
00001b0e  w      .text	00000000 SW_handler
000029ce g     F .text	00000046 USART_GetFlagStatus
00001bba  w      .text	00000000 DMA2_Channel9_IRQHandler
00004b34 g     F .text	0000002a _fstat_r
00004e44 g     O .text	00000014 MyReportDescHD
00001bb2  w      .text	00000000 TIM10_CC_IRQHandler
200001a0 g     O .bss	00000004 errno
20000054 g     O .data	00000043 TAB_USB_FS_OSC_DESC
20000120 g       .bss	00000000 _sbss
00000800 g       *ABS*	00000000 __stack_size
00000206 g       .text	00000000 en_interrupt
2000016f g     O .bss	00000001 DevConfig
20000120 g     O .bss	00000001 uart_flag
000013a8 g     F .text	0000001c interrupt_disable
00000cd0 g     F .text	000000b2 bluetooth_ch9141_uart_callback_ch1
0000392c g     F .text	000000b6 memcpy
20000110 g     O .data	00000008 uart_irq
00003f0a g     F .text	0000000a _cleanup_r
00002118 g     F .text	0000013c GPIO_PinRemapConfig
00001624 g     F .text	00000024 EXTI0_IRQHandler
00001b52  w      .text	00000000 I2C2_EV_IRQHandler
00001bb0  w      .text	00000000 TIM10_TRG_COM_IRQHandler
20000172 g     O .bss	00000002 SetupReqLen
00003afc g     F .text	0000000a puts
00004e74 g     O .text	00000016 MySerNumInfoHD
00000e8c g     F .text	00000084 mt9v03x_dvp_handler
00004c08 g     F .text	0000000c _fstat
00000038 g       .init	00000000 _einit
0000261a g     F .text	0000002e TIM_ClearITPendingBit
00004e8c g     O .text	0000000a MyUSBQUADescHD
000013c4 g     F .text	0000000e interrupt_init
0000251e g     F .text	00000046 RCC_APB2PeriphClockCmd
00001b94  w      .text	00000000 CAN2_SCE_IRQHandler
00001b34  w      .text	00000000 ADC1_2_IRQHandler
00001eb6 g     F .text	0000022a GPIO_Init
00001b0a  w      .text	00000000 Break_Point_Handler
20000170 g     O .bss	00000001 SetupReqCode
00001b56  w      .text	00000000 SPI1_IRQHandler
0000287c g     F .text	00000060 USART_Cmd
000049fc g     F .text	00000028 _sbrk_r
00001b14  w      .text	00000000 TAMPER_IRQHandler
00004bd0 g     F .text	0000002c _read_r
00002b16 g     F .text	0000004e USART_ClearITPendingBit
00001b90  w      .text	00000000 CAN2_RX0_IRQHandler
0000194a g     F .text	00000030 TIM8_UP_IRQHandler
00002564 g     F .text	00000046 RCC_APB1PeriphClockCmd
00001b06  w      .text	00000000 Ecall_M_Mode_Handler
00004c14 g     F .text	0000000c _isatty
00000318 g     F .text	00000074 gpio_set_level
2000011c g     O .data	00000004 _global_impure_ptr
00001b82  w      .text	00000000 DMA2_Channel2_IRQHandler
00001b2c  w      .text	00000000 DMA1_Channel4_IRQHandler
00004c38 g     F .text	00000020 _sbrk
2000013d g     O .bss	00000001 camera_flag
00000e1c g     F .text	00000070 mt9v03x_uart_callback_dvp
2000001c g     O .data	00000028 wireless_device_info
0000197a g     F .text	00000030 TIM9_UP_IRQHandler
0000149c g     F .text	00000034 USART3_IRQHandler
20000122 g     O .bss	00000001 at_mode
00001e96 g     F .text	00000020 EXTI_ClearITPendingBit
00001b16  w      .text	00000000 RTC_IRQHandler
200001a4 g       .bss	00000000 _ebss
00002a14 g     F .text	00000102 USART_GetITStatus
00001b32  w      .text	00000000 DMA1_Channel7_IRQHandler
00004e68 g     O .text	0000000c MyProdInfoHD
00001b3a  w      .text	00000000 CAN1_RX1_IRQHandler
20000130 g     O .bss	00000004 image_fire
000015e6 g     F .text	0000003e DVP_IRQHandler
00001504 g     F .text	00000030 UART5_IRQHandler
20000168 g     O .bss	00000004 pDescr
20000121 g     O .bss	00000001 uart_data
20000118 g     O .data	00000004 MyLangDescrHD
2000014c g     O .bss	00000004 system_clock
00001892 g     F .text	00000030 TIM4_IRQHandler
20000124 g     O .bss	00000001 at_mode_cmd_flag
000020e0 g     F .text	00000038 GPIO_WriteBit
00000f7a g     F .text	00000028 clock_init
00001b80  w      .text	00000000 DMA2_Channel1_IRQHandler
00004f54 g     O .text	00000020 __sf_fake_stderr
200001a4 g       .bss	00000000 end
20000104 g     O .data	00000007 LineCoding
00001b4e  w      .text	00000000 I2C1_EV_IRQHandler
000025aa g     F .text	00000070 TIM_GetITStatus
2000012c g     O .bss	00000004 camera_buffer_addr2
00002254 g     F .text	000002ca RCC_GetClocksFreq
00001b30  w      .text	00000000 DMA1_Channel6_IRQHandler
00004368 g     F .text	00000042 __sfputs_r
0000096a g     F .text	000002b0 uart_init
000014d0 g     F .text	00000034 UART4_IRQHandler
00001b86  w      .text	00000000 DMA2_Channel4_IRQHandler
00004bb2 g     F .text	0000001a memchr
00002648 g     F .text	00000234 USART_Init
000041c2 g     F .text	000000a8 _free_r
00001862 g     F .text	00000030 TIM3_IRQHandler
00001b1a  w      .text	00000000 RCC_IRQHandler
00000522 g     F .text	000003c2 uart_gpio_init
00001b44  w      .text	00000000 TIM1_TRG_COM_IRQHandler
00001b26  w      .text	00000000 DMA1_Channel1_IRQHandler
00000000 g       .init	00000000 _start
00001bb6  w      .text	00000000 DMA2_Channel7_IRQHandler
00004c20 g     F .text	0000000c _lseek
0000178e g     F .text	0000007c EXTI15_10_IRQHandler
00000200 g       .text	00000000 dis_interrupt
00003b06 g     F .text	0000002c strncmp
000008e4 g     F .text	00000086 uart_rx_interrupt
000028dc g     F .text	000000c4 USART_ITConfig
20000164 g     O .bss	00000004 pEP2_RAM_Addr
00000c1a g     F .text	000000b6 bluetooth_ch9141_uart_callback_ch2
000002bc g     F .text	0000005c system_delay
20000180 g     O .bss	0000001e at_mode_data
0000191a g     F .text	00000030 TIM7_IRQHandler
00004b0c g     F .text	00000028 _close_r
00001b8e  w      .text	00000000 CAN2_TX_IRQHandler
20000000 g       .dalign	00000000 _data_vma
000018c2 g     F .text	00000030 TIM5_IRQHandler
00002c44 g     F .text	00000064 DevEP2_OUT_Deal
00003bf2 g     F .text	0000010c __swsetup_r
000016d8 g     F .text	000000b6 EXTI9_5_IRQHandler
00003fc0 g     F .text	0000009e __sfp
00004a24 g     F .text	00000030 __sread
00001b8c  w      .text	00000000 ETH_WKUP_IRQHandler
00002be0 g     F .text	00000064 DevEP1_OUT_Deal
00004bcc g     F .text	00000002 __malloc_lock
00003e3a g     F .text	00000066 _fflush_r
00001e40 g     F .text	00000056 EXTI_GetITStatus
2000015c g     O .bss	00000004 pEP0_RAM_Addr
20000134 g     O .bss	00000001 mt9v03x_finish_flag_dvp
00001b58  w      .text	00000000 SPI2_IRQHandler
00004f74 g     O .text	00000020 __sf_fake_stdin
00004dec g     O .text	00000012 MyDevDescrHD
00000214 g     F .text	000000a8 memset
000019f4 g     F .text	0000010e main
000013f4 g     F .text	00000022 interrupt_disable_all
00001bac  w      .text	00000000 TIM10_BRK_IRQHandler
00001baa  w      .text	00000000 TIM9_CC_IRQHandler
00004ad8 g     F .text	00000006 __sclose
00001b88  w      .text	00000000 DMA2_Channel5_IRQHandler
20000100 g     O .data	00000001 USBHD_Dev_Speed
0000426a g     F .text	000000d4 _malloc_r
00004e58 g     O .text	0000000e MyManuInfoHD
00001b2e  w      .text	00000000 DMA1_Channel5_IRQHandler
20000150 g     O .bss	00000001 zf_debug_init_flag
00004dcc g     O .text	00000020 uart_index
000016b4 g     F .text	00000024 EXTI4_IRQHandler
00001b38  w      .text	00000000 USB_LP_CAN1_RX0_IRQHandler
00001278 g     F .text	00000034 debug_init
00000f42 g     F .text	00000038 wireless_uart_callback_ch2
20000128 g     O .bss	00000004 camera_buffer_addr
00001c4e g     F .text	0000007c SystemInit
00001b6e  w      .text	00000000 RNG_IRQHandler
000039e2 g     F .text	00000040 iprintf
20000154 g     O .bss	00000008 EP0_DatabufHD
00001b36  w      .text	00000000 USB_HP_CAN1_TX_IRQHandler
00000000 g       .init	00000000 _sinit
00002ba2 g     F .text	0000003e DevEP2_IN_Deal
00004ade g     F .text	0000002e _write_r
00001b2a  w      .text	00000000 DMA1_Channel3_IRQHandler
200000f9 g     O .data	00000001 old_image_use_flag
00001b70  w      .text	00000000 FSMC_IRQHandler
00001b8a  w      .text	00000000 ETH_IRQHandler
00004646 g     F .text	0000010c _printf_common
2000010c g     O .data	00000004 _impure_ptr
0000180a g     F .text	00000030 TIM1_UP_IRQHandler
00003cfe g     F .text	0000013c __sflush_r
00001b10  w      .text	00000000 WWDG_IRQHandler
00001b98  w      .text	00000000 USBHSWakeup_IRQHandler
00001bbe  w      .text	00000000 DMA2_Channel11_IRQHandler
00001b08  w      .text	00000000 Ecall_U_Mode_Handler
00001bb4  w      .text	00000000 DMA2_Channel6_IRQHandler
0000183a g     F .text	00000028 TIM2_IRQHandler
20010000 g       .stack	00000000 _eusrstack
00004e00 g     O .text	00000043 MyCfgDescrHD
00001b40  w      .text	00000000 TIM1_BRK_IRQHandler
000040ca g     F .text	0000005a __swhatbuf_r
000029a0 g     F .text	0000002e USART_SendData
00001bbc  w      .text	00000000 DMA2_Channel10_IRQHandler
00001648 g     F .text	00000024 EXTI1_IRQHandler
000012ac g     F .text	0000007c _write
20000120 g       .data	00000000 _edata
2000016c g     O .bss	00000002 USBHD_Dev_SetupReqLen
00001b62  w      .text	00000000 RTCAlarm_IRQHandler
000013d2 g     F .text	00000022 interrupt_enable_all
00004ff0 g       .dlalign	00000000 _data_lma
000019aa g     F .text	00000028 TIM10_UP_IRQHandler
00001ba8  w      .text	00000000 TIM9_TRG_COM_IRQHandler
00001568 g     F .text	00000052 UART7_IRQHandler
20000123 g     O .bss	00000001 at_mode_num
0000144a g     F .text	00000052 USART2_IRQHandler
00001534 g     F .text	00000034 UART6_IRQHandler
00004a54 g     F .text	0000004e __swrite
20000000 g     O .data	0000001c bluetooth_ch9141
000043aa g     F .text	0000029c _vfiprintf_r
0000405e g     F .text	0000006c _fwalk_reent
00001b54  w      .text	00000000 I2C2_ER_IRQHandler
00001b28  w      .text	00000000 DMA1_Channel2_IRQHandler
00004f94 g     O .text	00000020 __sf_fake_stdout
200000f8 g     O .data	00000001 image_use_flag
00001b66  w      .text	00000000 TIM8_BRK_IRQHandler
00004c2c g     F .text	0000000c _read
00001bc0  w      .text	00000000 handle_reset
00001b3c  w      .text	00000000 CAN1_SCE_IRQHandler
00004db8 g     O .text	00000014 gpio_group
00001b18  w      .text	00000000 FLASH_IRQHandler
00001416 g     F .text	00000034 USART1_IRQHandler
00004124 g     F .text	0000009e __smakebuf_r
0000138c g     F .text	0000001c interrupt_enable
00002ca8 g     F .text	00000c6a OTG_FS_IRQHandler
00004752 g     F .text	000002aa _printf_i
00001b76  w      .text	00000000 SPI3_IRQHandler
00000df4 g     F .text	00000028 camera_dvp_handler
20000178 g     O .bss	00000004 __malloc_sbrk_start
00001b50  w      .text	00000000 I2C1_ER_IRQHandler
0000038c g     F .text	00000196 gpio_init
20000174 g     O .bss	00000004 __malloc_free_list
000043aa g     F .text	0000029c _vfprintf_r
20000160 g     O .bss	00000004 pEP1_RAM_Addr
00000f10 g     F .text	00000032 wireless_uart_callback_ch1
00001b64  w      .text	00000000 USBWakeUp_IRQHandler
00004bfc g     F .text	0000000c _close
00001b84  w      .text	00000000 DMA2_Channel3_IRQHandler



Disassembly of section .init:

00000000 <_sinit>:
_start():
C:/Users/Yaner/Desktop/camera/libraries/sdk/Startup/startup_ch32v30x.S:13

	.section	.init,"ax",@progbits
	.global	_start
	.align	1
_start:
	j	handle_reset
   0:	3c10106f          	j	1bc0 <handle_reset>
   4:	00000013          	nop
   8:	00000013          	nop
   c:	00000013          	nop
  10:	00000013          	nop
  14:	00000013          	nop
  18:	00000013          	nop
  1c:	00000013          	nop
  20:	00000013          	nop
  24:	00000013          	nop
  28:	00000013          	nop
  2c:	00000013          	nop
  30:	00000013          	nop
  34:	00100073          	ebreak

Disassembly of section .vector:

00000038 <_vector_base>:
	...
_vector_base():
  40:	19d2                	slli	s3,s3,0x34
  42:	0000                	unimp
  44:	19e2                	slli	s3,s3,0x38
  46:	0000                	unimp
  48:	0000                	unimp
  4a:	0000                	unimp
  4c:	1b06                	slli	s6,s6,0x21
	...
  56:	0000                	unimp
  58:	1b08                	addi	a0,sp,432
  5a:	0000                	unimp
  5c:	1b0a                	slli	s6,s6,0x22
	...
  66:	0000                	unimp
  68:	1b0c                	addi	a1,sp,432
  6a:	0000                	unimp
  6c:	0000                	unimp
  6e:	0000                	unimp
  70:	1b0e                	slli	s6,s6,0x23
  72:	0000                	unimp
  74:	0000                	unimp
  76:	0000                	unimp
  78:	1b10                	addi	a2,sp,432
  7a:	0000                	unimp
  7c:	1b12                	slli	s6,s6,0x24
  7e:	0000                	unimp
  80:	1b14                	addi	a3,sp,432
  82:	0000                	unimp
  84:	1b16                	slli	s6,s6,0x25
  86:	0000                	unimp
  88:	1b18                	addi	a4,sp,432
  8a:	0000                	unimp
  8c:	1b1a                	slli	s6,s6,0x26
  8e:	0000                	unimp
  90:	1624                	addi	s1,sp,808
  92:	0000                	unimp
  94:	1648                	addi	a0,sp,804
  96:	0000                	unimp
  98:	166c                	addi	a1,sp,812
  9a:	0000                	unimp
  9c:	1690                	addi	a2,sp,864
  9e:	0000                	unimp
  a0:	16b4                	addi	a3,sp,872
  a2:	0000                	unimp
  a4:	1b26                	slli	s6,s6,0x29
  a6:	0000                	unimp
  a8:	1b28                	addi	a0,sp,440
  aa:	0000                	unimp
  ac:	1b2a                	slli	s6,s6,0x2a
  ae:	0000                	unimp
  b0:	1b2c                	addi	a1,sp,440
  b2:	0000                	unimp
  b4:	1b2e                	slli	s6,s6,0x2b
  b6:	0000                	unimp
  b8:	1b30                	addi	a2,sp,440
  ba:	0000                	unimp
  bc:	1b32                	slli	s6,s6,0x2c
  be:	0000                	unimp
  c0:	1b34                	addi	a3,sp,440
  c2:	0000                	unimp
  c4:	1b36                	slli	s6,s6,0x2d
  c6:	0000                	unimp
  c8:	1b38                	addi	a4,sp,440
  ca:	0000                	unimp
  cc:	1b3a                	slli	s6,s6,0x2e
  ce:	0000                	unimp
  d0:	1b3c                	addi	a5,sp,440
  d2:	0000                	unimp
  d4:	16d8                	addi	a4,sp,868
  d6:	0000                	unimp
  d8:	1b40                	addi	s0,sp,436
  da:	0000                	unimp
  dc:	180a                	slli	a6,a6,0x22
  de:	0000                	unimp
  e0:	1b44                	addi	s1,sp,436
  e2:	0000                	unimp
  e4:	1b46                	slli	s6,s6,0x31
  e6:	0000                	unimp
  e8:	183a                	slli	a6,a6,0x2e
  ea:	0000                	unimp
  ec:	1862                	slli	a6,a6,0x38
  ee:	0000                	unimp
  f0:	1892                	slli	a7,a7,0x24
  f2:	0000                	unimp
  f4:	1b4e                	slli	s6,s6,0x33
  f6:	0000                	unimp
  f8:	1b50                	addi	a2,sp,436
  fa:	0000                	unimp
  fc:	1b52                	slli	s6,s6,0x34
  fe:	0000                	unimp
 100:	1b54                	addi	a3,sp,436
 102:	0000                	unimp
 104:	1b56                	slli	s6,s6,0x35
 106:	0000                	unimp
 108:	1b58                	addi	a4,sp,436
 10a:	0000                	unimp
 10c:	1416                	slli	s0,s0,0x25
 10e:	0000                	unimp
 110:	144a                	slli	s0,s0,0x32
 112:	0000                	unimp
 114:	149c                	addi	a5,sp,608
 116:	0000                	unimp
 118:	178e                	slli	a5,a5,0x23
 11a:	0000                	unimp
 11c:	1b62                	slli	s6,s6,0x38
 11e:	0000                	unimp
 120:	1b64                	addi	s1,sp,444
 122:	0000                	unimp
 124:	1b66                	slli	s6,s6,0x39
 126:	0000                	unimp
 128:	194a                	slli	s2,s2,0x32
 12a:	0000                	unimp
 12c:	1b6a                	slli	s6,s6,0x3a
 12e:	0000                	unimp
 130:	1b6c                	addi	a1,sp,444
 132:	0000                	unimp
 134:	1b6e                	slli	s6,s6,0x3b
 136:	0000                	unimp
 138:	1b70                	addi	a2,sp,444
 13a:	0000                	unimp
 13c:	1b72                	slli	s6,s6,0x3c
 13e:	0000                	unimp
 140:	18c2                	slli	a7,a7,0x30
 142:	0000                	unimp
 144:	1b76                	slli	s6,s6,0x3d
 146:	0000                	unimp
 148:	14d0                	addi	a2,sp,612
 14a:	0000                	unimp
 14c:	1504                	addi	s1,sp,672
 14e:	0000                	unimp
 150:	18f2                	slli	a7,a7,0x3c
 152:	0000                	unimp
 154:	191a                	slli	s2,s2,0x26
 156:	0000                	unimp
 158:	1b80                	addi	s0,sp,496
 15a:	0000                	unimp
 15c:	1b82                	slli	s7,s7,0x20
 15e:	0000                	unimp
 160:	1b84                	addi	s1,sp,496
 162:	0000                	unimp
 164:	1b86                	slli	s7,s7,0x21
 166:	0000                	unimp
 168:	1b88                	addi	a0,sp,496
 16a:	0000                	unimp
 16c:	1b8a                	slli	s7,s7,0x22
 16e:	0000                	unimp
 170:	1b8c                	addi	a1,sp,496
 172:	0000                	unimp
 174:	1b8e                	slli	s7,s7,0x23
 176:	0000                	unimp
 178:	1b90                	addi	a2,sp,496
 17a:	0000                	unimp
 17c:	1b92                	slli	s7,s7,0x24
 17e:	0000                	unimp
 180:	1b94                	addi	a3,sp,496
 182:	0000                	unimp
 184:	2ca8                	fld	fa0,88(s1)
 186:	0000                	unimp
 188:	1b98                	addi	a4,sp,496
 18a:	0000                	unimp
 18c:	1b9a                	slli	s7,s7,0x26
 18e:	0000                	unimp
 190:	15e6                	slli	a1,a1,0x39
 192:	0000                	unimp
 194:	1534                	addi	a3,sp,680
 196:	0000                	unimp
 198:	1568                	addi	a0,sp,684
 19a:	0000                	unimp
 19c:	15ba                	slli	a1,a1,0x2e
 19e:	0000                	unimp
 1a0:	1ba4                	addi	s1,sp,504
 1a2:	0000                	unimp
 1a4:	197a                	slli	s2,s2,0x3e
 1a6:	0000                	unimp
 1a8:	1ba8                	addi	a0,sp,504
 1aa:	0000                	unimp
 1ac:	1baa                	slli	s7,s7,0x2a
 1ae:	0000                	unimp
 1b0:	1bac                	addi	a1,sp,504
 1b2:	0000                	unimp
 1b4:	19aa                	slli	s3,s3,0x2a
 1b6:	0000                	unimp
 1b8:	1bb0                	addi	a2,sp,504
 1ba:	0000                	unimp
 1bc:	1bb2                	slli	s7,s7,0x2c
 1be:	0000                	unimp
 1c0:	1bb4                	addi	a3,sp,504
 1c2:	0000                	unimp
 1c4:	1bb6                	slli	s7,s7,0x2d
 1c6:	0000                	unimp
 1c8:	1bb8                	addi	a4,sp,504
 1ca:	0000                	unimp
 1cc:	1bba                	slli	s7,s7,0x2e
 1ce:	0000                	unimp
 1d0:	1bbc                	addi	a5,sp,504
 1d2:	0000                	unimp
 1d4:	1bbe                	slli	s7,s7,0x2f
	...

Disassembly of section .text:

00000200 <dis_interrupt>:
dis_interrupt():
C:/Users/Yaner/Desktop/camera/libraries/zf_driver/zf_driver_irq.S:39
#a0 = 0x7888
#mstatus中的第11 12位MPP
#00 用户模式  (U)
#01 监管者模式(S)
#11 机器模式  (M) 只有该模式允许使用SCR指令
    csrrci a0, mstatus, 0x8
     200:	30047573          	csrrci	a0,mstatus,8
C:/Users/Yaner/Desktop/camera/libraries/zf_driver/zf_driver_irq.S:40
    ret
     204:	8082                	ret

00000206 <en_interrupt>:
en_interrupt():
C:/Users/Yaner/Desktop/camera/libraries/zf_driver/zf_driver_irq.S:57

#	li t0, 0x1f
#	csrw 0x804, t0

#mstatus寄存器中的MIE位置1，切换为用户模式
   	li t0, 0x6088
     206:	000062b7          	lui	t0,0x6
     20a:	08828293          	addi	t0,t0,136 # 6088 <_data_lma+0x1098>
C:/Users/Yaner/Desktop/camera/libraries/zf_driver/zf_driver_irq.S:58
   	csrs mstatus, t0
     20e:	3002a073          	csrs	mstatus,t0
C:/Users/Yaner/Desktop/camera/libraries/zf_driver/zf_driver_irq.S:59
    ret
     212:	8082                	ret

00000214 <memset>:
memset():
     214:	433d                	li	t1,15
     216:	872a                	mv	a4,a0
     218:	02c37363          	bgeu	t1,a2,23e <memset+0x2a>
     21c:	00f77793          	andi	a5,a4,15
     220:	efbd                	bnez	a5,29e <memset+0x8a>
     222:	e5ad                	bnez	a1,28c <memset+0x78>
     224:	ff067693          	andi	a3,a2,-16
     228:	8a3d                	andi	a2,a2,15
     22a:	96ba                	add	a3,a3,a4
     22c:	c30c                	sw	a1,0(a4)
     22e:	c34c                	sw	a1,4(a4)
     230:	c70c                	sw	a1,8(a4)
     232:	c74c                	sw	a1,12(a4)
     234:	0741                	addi	a4,a4,16
     236:	fed76be3          	bltu	a4,a3,22c <memset+0x18>
     23a:	e211                	bnez	a2,23e <memset+0x2a>
     23c:	8082                	ret
     23e:	40c306b3          	sub	a3,t1,a2
     242:	068a                	slli	a3,a3,0x2
     244:	00000297          	auipc	t0,0x0
     248:	9696                	add	a3,a3,t0
     24a:	00a68067          	jr	10(a3)
     24e:	00b70723          	sb	a1,14(a4)
     252:	00b706a3          	sb	a1,13(a4)
     256:	00b70623          	sb	a1,12(a4)
     25a:	00b705a3          	sb	a1,11(a4)
     25e:	00b70523          	sb	a1,10(a4)
     262:	00b704a3          	sb	a1,9(a4)
     266:	00b70423          	sb	a1,8(a4)
     26a:	00b703a3          	sb	a1,7(a4)
     26e:	00b70323          	sb	a1,6(a4)
     272:	00b702a3          	sb	a1,5(a4)
     276:	00b70223          	sb	a1,4(a4)
     27a:	00b701a3          	sb	a1,3(a4)
     27e:	00b70123          	sb	a1,2(a4)
     282:	00b700a3          	sb	a1,1(a4)
     286:	00b70023          	sb	a1,0(a4)
     28a:	8082                	ret
     28c:	0ff5f593          	andi	a1,a1,255
     290:	00859693          	slli	a3,a1,0x8
     294:	8dd5                	or	a1,a1,a3
     296:	01059693          	slli	a3,a1,0x10
     29a:	8dd5                	or	a1,a1,a3
     29c:	b761                	j	224 <memset+0x10>
     29e:	00279693          	slli	a3,a5,0x2
     2a2:	00000297          	auipc	t0,0x0
     2a6:	9696                	add	a3,a3,t0
     2a8:	8286                	mv	t0,ra
     2aa:	fa8680e7          	jalr	-88(a3)
     2ae:	8096                	mv	ra,t0
     2b0:	17c1                	addi	a5,a5,-16
     2b2:	8f1d                	sub	a4,a4,a5
     2b4:	963e                	add	a2,a2,a5
     2b6:	f8c374e3          	bgeu	t1,a2,23e <memset+0x2a>
     2ba:	b7a5                	j	222 <memset+0xe>

000002bc <system_delay>:
system_delay():
C:/Users/Yaner/Desktop/camera/libraries/zf_driver/zf_driver_delay.c:28
//  @param      time                us
//  @return     void
//  Sample usage:                   内部使用，用户无需关心
//-------------------------------------------------------------------------------------------------------------------
void system_delay(uint64_t time)
{
     2bc:	1101                	addi	sp,sp,-32
     2be:	ce22                	sw	s0,28(sp)
     2c0:	1000                	addi	s0,sp,32
     2c2:	fea42423          	sw	a0,-24(s0)
     2c6:	feb42623          	sw	a1,-20(s0)
C:/Users/Yaner/Desktop/camera/libraries/zf_driver/zf_driver_delay.c:29
    SysTick->CTLR = 0;
     2ca:	e000f7b7          	lui	a5,0xe000f
     2ce:	0007a023          	sw	zero,0(a5) # e000f000 <_eusrstack+0xbffff000>
C:/Users/Yaner/Desktop/camera/libraries/zf_driver/zf_driver_delay.c:30
    SysTick->CNT  = 0;
     2d2:	e000f7b7          	lui	a5,0xe000f
     2d6:	4681                	li	a3,0
     2d8:	4701                	li	a4,0
     2da:	c794                	sw	a3,8(a5)
     2dc:	c7d8                	sw	a4,12(a5)
C:/Users/Yaner/Desktop/camera/libraries/zf_driver/zf_driver_delay.c:31
    SysTick->CTLR = 1;          //启动系统计数器 systick（HCLK/8 时基） us
     2de:	e000f7b7          	lui	a5,0xe000f
     2e2:	4705                	li	a4,1
     2e4:	c398                	sw	a4,0(a5)
C:/Users/Yaner/Desktop/camera/libraries/zf_driver/zf_driver_delay.c:34

    //while((*(volatile uint32*)0xE000F004) <= time);
    while(SysTick->CNT <= time);
     2e6:	0001                	nop
C:/Users/Yaner/Desktop/camera/libraries/zf_driver/zf_driver_delay.c:34 (discriminator 1)
     2e8:	e000f7b7          	lui	a5,0xe000f
     2ec:	00c7a803          	lw	a6,12(a5) # e000f00c <_eusrstack+0xbffff00c>
     2f0:	479c                	lw	a5,8(a5)
     2f2:	fec42703          	lw	a4,-20(s0)
     2f6:	86c2                	mv	a3,a6
     2f8:	00d76c63          	bltu	a4,a3,310 <system_delay+0x54>
     2fc:	fec42703          	lw	a4,-20(s0)
     300:	86c2                	mv	a3,a6
     302:	fed713e3          	bne	a4,a3,2e8 <system_delay+0x2c>
     306:	fe842703          	lw	a4,-24(s0)
     30a:	00f76363          	bltu	a4,a5,310 <system_delay+0x54>
     30e:	bfe9                	j	2e8 <system_delay+0x2c>
C:/Users/Yaner/Desktop/camera/libraries/zf_driver/zf_driver_delay.c:36

}
     310:	0001                	nop
     312:	4472                	lw	s0,28(sp)
     314:	6105                	addi	sp,sp,32
     316:	8082                	ret

00000318 <gpio_set_level>:
gpio_set_level():
C:/Users/Yaner/Desktop/camera/libraries/zf_driver/zf_driver_gpio.c:35
//  @param      dat         引脚的电平状态，输出时有效 0：低电平 1：高电平
//  @return     void
//  Sample usage:           gpio_set(D0, 0);//D0输出低电平
//-------------------------------------------------------------------------------------------------------------------
void gpio_set_level(gpio_pin_enum pin, uint8_t dat)
{
     318:	1101                	addi	sp,sp,-32
     31a:	ce22                	sw	s0,28(sp)
     31c:	1000                	addi	s0,sp,32
     31e:	fea42623          	sw	a0,-20(s0)
     322:	87ae                	mv	a5,a1
     324:	fef405a3          	sb	a5,-21(s0)
C:/Users/Yaner/Desktop/camera/libraries/zf_driver/zf_driver_gpio.c:36
    if(dat)
     328:	feb44783          	lbu	a5,-21(s0)
     32c:	c79d                	beqz	a5,35a <gpio_set_level+0x42>
C:/Users/Yaner/Desktop/camera/libraries/zf_driver/zf_driver_gpio.c:37
        gpio_high(pin);                                                         // 输出高电平
     32e:	fec42783          	lw	a5,-20(s0)
     332:	8bbd                	andi	a5,a5,15
     334:	4705                	li	a4,1
     336:	00f717b3          	sll	a5,a4,a5
     33a:	01079693          	slli	a3,a5,0x10
     33e:	82c1                	srli	a3,a3,0x10
     340:	fec42783          	lw	a5,-20(s0)
     344:	0057d713          	srli	a4,a5,0x5
     348:	6795                	lui	a5,0x5
     34a:	070a                	slli	a4,a4,0x2
     34c:	db878793          	addi	a5,a5,-584 # 4db8 <gpio_group>
     350:	97ba                	add	a5,a5,a4
     352:	439c                	lw	a5,0(a5)
     354:	8736                	mv	a4,a3
     356:	cb98                	sw	a4,16(a5)
C:/Users/Yaner/Desktop/camera/libraries/zf_driver/zf_driver_gpio.c:40
    else
        gpio_low(pin);                                                          // 输出低电平
}
     358:	a035                	j	384 <gpio_set_level+0x6c>
C:/Users/Yaner/Desktop/camera/libraries/zf_driver/zf_driver_gpio.c:39
        gpio_low(pin);                                                          // 输出低电平
     35a:	fec42783          	lw	a5,-20(s0)
     35e:	8bbd                	andi	a5,a5,15
     360:	4705                	li	a4,1
     362:	00f717b3          	sll	a5,a4,a5
     366:	01079693          	slli	a3,a5,0x10
     36a:	82c1                	srli	a3,a3,0x10
     36c:	fec42783          	lw	a5,-20(s0)
     370:	0057d713          	srli	a4,a5,0x5
     374:	6795                	lui	a5,0x5
     376:	070a                	slli	a4,a4,0x2
     378:	db878793          	addi	a5,a5,-584 # 4db8 <gpio_group>
     37c:	97ba                	add	a5,a5,a4
     37e:	439c                	lw	a5,0(a5)
     380:	8736                	mv	a4,a3
     382:	cbd8                	sw	a4,20(a5)
C:/Users/Yaner/Desktop/camera/libraries/zf_driver/zf_driver_gpio.c:40
}
     384:	0001                	nop
     386:	4472                	lw	s0,28(sp)
     388:	6105                	addi	sp,sp,32
     38a:	8082                	ret

0000038c <gpio_init>:
gpio_init():
C:/Users/Yaner/Desktop/camera/libraries/zf_driver/zf_driver_gpio.c:80
//  @param      pinconf     引脚配置（可设置参数由zf_gpio.h文件内GPIOSPEED_enum与GPIOMODE_enum枚举值确定，多个条件使用 | 相或）
//  @return     void
//  Sample usage:           gpio_init(D0, GPO, 1, GPIO_PIN_CONFIG);//D0初始化为GPIO功能、输出模式、输出高电平、速度100MHZ 推挽输出
//-------------------------------------------------------------------------------------------------------------------
void gpio_init(gpio_pin_enum gpio_pin, gpio_dir_enum gpio_dir, gpio_level_enum dat, uint32_t pinconf)
{
     38c:	7179                	addi	sp,sp,-48
     38e:	d606                	sw	ra,44(sp)
     390:	d422                	sw	s0,40(sp)
     392:	1800                	addi	s0,sp,48
     394:	fca42e23          	sw	a0,-36(s0)
     398:	fcb42c23          	sw	a1,-40(s0)
     39c:	fcc42a23          	sw	a2,-44(s0)
     3a0:	fcd42823          	sw	a3,-48(s0)
C:/Users/Yaner/Desktop/camera/libraries/zf_driver/zf_driver_gpio.c:82
    GPIO_InitTypeDef GPIO_InitStructure;
    uint8_t io_group = (gpio_pin & 0xF0) >> 5;
     3a4:	fdc42783          	lw	a5,-36(s0)
     3a8:	8395                	srli	a5,a5,0x5
     3aa:	0ff7f793          	andi	a5,a5,255
     3ae:	8b9d                	andi	a5,a5,7
     3b0:	fef407a3          	sb	a5,-17(s0)
C:/Users/Yaner/Desktop/camera/libraries/zf_driver/zf_driver_gpio.c:83
    uint8_t io_pin = gpio_pin & 0x0F;
     3b4:	fdc42783          	lw	a5,-36(s0)
     3b8:	0ff7f793          	andi	a5,a5,255
     3bc:	8bbd                	andi	a5,a5,15
     3be:	fef40723          	sb	a5,-18(s0)
C:/Users/Yaner/Desktop/camera/libraries/zf_driver/zf_driver_gpio.c:87

    //GPIO_DeInit((GPIO_TypeDef *)(GPION[io_group]));
    //  空引脚则返回
    if(PIN_NULL == gpio_pin) return;
     3c2:	fdc42703          	lw	a4,-36(s0)
     3c6:	0ff00793          	li	a5,255
     3ca:	14f70563          	beq	a4,a5,514 <gpio_init+0x188>
C:/Users/Yaner/Desktop/camera/libraries/zf_driver/zf_driver_gpio.c:88
    if(SPI_CS_NULL == gpio_pin) return;
     3ce:	fdc42703          	lw	a4,-36(s0)
     3d2:	0ff00793          	li	a5,255
     3d6:	14f70163          	beq	a4,a5,518 <gpio_init+0x18c>
C:/Users/Yaner/Desktop/camera/libraries/zf_driver/zf_driver_gpio.c:91

    //  GPIO总线使能
    if(0 == io_group)      RCC_APB2PeriphClockCmd(RCC_APB2Periph_GPIOA, ENABLE);
     3da:	fef44783          	lbu	a5,-17(s0)
     3de:	e791                	bnez	a5,3ea <gpio_init+0x5e>
C:/Users/Yaner/Desktop/camera/libraries/zf_driver/zf_driver_gpio.c:91 (discriminator 1)
     3e0:	4585                	li	a1,1
     3e2:	4511                	li	a0,4
     3e4:	13a020ef          	jal	ra,251e <RCC_APB2PeriphClockCmd>
     3e8:	a041                	j	468 <gpio_init+0xdc>
C:/Users/Yaner/Desktop/camera/libraries/zf_driver/zf_driver_gpio.c:92
    else if(1 == io_group) RCC_APB2PeriphClockCmd(RCC_APB2Periph_GPIOB, ENABLE);
     3ea:	fef44703          	lbu	a4,-17(s0)
     3ee:	4785                	li	a5,1
     3f0:	00f71763          	bne	a4,a5,3fe <gpio_init+0x72>
C:/Users/Yaner/Desktop/camera/libraries/zf_driver/zf_driver_gpio.c:92 (discriminator 1)
     3f4:	4585                	li	a1,1
     3f6:	4521                	li	a0,8
     3f8:	126020ef          	jal	ra,251e <RCC_APB2PeriphClockCmd>
     3fc:	a0b5                	j	468 <gpio_init+0xdc>
C:/Users/Yaner/Desktop/camera/libraries/zf_driver/zf_driver_gpio.c:93
    else if(2 == io_group) RCC_APB2PeriphClockCmd(RCC_APB2Periph_GPIOC, ENABLE);
     3fe:	fef44703          	lbu	a4,-17(s0)
     402:	4789                	li	a5,2
     404:	00f71763          	bne	a4,a5,412 <gpio_init+0x86>
C:/Users/Yaner/Desktop/camera/libraries/zf_driver/zf_driver_gpio.c:93 (discriminator 1)
     408:	4585                	li	a1,1
     40a:	4541                	li	a0,16
     40c:	112020ef          	jal	ra,251e <RCC_APB2PeriphClockCmd>
     410:	a8a1                	j	468 <gpio_init+0xdc>
C:/Users/Yaner/Desktop/camera/libraries/zf_driver/zf_driver_gpio.c:94
    else if(3 == io_group) RCC_APB2PeriphClockCmd(RCC_APB2Periph_GPIOD, ENABLE);
     412:	fef44703          	lbu	a4,-17(s0)
     416:	478d                	li	a5,3
     418:	00f71863          	bne	a4,a5,428 <gpio_init+0x9c>
C:/Users/Yaner/Desktop/camera/libraries/zf_driver/zf_driver_gpio.c:94 (discriminator 1)
     41c:	4585                	li	a1,1
     41e:	02000513          	li	a0,32
     422:	0fc020ef          	jal	ra,251e <RCC_APB2PeriphClockCmd>
     426:	a089                	j	468 <gpio_init+0xdc>
C:/Users/Yaner/Desktop/camera/libraries/zf_driver/zf_driver_gpio.c:95
    else if(4 == io_group) RCC_APB2PeriphClockCmd(RCC_APB2Periph_GPIOE, ENABLE);
     428:	fef44703          	lbu	a4,-17(s0)
     42c:	4791                	li	a5,4
     42e:	00f71863          	bne	a4,a5,43e <gpio_init+0xb2>
C:/Users/Yaner/Desktop/camera/libraries/zf_driver/zf_driver_gpio.c:95 (discriminator 1)
     432:	4585                	li	a1,1
     434:	04000513          	li	a0,64
     438:	0e6020ef          	jal	ra,251e <RCC_APB2PeriphClockCmd>
     43c:	a035                	j	468 <gpio_init+0xdc>
C:/Users/Yaner/Desktop/camera/libraries/zf_driver/zf_driver_gpio.c:96
    else if(5 == io_group) RCC_APB2PeriphClockCmd(RCC_APB2Periph_GPIOF, ENABLE);
     43e:	fef44703          	lbu	a4,-17(s0)
     442:	4795                	li	a5,5
     444:	00f71863          	bne	a4,a5,454 <gpio_init+0xc8>
C:/Users/Yaner/Desktop/camera/libraries/zf_driver/zf_driver_gpio.c:96 (discriminator 1)
     448:	4585                	li	a1,1
     44a:	08000513          	li	a0,128
     44e:	0d0020ef          	jal	ra,251e <RCC_APB2PeriphClockCmd>
     452:	a819                	j	468 <gpio_init+0xdc>
C:/Users/Yaner/Desktop/camera/libraries/zf_driver/zf_driver_gpio.c:97
    else if(6 == io_group) RCC_APB2PeriphClockCmd(RCC_APB2Periph_GPIOG, ENABLE);
     454:	fef44703          	lbu	a4,-17(s0)
     458:	4799                	li	a5,6
     45a:	00f71763          	bne	a4,a5,468 <gpio_init+0xdc>
C:/Users/Yaner/Desktop/camera/libraries/zf_driver/zf_driver_gpio.c:97 (discriminator 1)
     45e:	4585                	li	a1,1
     460:	10000513          	li	a0,256
     464:	0ba020ef          	jal	ra,251e <RCC_APB2PeriphClockCmd>
C:/Users/Yaner/Desktop/camera/libraries/zf_driver/zf_driver_gpio.c:100

    //  设置引脚号
    GPIO_InitStructure.GPIO_Pin = (uint16_t)(1 << io_pin);
     468:	fee44783          	lbu	a5,-18(s0)
     46c:	4705                	li	a4,1
     46e:	00f717b3          	sll	a5,a4,a5
     472:	07c2                	slli	a5,a5,0x10
     474:	83c1                	srli	a5,a5,0x10
     476:	fef41023          	sh	a5,-32(s0)
C:/Users/Yaner/Desktop/camera/libraries/zf_driver/zf_driver_gpio.c:103

    //  只有输出需要设置速度
    if(GPO == gpio_dir)
     47a:	fd842703          	lw	a4,-40(s0)
     47e:	4785                	li	a5,1
     480:	02f71763          	bne	a4,a5,4ae <gpio_init+0x122>
C:/Users/Yaner/Desktop/camera/libraries/zf_driver/zf_driver_gpio.c:105
    {
        if((uint16_t)pinconf >> 8 == 0) GPIO_InitStructure.GPIO_Speed = (GPIOSpeed_TypeDef)(GPIO_Speed_50MHz);            //防止没有填写这个参数,默认设置50Mhz
     484:	fd042783          	lw	a5,-48(s0)
     488:	07c2                	slli	a5,a5,0x10
     48a:	83c1                	srli	a5,a5,0x10
     48c:	83a1                	srli	a5,a5,0x8
     48e:	07c2                	slli	a5,a5,0x10
     490:	83c1                	srli	a5,a5,0x10
     492:	e789                	bnez	a5,49c <gpio_init+0x110>
C:/Users/Yaner/Desktop/camera/libraries/zf_driver/zf_driver_gpio.c:105 (discriminator 1)
     494:	478d                	li	a5,3
     496:	fef42223          	sw	a5,-28(s0)
     49a:	a811                	j	4ae <gpio_init+0x122>
C:/Users/Yaner/Desktop/camera/libraries/zf_driver/zf_driver_gpio.c:106
        else GPIO_InitStructure.GPIO_Speed = (gpio_speed_enum)((uint16_t)pinconf >> 8);         //已经填写了该参数。根据值来设置
     49c:	fd042783          	lw	a5,-48(s0)
     4a0:	07c2                	slli	a5,a5,0x10
     4a2:	83c1                	srli	a5,a5,0x10
     4a4:	83a1                	srli	a5,a5,0x8
     4a6:	07c2                	slli	a5,a5,0x10
     4a8:	83c1                	srli	a5,a5,0x10
     4aa:	fef42223          	sw	a5,-28(s0)
C:/Users/Yaner/Desktop/camera/libraries/zf_driver/zf_driver_gpio.c:110
    }

    //  设置模式
    GPIO_InitStructure.GPIO_Mode = (GPIOMode_TypeDef)((uint16_t)pinconf & 0xFF);
     4ae:	fd042783          	lw	a5,-48(s0)
     4b2:	07c2                	slli	a5,a5,0x10
     4b4:	83c1                	srli	a5,a5,0x10
     4b6:	0ff7f793          	andi	a5,a5,255
     4ba:	fef42423          	sw	a5,-24(s0)
C:/Users/Yaner/Desktop/camera/libraries/zf_driver/zf_driver_gpio.c:111
    GPIO_Init((GPIO_TypeDef*)gpio_group[io_group], &GPIO_InitStructure);
     4be:	fef44703          	lbu	a4,-17(s0)
     4c2:	6795                	lui	a5,0x5
     4c4:	070a                	slli	a4,a4,0x2
     4c6:	db878793          	addi	a5,a5,-584 # 4db8 <gpio_group>
     4ca:	97ba                	add	a5,a5,a4
     4cc:	439c                	lw	a5,0(a5)
     4ce:	873e                	mv	a4,a5
     4d0:	fe040793          	addi	a5,s0,-32
     4d4:	85be                	mv	a1,a5
     4d6:	853a                	mv	a0,a4
     4d8:	1df010ef          	jal	ra,1eb6 <GPIO_Init>
C:/Users/Yaner/Desktop/camera/libraries/zf_driver/zf_driver_gpio.c:114

    //  只有输出需要设置引脚状态
    if(GPO == gpio_dir)
     4dc:	fd842703          	lw	a4,-40(s0)
     4e0:	4785                	li	a5,1
     4e2:	02f71c63          	bne	a4,a5,51a <gpio_init+0x18e>
C:/Users/Yaner/Desktop/camera/libraries/zf_driver/zf_driver_gpio.c:116
    {
        GPIO_WriteBit((GPIO_TypeDef*)gpio_group[io_group], (uint16_t)(1 << io_pin), dat);
     4e6:	fef44703          	lbu	a4,-17(s0)
     4ea:	6795                	lui	a5,0x5
     4ec:	070a                	slli	a4,a4,0x2
     4ee:	db878793          	addi	a5,a5,-584 # 4db8 <gpio_group>
     4f2:	97ba                	add	a5,a5,a4
     4f4:	439c                	lw	a5,0(a5)
     4f6:	86be                	mv	a3,a5
     4f8:	fee44783          	lbu	a5,-18(s0)
     4fc:	4705                	li	a4,1
     4fe:	00f717b3          	sll	a5,a4,a5
     502:	07c2                	slli	a5,a5,0x10
     504:	83c1                	srli	a5,a5,0x10
     506:	fd442603          	lw	a2,-44(s0)
     50a:	85be                	mv	a1,a5
     50c:	8536                	mv	a0,a3
     50e:	3d3010ef          	jal	ra,20e0 <GPIO_WriteBit>
     512:	a021                	j	51a <gpio_init+0x18e>
C:/Users/Yaner/Desktop/camera/libraries/zf_driver/zf_driver_gpio.c:87
    if(PIN_NULL == gpio_pin) return;
     514:	0001                	nop
     516:	a011                	j	51a <gpio_init+0x18e>
C:/Users/Yaner/Desktop/camera/libraries/zf_driver/zf_driver_gpio.c:88
    if(SPI_CS_NULL == gpio_pin) return;
     518:	0001                	nop
C:/Users/Yaner/Desktop/camera/libraries/zf_driver/zf_driver_gpio.c:118
    }
}
     51a:	50b2                	lw	ra,44(sp)
     51c:	5422                	lw	s0,40(sp)
     51e:	6145                	addi	sp,sp,48
     520:	8082                	ret

00000522 <uart_gpio_init>:
uart_gpio_init():
C:/Users/Yaner/Desktop/camera/libraries/zf_driver/zf_driver_uart.c:39
//  @param      rx_pin      串口接收引脚号
//  @return     void
//  Sample usage:           内部使用，用户无需关心
//-------------------------------------------------------------------------------------------------------------------
void uart_gpio_init(uart_pin_enum tx_pin, uart_pin_enum rx_pin)
{
     522:	1101                	addi	sp,sp,-32
     524:	ce06                	sw	ra,28(sp)
     526:	cc22                	sw	s0,24(sp)
     528:	1000                	addi	s0,sp,32
     52a:	fea42623          	sw	a0,-20(s0)
     52e:	feb42423          	sw	a1,-24(s0)
C:/Users/Yaner/Desktop/camera/libraries/zf_driver/zf_driver_uart.c:40
    if     (tx_pin == UART1_TX_A9 )     gpio_init(A9,  GPO, 0, GPO_AF_PUSH_PULL);
     532:	fec42783          	lw	a5,-20(s0)
     536:	e799                	bnez	a5,544 <uart_gpio_init+0x22>
C:/Users/Yaner/Desktop/camera/libraries/zf_driver/zf_driver_uart.c:40 (discriminator 1)
     538:	46e1                	li	a3,24
     53a:	4601                	li	a2,0
     53c:	4585                	li	a1,1
     53e:	4525                	li	a0,9
     540:	35b1                	jal	38c <gpio_init>
     542:	aa45                	j	6f2 <uart_gpio_init+0x1d0>
C:/Users/Yaner/Desktop/camera/libraries/zf_driver/zf_driver_uart.c:41
    else if(tx_pin == UART1_TX_B6 )     gpio_init(B6,  GPO, 0, GPO_AF_PUSH_PULL);
     544:	fec42703          	lw	a4,-20(s0)
     548:	4789                	li	a5,2
     54a:	00f71963          	bne	a4,a5,55c <uart_gpio_init+0x3a>
C:/Users/Yaner/Desktop/camera/libraries/zf_driver/zf_driver_uart.c:41 (discriminator 1)
     54e:	46e1                	li	a3,24
     550:	4601                	li	a2,0
     552:	4585                	li	a1,1
     554:	02600513          	li	a0,38
     558:	3d15                	jal	38c <gpio_init>
     55a:	aa61                	j	6f2 <uart_gpio_init+0x1d0>
C:/Users/Yaner/Desktop/camera/libraries/zf_driver/zf_driver_uart.c:42
    else if(tx_pin == UART2_TX_A2 )     gpio_init(A2,  GPO, 0, GPO_AF_PUSH_PULL);
     55c:	fec42703          	lw	a4,-20(s0)
     560:	47c1                	li	a5,16
     562:	00f71863          	bne	a4,a5,572 <uart_gpio_init+0x50>
C:/Users/Yaner/Desktop/camera/libraries/zf_driver/zf_driver_uart.c:42 (discriminator 1)
     566:	46e1                	li	a3,24
     568:	4601                	li	a2,0
     56a:	4585                	li	a1,1
     56c:	4509                	li	a0,2
     56e:	3d39                	jal	38c <gpio_init>
     570:	a249                	j	6f2 <uart_gpio_init+0x1d0>
C:/Users/Yaner/Desktop/camera/libraries/zf_driver/zf_driver_uart.c:43
    else if(tx_pin == UART2_TX_D5 )     gpio_init(D5,  GPO, 0, GPO_AF_PUSH_PULL);
     572:	fec42703          	lw	a4,-20(s0)
     576:	47c9                	li	a5,18
     578:	00f71963          	bne	a4,a5,58a <uart_gpio_init+0x68>
C:/Users/Yaner/Desktop/camera/libraries/zf_driver/zf_driver_uart.c:43 (discriminator 1)
     57c:	46e1                	li	a3,24
     57e:	4601                	li	a2,0
     580:	4585                	li	a1,1
     582:	06500513          	li	a0,101
     586:	3519                	jal	38c <gpio_init>
     588:	a2ad                	j	6f2 <uart_gpio_init+0x1d0>
C:/Users/Yaner/Desktop/camera/libraries/zf_driver/zf_driver_uart.c:44
    else if(tx_pin == UART3_TX_B10)     gpio_init(B10, GPO, 0, GPO_AF_PUSH_PULL);
     58a:	fec42703          	lw	a4,-20(s0)
     58e:	02000793          	li	a5,32
     592:	00f71963          	bne	a4,a5,5a4 <uart_gpio_init+0x82>
C:/Users/Yaner/Desktop/camera/libraries/zf_driver/zf_driver_uart.c:44 (discriminator 1)
     596:	46e1                	li	a3,24
     598:	4601                	li	a2,0
     59a:	4585                	li	a1,1
     59c:	02a00513          	li	a0,42
     5a0:	33f5                	jal	38c <gpio_init>
     5a2:	aa81                	j	6f2 <uart_gpio_init+0x1d0>
C:/Users/Yaner/Desktop/camera/libraries/zf_driver/zf_driver_uart.c:45
    else if(tx_pin == UART3_TX_C10)     gpio_init(C10, GPO, 0, GPO_AF_PUSH_PULL);
     5a4:	fec42703          	lw	a4,-20(s0)
     5a8:	02200793          	li	a5,34
     5ac:	00f71963          	bne	a4,a5,5be <uart_gpio_init+0x9c>
C:/Users/Yaner/Desktop/camera/libraries/zf_driver/zf_driver_uart.c:45 (discriminator 1)
     5b0:	46e1                	li	a3,24
     5b2:	4601                	li	a2,0
     5b4:	4585                	li	a1,1
     5b6:	04a00513          	li	a0,74
     5ba:	3bc9                	jal	38c <gpio_init>
     5bc:	aa1d                	j	6f2 <uart_gpio_init+0x1d0>
C:/Users/Yaner/Desktop/camera/libraries/zf_driver/zf_driver_uart.c:46
    else if(tx_pin == UART3_TX_D8 )     gpio_init(D8,  GPO, 0, GPO_AF_PUSH_PULL);
     5be:	fec42703          	lw	a4,-20(s0)
     5c2:	02400793          	li	a5,36
     5c6:	00f71963          	bne	a4,a5,5d8 <uart_gpio_init+0xb6>
C:/Users/Yaner/Desktop/camera/libraries/zf_driver/zf_driver_uart.c:46 (discriminator 1)
     5ca:	46e1                	li	a3,24
     5cc:	4601                	li	a2,0
     5ce:	4585                	li	a1,1
     5d0:	06800513          	li	a0,104
     5d4:	3b65                	jal	38c <gpio_init>
     5d6:	aa31                	j	6f2 <uart_gpio_init+0x1d0>
C:/Users/Yaner/Desktop/camera/libraries/zf_driver/zf_driver_uart.c:47
    else if(tx_pin == UART4_TX_C10)     gpio_init(C10, GPO, 0, GPO_AF_PUSH_PULL);
     5d8:	fec42703          	lw	a4,-20(s0)
     5dc:	04000793          	li	a5,64
     5e0:	00f71963          	bne	a4,a5,5f2 <uart_gpio_init+0xd0>
C:/Users/Yaner/Desktop/camera/libraries/zf_driver/zf_driver_uart.c:47 (discriminator 1)
     5e4:	46e1                	li	a3,24
     5e6:	4601                	li	a2,0
     5e8:	4585                	li	a1,1
     5ea:	04a00513          	li	a0,74
     5ee:	3b79                	jal	38c <gpio_init>
     5f0:	a209                	j	6f2 <uart_gpio_init+0x1d0>
C:/Users/Yaner/Desktop/camera/libraries/zf_driver/zf_driver_uart.c:48
    else if(tx_pin == UART4_TX_B0)      gpio_init(B0, GPO, 0, GPO_AF_PUSH_PULL);
     5f2:	fec42703          	lw	a4,-20(s0)
     5f6:	04200793          	li	a5,66
     5fa:	00f71963          	bne	a4,a5,60c <uart_gpio_init+0xea>
C:/Users/Yaner/Desktop/camera/libraries/zf_driver/zf_driver_uart.c:48 (discriminator 1)
     5fe:	46e1                	li	a3,24
     600:	4601                	li	a2,0
     602:	4585                	li	a1,1
     604:	02000513          	li	a0,32
     608:	3351                	jal	38c <gpio_init>
     60a:	a0e5                	j	6f2 <uart_gpio_init+0x1d0>
C:/Users/Yaner/Desktop/camera/libraries/zf_driver/zf_driver_uart.c:49
    else if(tx_pin == UART5_TX_C12)     gpio_init(C12, GPO, 0, GPO_AF_PUSH_PULL);
     60c:	fec42703          	lw	a4,-20(s0)
     610:	05000793          	li	a5,80
     614:	00f71963          	bne	a4,a5,626 <uart_gpio_init+0x104>
C:/Users/Yaner/Desktop/camera/libraries/zf_driver/zf_driver_uart.c:49 (discriminator 1)
     618:	46e1                	li	a3,24
     61a:	4601                	li	a2,0
     61c:	4585                	li	a1,1
     61e:	04c00513          	li	a0,76
     622:	33ad                	jal	38c <gpio_init>
     624:	a0f9                	j	6f2 <uart_gpio_init+0x1d0>
C:/Users/Yaner/Desktop/camera/libraries/zf_driver/zf_driver_uart.c:50
    else if(tx_pin == UART5_TX_E8)      gpio_init(E8, GPO, 0, GPO_AF_PUSH_PULL);
     626:	fec42703          	lw	a4,-20(s0)
     62a:	05200793          	li	a5,82
     62e:	00f71963          	bne	a4,a5,640 <uart_gpio_init+0x11e>
C:/Users/Yaner/Desktop/camera/libraries/zf_driver/zf_driver_uart.c:50 (discriminator 1)
     632:	46e1                	li	a3,24
     634:	4601                	li	a2,0
     636:	4585                	li	a1,1
     638:	08800513          	li	a0,136
     63c:	3b81                	jal	38c <gpio_init>
     63e:	a855                	j	6f2 <uart_gpio_init+0x1d0>
C:/Users/Yaner/Desktop/camera/libraries/zf_driver/zf_driver_uart.c:51
    else if(tx_pin == UART6_TX_C0 )     gpio_init(C0,  GPO, 0, GPO_AF_PUSH_PULL);
     640:	fec42703          	lw	a4,-20(s0)
     644:	06000793          	li	a5,96
     648:	00f71963          	bne	a4,a5,65a <uart_gpio_init+0x138>
C:/Users/Yaner/Desktop/camera/libraries/zf_driver/zf_driver_uart.c:51 (discriminator 1)
     64c:	46e1                	li	a3,24
     64e:	4601                	li	a2,0
     650:	4585                	li	a1,1
     652:	04000513          	li	a0,64
     656:	3b1d                	jal	38c <gpio_init>
     658:	a869                	j	6f2 <uart_gpio_init+0x1d0>
C:/Users/Yaner/Desktop/camera/libraries/zf_driver/zf_driver_uart.c:52
    else if(tx_pin == UART6_TX_E10 )    gpio_init(E10,  GPO, 0, GPO_AF_PUSH_PULL);
     65a:	fec42703          	lw	a4,-20(s0)
     65e:	06200793          	li	a5,98
     662:	00f71963          	bne	a4,a5,674 <uart_gpio_init+0x152>
C:/Users/Yaner/Desktop/camera/libraries/zf_driver/zf_driver_uart.c:52 (discriminator 1)
     666:	46e1                	li	a3,24
     668:	4601                	li	a2,0
     66a:	4585                	li	a1,1
     66c:	08a00513          	li	a0,138
     670:	3b31                	jal	38c <gpio_init>
     672:	a041                	j	6f2 <uart_gpio_init+0x1d0>
C:/Users/Yaner/Desktop/camera/libraries/zf_driver/zf_driver_uart.c:53
    else if(tx_pin == UART7_TX_C2 )     gpio_init(C2,  GPO, 0, GPO_AF_PUSH_PULL);
     674:	fec42703          	lw	a4,-20(s0)
     678:	07000793          	li	a5,112
     67c:	00f71963          	bne	a4,a5,68e <uart_gpio_init+0x16c>
C:/Users/Yaner/Desktop/camera/libraries/zf_driver/zf_driver_uart.c:53 (discriminator 1)
     680:	46e1                	li	a3,24
     682:	4601                	li	a2,0
     684:	4585                	li	a1,1
     686:	04200513          	li	a0,66
     68a:	3309                	jal	38c <gpio_init>
     68c:	a09d                	j	6f2 <uart_gpio_init+0x1d0>
C:/Users/Yaner/Desktop/camera/libraries/zf_driver/zf_driver_uart.c:54
    else if(tx_pin == UART7_TX_A6 )     gpio_init(A6,  GPO, 0, GPO_AF_PUSH_PULL);
     68e:	fec42703          	lw	a4,-20(s0)
     692:	07200793          	li	a5,114
     696:	00f71863          	bne	a4,a5,6a6 <uart_gpio_init+0x184>
C:/Users/Yaner/Desktop/camera/libraries/zf_driver/zf_driver_uart.c:54 (discriminator 1)
     69a:	46e1                	li	a3,24
     69c:	4601                	li	a2,0
     69e:	4585                	li	a1,1
     6a0:	4519                	li	a0,6
     6a2:	31ed                	jal	38c <gpio_init>
     6a4:	a0b9                	j	6f2 <uart_gpio_init+0x1d0>
C:/Users/Yaner/Desktop/camera/libraries/zf_driver/zf_driver_uart.c:55
    else if(tx_pin == UART7_TX_E12 )    gpio_init(E12,  GPO, 0, GPO_AF_PUSH_PULL);
     6a6:	fec42703          	lw	a4,-20(s0)
     6aa:	07400793          	li	a5,116
     6ae:	00f71963          	bne	a4,a5,6c0 <uart_gpio_init+0x19e>
C:/Users/Yaner/Desktop/camera/libraries/zf_driver/zf_driver_uart.c:55 (discriminator 1)
     6b2:	46e1                	li	a3,24
     6b4:	4601                	li	a2,0
     6b6:	4585                	li	a1,1
     6b8:	08c00513          	li	a0,140
     6bc:	39c1                	jal	38c <gpio_init>
     6be:	a815                	j	6f2 <uart_gpio_init+0x1d0>
C:/Users/Yaner/Desktop/camera/libraries/zf_driver/zf_driver_uart.c:56
    else if(tx_pin == UART8_TX_C4 )     gpio_init(C4,  GPO, 0, GPO_AF_PUSH_PULL);
     6c0:	fec42703          	lw	a4,-20(s0)
     6c4:	08000793          	li	a5,128
     6c8:	00f71963          	bne	a4,a5,6da <uart_gpio_init+0x1b8>
C:/Users/Yaner/Desktop/camera/libraries/zf_driver/zf_driver_uart.c:56 (discriminator 1)
     6cc:	46e1                	li	a3,24
     6ce:	4601                	li	a2,0
     6d0:	4585                	li	a1,1
     6d2:	04400513          	li	a0,68
     6d6:	395d                	jal	38c <gpio_init>
     6d8:	a829                	j	6f2 <uart_gpio_init+0x1d0>
C:/Users/Yaner/Desktop/camera/libraries/zf_driver/zf_driver_uart.c:57
    else if(tx_pin == UART8_TX_E14 )    gpio_init(E14,  GPO, 0, GPO_AF_PUSH_PULL);
     6da:	fec42703          	lw	a4,-20(s0)
     6de:	08200793          	li	a5,130
     6e2:	00f71863          	bne	a4,a5,6f2 <uart_gpio_init+0x1d0>
C:/Users/Yaner/Desktop/camera/libraries/zf_driver/zf_driver_uart.c:57 (discriminator 1)
     6e6:	46e1                	li	a3,24
     6e8:	4601                	li	a2,0
     6ea:	4585                	li	a1,1
     6ec:	08e00513          	li	a0,142
     6f0:	3971                	jal	38c <gpio_init>
C:/Users/Yaner/Desktop/camera/libraries/zf_driver/zf_driver_uart.c:59

    if     (rx_pin == UART1_RX_A10)     gpio_init(A10, GPI, 0, GPI_PULL_UP);
     6f2:	fe842703          	lw	a4,-24(s0)
     6f6:	4785                	li	a5,1
     6f8:	00f71963          	bne	a4,a5,70a <uart_gpio_init+0x1e8>
C:/Users/Yaner/Desktop/camera/libraries/zf_driver/zf_driver_uart.c:59 (discriminator 1)
     6fc:	04800693          	li	a3,72
     700:	4601                	li	a2,0
     702:	4581                	li	a1,0
     704:	4529                	li	a0,10
     706:	3159                	jal	38c <gpio_init>
C:/Users/Yaner/Desktop/camera/libraries/zf_driver/zf_driver_uart.c:77 (discriminator 1)
    else if(rx_pin == UART7_RX_C3 )     gpio_init(C3,  GPI, 0, GPI_PULL_UP);
    else if(rx_pin == UART7_RX_A7 )     gpio_init(A7,  GPI, 0, GPI_PULL_UP);
    else if(rx_pin == UART7_RX_E13 )    gpio_init(E13,  GPI, 0, GPI_PULL_UP);
    else if(rx_pin == UART8_RX_C5 )     gpio_init(C5,  GPI, 0, GPI_PULL_UP);
    else if(rx_pin == UART8_RX_E15 )    gpio_init(E15,  GPI, 0, GPI_PULL_UP);
}
     708:	aac9                	j	8da <__stack_size+0xda>
C:/Users/Yaner/Desktop/camera/libraries/zf_driver/zf_driver_uart.c:60
    else if(rx_pin == UART1_RX_B7 )     gpio_init(B7,  GPI, 0, GPI_PULL_UP);
     70a:	fe842703          	lw	a4,-24(s0)
     70e:	478d                	li	a5,3
     710:	00f71a63          	bne	a4,a5,724 <uart_gpio_init+0x202>
C:/Users/Yaner/Desktop/camera/libraries/zf_driver/zf_driver_uart.c:60 (discriminator 1)
     714:	04800693          	li	a3,72
     718:	4601                	li	a2,0
     71a:	4581                	li	a1,0
     71c:	02700513          	li	a0,39
     720:	31b5                	jal	38c <gpio_init>
C:/Users/Yaner/Desktop/camera/libraries/zf_driver/zf_driver_uart.c:77 (discriminator 1)
}
     722:	aa65                	j	8da <__stack_size+0xda>
C:/Users/Yaner/Desktop/camera/libraries/zf_driver/zf_driver_uart.c:61
    else if(rx_pin == UART2_RX_A3 )     gpio_init(A3,  GPI, 0, GPI_PULL_UP);
     724:	fe842703          	lw	a4,-24(s0)
     728:	47c5                	li	a5,17
     72a:	00f71963          	bne	a4,a5,73c <uart_gpio_init+0x21a>
C:/Users/Yaner/Desktop/camera/libraries/zf_driver/zf_driver_uart.c:61 (discriminator 1)
     72e:	04800693          	li	a3,72
     732:	4601                	li	a2,0
     734:	4581                	li	a1,0
     736:	450d                	li	a0,3
     738:	3991                	jal	38c <gpio_init>
C:/Users/Yaner/Desktop/camera/libraries/zf_driver/zf_driver_uart.c:77 (discriminator 1)
}
     73a:	a245                	j	8da <__stack_size+0xda>
C:/Users/Yaner/Desktop/camera/libraries/zf_driver/zf_driver_uart.c:62
    else if(rx_pin == UART2_RX_D6 )     gpio_init(D6,  GPI, 0, GPI_PULL_UP);
     73c:	fe842703          	lw	a4,-24(s0)
     740:	47cd                	li	a5,19
     742:	00f71a63          	bne	a4,a5,756 <uart_gpio_init+0x234>
C:/Users/Yaner/Desktop/camera/libraries/zf_driver/zf_driver_uart.c:62 (discriminator 1)
     746:	04800693          	li	a3,72
     74a:	4601                	li	a2,0
     74c:	4581                	li	a1,0
     74e:	06600513          	li	a0,102
     752:	392d                	jal	38c <gpio_init>
C:/Users/Yaner/Desktop/camera/libraries/zf_driver/zf_driver_uart.c:77 (discriminator 1)
}
     754:	a259                	j	8da <__stack_size+0xda>
C:/Users/Yaner/Desktop/camera/libraries/zf_driver/zf_driver_uart.c:63
    else if(rx_pin == UART3_RX_B11)     gpio_init(B11, GPI, 0, GPI_PULL_UP);
     756:	fe842703          	lw	a4,-24(s0)
     75a:	02100793          	li	a5,33
     75e:	00f71a63          	bne	a4,a5,772 <uart_gpio_init+0x250>
C:/Users/Yaner/Desktop/camera/libraries/zf_driver/zf_driver_uart.c:63 (discriminator 1)
     762:	04800693          	li	a3,72
     766:	4601                	li	a2,0
     768:	4581                	li	a1,0
     76a:	02b00513          	li	a0,43
     76e:	3939                	jal	38c <gpio_init>
C:/Users/Yaner/Desktop/camera/libraries/zf_driver/zf_driver_uart.c:77 (discriminator 1)
}
     770:	a2ad                	j	8da <__stack_size+0xda>
C:/Users/Yaner/Desktop/camera/libraries/zf_driver/zf_driver_uart.c:64
    else if(rx_pin == UART3_RX_C11)     gpio_init(C11, GPI, 0, GPI_PULL_UP);
     772:	fe842703          	lw	a4,-24(s0)
     776:	02300793          	li	a5,35
     77a:	00f71a63          	bne	a4,a5,78e <uart_gpio_init+0x26c>
C:/Users/Yaner/Desktop/camera/libraries/zf_driver/zf_driver_uart.c:64 (discriminator 1)
     77e:	04800693          	li	a3,72
     782:	4601                	li	a2,0
     784:	4581                	li	a1,0
     786:	04b00513          	li	a0,75
     78a:	3109                	jal	38c <gpio_init>
C:/Users/Yaner/Desktop/camera/libraries/zf_driver/zf_driver_uart.c:77 (discriminator 1)
}
     78c:	a2b9                	j	8da <__stack_size+0xda>
C:/Users/Yaner/Desktop/camera/libraries/zf_driver/zf_driver_uart.c:65
    else if(rx_pin == UART3_RX_D9 )     gpio_init(D9,  GPI, 0, GPI_PULL_UP);
     78e:	fe842703          	lw	a4,-24(s0)
     792:	02500793          	li	a5,37
     796:	00f71a63          	bne	a4,a5,7aa <uart_gpio_init+0x288>
C:/Users/Yaner/Desktop/camera/libraries/zf_driver/zf_driver_uart.c:65 (discriminator 1)
     79a:	04800693          	li	a3,72
     79e:	4601                	li	a2,0
     7a0:	4581                	li	a1,0
     7a2:	06900513          	li	a0,105
     7a6:	36dd                	jal	38c <gpio_init>
C:/Users/Yaner/Desktop/camera/libraries/zf_driver/zf_driver_uart.c:77 (discriminator 1)
}
     7a8:	aa0d                	j	8da <__stack_size+0xda>
C:/Users/Yaner/Desktop/camera/libraries/zf_driver/zf_driver_uart.c:66
    else if(rx_pin == UART4_RX_C11)     gpio_init(C11, GPI, 0, GPI_PULL_UP);
     7aa:	fe842703          	lw	a4,-24(s0)
     7ae:	04100793          	li	a5,65
     7b2:	00f71a63          	bne	a4,a5,7c6 <uart_gpio_init+0x2a4>
C:/Users/Yaner/Desktop/camera/libraries/zf_driver/zf_driver_uart.c:66 (discriminator 1)
     7b6:	04800693          	li	a3,72
     7ba:	4601                	li	a2,0
     7bc:	4581                	li	a1,0
     7be:	04b00513          	li	a0,75
     7c2:	36e9                	jal	38c <gpio_init>
C:/Users/Yaner/Desktop/camera/libraries/zf_driver/zf_driver_uart.c:77 (discriminator 1)
}
     7c4:	aa19                	j	8da <__stack_size+0xda>
C:/Users/Yaner/Desktop/camera/libraries/zf_driver/zf_driver_uart.c:67
    else if(rx_pin == UART4_RX_B1)      gpio_init(B1, GPI, 0, GPI_PULL_UP);
     7c6:	fe842703          	lw	a4,-24(s0)
     7ca:	04300793          	li	a5,67
     7ce:	00f71a63          	bne	a4,a5,7e2 <uart_gpio_init+0x2c0>
C:/Users/Yaner/Desktop/camera/libraries/zf_driver/zf_driver_uart.c:67 (discriminator 1)
     7d2:	04800693          	li	a3,72
     7d6:	4601                	li	a2,0
     7d8:	4581                	li	a1,0
     7da:	02100513          	li	a0,33
     7de:	367d                	jal	38c <gpio_init>
C:/Users/Yaner/Desktop/camera/libraries/zf_driver/zf_driver_uart.c:77 (discriminator 1)
}
     7e0:	a8ed                	j	8da <__stack_size+0xda>
C:/Users/Yaner/Desktop/camera/libraries/zf_driver/zf_driver_uart.c:68
    else if(rx_pin == UART5_RX_D2 )     gpio_init(D2,  GPI, 0, GPI_PULL_UP);
     7e2:	fe842703          	lw	a4,-24(s0)
     7e6:	05100793          	li	a5,81
     7ea:	00f71a63          	bne	a4,a5,7fe <uart_gpio_init+0x2dc>
C:/Users/Yaner/Desktop/camera/libraries/zf_driver/zf_driver_uart.c:68 (discriminator 1)
     7ee:	04800693          	li	a3,72
     7f2:	4601                	li	a2,0
     7f4:	4581                	li	a1,0
     7f6:	06200513          	li	a0,98
     7fa:	3e49                	jal	38c <gpio_init>
C:/Users/Yaner/Desktop/camera/libraries/zf_driver/zf_driver_uart.c:77 (discriminator 1)
}
     7fc:	a8f9                	j	8da <__stack_size+0xda>
C:/Users/Yaner/Desktop/camera/libraries/zf_driver/zf_driver_uart.c:69
    else if(rx_pin == UART5_RX_E9 )     gpio_init(E9,  GPI, 0, GPI_PULL_UP);
     7fe:	fe842703          	lw	a4,-24(s0)
     802:	05300793          	li	a5,83
     806:	00f71a63          	bne	a4,a5,81a <__stack_size+0x1a>
C:/Users/Yaner/Desktop/camera/libraries/zf_driver/zf_driver_uart.c:69 (discriminator 1)
     80a:	04800693          	li	a3,72
     80e:	4601                	li	a2,0
     810:	4581                	li	a1,0
     812:	08900513          	li	a0,137
     816:	3e9d                	jal	38c <gpio_init>
C:/Users/Yaner/Desktop/camera/libraries/zf_driver/zf_driver_uart.c:77 (discriminator 1)
}
     818:	a0c9                	j	8da <__stack_size+0xda>
C:/Users/Yaner/Desktop/camera/libraries/zf_driver/zf_driver_uart.c:70
    else if(rx_pin == UART6_RX_C1 )     gpio_init(C1,  GPI, 0, GPI_PULL_UP);
     81a:	fe842703          	lw	a4,-24(s0)
     81e:	06100793          	li	a5,97
     822:	00f71a63          	bne	a4,a5,836 <__stack_size+0x36>
C:/Users/Yaner/Desktop/camera/libraries/zf_driver/zf_driver_uart.c:70 (discriminator 1)
     826:	04800693          	li	a3,72
     82a:	4601                	li	a2,0
     82c:	4581                	li	a1,0
     82e:	04100513          	li	a0,65
     832:	3ea9                	jal	38c <gpio_init>
C:/Users/Yaner/Desktop/camera/libraries/zf_driver/zf_driver_uart.c:77 (discriminator 1)
}
     834:	a05d                	j	8da <__stack_size+0xda>
C:/Users/Yaner/Desktop/camera/libraries/zf_driver/zf_driver_uart.c:71
    else if(rx_pin == UART6_RX_E11 )    gpio_init(E11,  GPI, 0, GPI_PULL_UP);
     836:	fe842703          	lw	a4,-24(s0)
     83a:	06300793          	li	a5,99
     83e:	00f71a63          	bne	a4,a5,852 <__stack_size+0x52>
C:/Users/Yaner/Desktop/camera/libraries/zf_driver/zf_driver_uart.c:71 (discriminator 1)
     842:	04800693          	li	a3,72
     846:	4601                	li	a2,0
     848:	4581                	li	a1,0
     84a:	08b00513          	li	a0,139
     84e:	3e3d                	jal	38c <gpio_init>
C:/Users/Yaner/Desktop/camera/libraries/zf_driver/zf_driver_uart.c:77 (discriminator 1)
}
     850:	a069                	j	8da <__stack_size+0xda>
C:/Users/Yaner/Desktop/camera/libraries/zf_driver/zf_driver_uart.c:72
    else if(rx_pin == UART7_RX_C3 )     gpio_init(C3,  GPI, 0, GPI_PULL_UP);
     852:	fe842703          	lw	a4,-24(s0)
     856:	07100793          	li	a5,113
     85a:	00f71a63          	bne	a4,a5,86e <__stack_size+0x6e>
C:/Users/Yaner/Desktop/camera/libraries/zf_driver/zf_driver_uart.c:72 (discriminator 1)
     85e:	04800693          	li	a3,72
     862:	4601                	li	a2,0
     864:	4581                	li	a1,0
     866:	04300513          	li	a0,67
     86a:	360d                	jal	38c <gpio_init>
C:/Users/Yaner/Desktop/camera/libraries/zf_driver/zf_driver_uart.c:77 (discriminator 1)
}
     86c:	a0bd                	j	8da <__stack_size+0xda>
C:/Users/Yaner/Desktop/camera/libraries/zf_driver/zf_driver_uart.c:73
    else if(rx_pin == UART7_RX_A7 )     gpio_init(A7,  GPI, 0, GPI_PULL_UP);
     86e:	fe842703          	lw	a4,-24(s0)
     872:	07300793          	li	a5,115
     876:	00f71963          	bne	a4,a5,888 <__stack_size+0x88>
C:/Users/Yaner/Desktop/camera/libraries/zf_driver/zf_driver_uart.c:73 (discriminator 1)
     87a:	04800693          	li	a3,72
     87e:	4601                	li	a2,0
     880:	4581                	li	a1,0
     882:	451d                	li	a0,7
     884:	3621                	jal	38c <gpio_init>
C:/Users/Yaner/Desktop/camera/libraries/zf_driver/zf_driver_uart.c:77 (discriminator 1)
}
     886:	a891                	j	8da <__stack_size+0xda>
C:/Users/Yaner/Desktop/camera/libraries/zf_driver/zf_driver_uart.c:74
    else if(rx_pin == UART7_RX_E13 )    gpio_init(E13,  GPI, 0, GPI_PULL_UP);
     888:	fe842703          	lw	a4,-24(s0)
     88c:	07500793          	li	a5,117
     890:	00f71a63          	bne	a4,a5,8a4 <__stack_size+0xa4>
C:/Users/Yaner/Desktop/camera/libraries/zf_driver/zf_driver_uart.c:74 (discriminator 1)
     894:	04800693          	li	a3,72
     898:	4601                	li	a2,0
     89a:	4581                	li	a1,0
     89c:	08d00513          	li	a0,141
     8a0:	34f5                	jal	38c <gpio_init>
C:/Users/Yaner/Desktop/camera/libraries/zf_driver/zf_driver_uart.c:77 (discriminator 1)
}
     8a2:	a825                	j	8da <__stack_size+0xda>
C:/Users/Yaner/Desktop/camera/libraries/zf_driver/zf_driver_uart.c:75
    else if(rx_pin == UART8_RX_C5 )     gpio_init(C5,  GPI, 0, GPI_PULL_UP);
     8a4:	fe842703          	lw	a4,-24(s0)
     8a8:	08100793          	li	a5,129
     8ac:	00f71a63          	bne	a4,a5,8c0 <__stack_size+0xc0>
C:/Users/Yaner/Desktop/camera/libraries/zf_driver/zf_driver_uart.c:75 (discriminator 1)
     8b0:	04800693          	li	a3,72
     8b4:	4601                	li	a2,0
     8b6:	4581                	li	a1,0
     8b8:	04500513          	li	a0,69
     8bc:	3cc1                	jal	38c <gpio_init>
C:/Users/Yaner/Desktop/camera/libraries/zf_driver/zf_driver_uart.c:77 (discriminator 1)
}
     8be:	a831                	j	8da <__stack_size+0xda>
C:/Users/Yaner/Desktop/camera/libraries/zf_driver/zf_driver_uart.c:76
    else if(rx_pin == UART8_RX_E15 )    gpio_init(E15,  GPI, 0, GPI_PULL_UP);
     8c0:	fe842703          	lw	a4,-24(s0)
     8c4:	08300793          	li	a5,131
     8c8:	00f71963          	bne	a4,a5,8da <__stack_size+0xda>
C:/Users/Yaner/Desktop/camera/libraries/zf_driver/zf_driver_uart.c:76 (discriminator 1)
     8cc:	04800693          	li	a3,72
     8d0:	4601                	li	a2,0
     8d2:	4581                	li	a1,0
     8d4:	08f00513          	li	a0,143
     8d8:	3c55                	jal	38c <gpio_init>
C:/Users/Yaner/Desktop/camera/libraries/zf_driver/zf_driver_uart.c:77
}
     8da:	0001                	nop
     8dc:	40f2                	lw	ra,28(sp)
     8de:	4462                	lw	s0,24(sp)
     8e0:	6105                	addi	sp,sp,32
     8e2:	8082                	ret

000008e4 <uart_rx_interrupt>:
uart_rx_interrupt():
C:/Users/Yaner/Desktop/camera/libraries/zf_driver/zf_driver_uart.c:152
//  @param      status      使能或者失能
//  @return     void
//  Sample usage:           uart_rx_irq(UART_1, ENABLE);        //打开串口1接收中断
//-------------------------------------------------------------------------------------------------------------------
void uart_rx_interrupt(uart_index_enum uartn, uint8_t status)
{
     8e4:	1101                	addi	sp,sp,-32
     8e6:	ce06                	sw	ra,28(sp)
     8e8:	cc22                	sw	s0,24(sp)
     8ea:	1000                	addi	s0,sp,32
     8ec:	fea42623          	sw	a0,-20(s0)
     8f0:	87ae                	mv	a5,a1
     8f2:	fef405a3          	sb	a5,-21(s0)
C:/Users/Yaner/Desktop/camera/libraries/zf_driver/zf_driver_uart.c:153
    USART_ITConfig(((USART_TypeDef*)uart_index[uartn]), USART_IT_RXNE, status);
     8f6:	6795                	lui	a5,0x5
     8f8:	fec42703          	lw	a4,-20(s0)
     8fc:	070a                	slli	a4,a4,0x2
     8fe:	dcc78793          	addi	a5,a5,-564 # 4dcc <uart_index>
     902:	97ba                	add	a5,a5,a4
     904:	439c                	lw	a5,0(a5)
     906:	873e                	mv	a4,a5
     908:	feb44783          	lbu	a5,-21(s0)
     90c:	863e                	mv	a2,a5
     90e:	52500593          	li	a1,1317
     912:	853a                	mv	a0,a4
     914:	7c9010ef          	jal	ra,28dc <USART_ITConfig>
C:/Users/Yaner/Desktop/camera/libraries/zf_driver/zf_driver_uart.c:155

    NVIC->IPRIOR[(uint32_t)((IRQn_Type)uart_irq[uartn])] = 0;
     918:	e000e7b7          	lui	a5,0xe000e
     91c:	81818693          	addi	a3,gp,-2024 # 20000110 <uart_irq>
     920:	fec42703          	lw	a4,-20(s0)
     924:	9736                	add	a4,a4,a3
     926:	00074703          	lbu	a4,0(a4)
     92a:	97ba                	add	a5,a5,a4
     92c:	40078023          	sb	zero,1024(a5) # e000e400 <_eusrstack+0xbfffe400>
C:/Users/Yaner/Desktop/camera/libraries/zf_driver/zf_driver_uart.c:157

    if(status)  interrupt_enable((IRQn_Type)uart_irq[uartn]);
     930:	feb44783          	lbu	a5,-21(s0)
     934:	cf81                	beqz	a5,94c <uart_rx_interrupt+0x68>
C:/Users/Yaner/Desktop/camera/libraries/zf_driver/zf_driver_uart.c:157 (discriminator 1)
     936:	81818713          	addi	a4,gp,-2024 # 20000110 <uart_irq>
     93a:	fec42783          	lw	a5,-20(s0)
     93e:	97ba                	add	a5,a5,a4
     940:	0007c783          	lbu	a5,0(a5)
     944:	853e                	mv	a0,a5
     946:	247000ef          	jal	ra,138c <interrupt_enable>
C:/Users/Yaner/Desktop/camera/libraries/zf_driver/zf_driver_uart.c:161 (discriminator 1)
    else        interrupt_disable((IRQn_Type)uart_irq[uartn]);

    //nvic_init((IRQn_Type)uart_irq[uartn], 1, 0, status);
}
     94a:	a819                	j	960 <uart_rx_interrupt+0x7c>
C:/Users/Yaner/Desktop/camera/libraries/zf_driver/zf_driver_uart.c:158
    else        interrupt_disable((IRQn_Type)uart_irq[uartn]);
     94c:	81818713          	addi	a4,gp,-2024 # 20000110 <uart_irq>
     950:	fec42783          	lw	a5,-20(s0)
     954:	97ba                	add	a5,a5,a4
     956:	0007c783          	lbu	a5,0(a5)
     95a:	853e                	mv	a0,a5
     95c:	24d000ef          	jal	ra,13a8 <interrupt_disable>
C:/Users/Yaner/Desktop/camera/libraries/zf_driver/zf_driver_uart.c:161
}
     960:	0001                	nop
     962:	40f2                	lw	ra,28(sp)
     964:	4462                	lw	s0,24(sp)
     966:	6105                	addi	sp,sp,32
     968:	8082                	ret

0000096a <uart_init>:
uart_init():
C:/Users/Yaner/Desktop/camera/libraries/zf_driver/zf_driver_uart.c:221
//  @param      rx_pin      串口接收引脚号
//  @return     void
//  Sample usage:           uart_init(UART_1, 115200, UART1_TX_A9, UART1_RX_A10); //串口1初始化引脚号,TX为A9,RX为A10
//-------------------------------------------------------------------------------------------------------------------
void uart_init(uart_index_enum uart_num, uint32_t baud, uart_pin_enum tx_pin, uart_pin_enum rx_pin)
{
     96a:	7179                	addi	sp,sp,-48
     96c:	d606                	sw	ra,44(sp)
     96e:	d422                	sw	s0,40(sp)
     970:	1800                	addi	s0,sp,48
     972:	fca42e23          	sw	a0,-36(s0)
     976:	fcb42c23          	sw	a1,-40(s0)
     97a:	fcc42a23          	sw	a2,-44(s0)
     97e:	fcd42823          	sw	a3,-48(s0)
C:/Users/Yaner/Desktop/camera/libraries/zf_driver/zf_driver_uart.c:225
    USART_InitTypeDef USART_InitStructure;

    // AFIO总线开启
    RCC_APB2PeriphClockCmd(RCC_APB2Periph_AFIO, ENABLE);
     982:	4585                	li	a1,1
     984:	4505                	li	a0,1
     986:	399010ef          	jal	ra,251e <RCC_APB2PeriphClockCmd>
C:/Users/Yaner/Desktop/camera/libraries/zf_driver/zf_driver_uart.c:232

    // RX引脚和TX引脚必须组传入
//    zf_assert(((rx_pin - 1) == tx_pin) || (tx_pin == UART5_TX_C12 && UART5_RX_D2 == rx_pin));

    // 引脚初始化
    uart_gpio_init(tx_pin, rx_pin);
     98a:	fd042583          	lw	a1,-48(s0)
     98e:	fd442503          	lw	a0,-44(s0)
     992:	3e41                	jal	522 <uart_gpio_init>
C:/Users/Yaner/Desktop/camera/libraries/zf_driver/zf_driver_uart.c:235

    // 端口重映射
    if(UART1_TX_B6 == tx_pin && UART1_RX_B7 == rx_pin)
     994:	fd442703          	lw	a4,-44(s0)
     998:	4789                	li	a5,2
     99a:	00f71c63          	bne	a4,a5,9b2 <uart_init+0x48>
C:/Users/Yaner/Desktop/camera/libraries/zf_driver/zf_driver_uart.c:235 (discriminator 1)
     99e:	fd042703          	lw	a4,-48(s0)
     9a2:	478d                	li	a5,3
     9a4:	00f71763          	bne	a4,a5,9b2 <uart_init+0x48>
C:/Users/Yaner/Desktop/camera/libraries/zf_driver/zf_driver_uart.c:236
        GPIO_PinRemapConfig(GPIO_Remap_USART1, ENABLE);
     9a8:	4585                	li	a1,1
     9aa:	4511                	li	a0,4
     9ac:	76c010ef          	jal	ra,2118 <GPIO_PinRemapConfig>
     9b0:	a295                	j	b14 <uart_init+0x1aa>
C:/Users/Yaner/Desktop/camera/libraries/zf_driver/zf_driver_uart.c:237
    else if(UART2_TX_D5 == tx_pin && UART2_RX_D6 == rx_pin)
     9b2:	fd442703          	lw	a4,-44(s0)
     9b6:	47c9                	li	a5,18
     9b8:	00f71c63          	bne	a4,a5,9d0 <uart_init+0x66>
C:/Users/Yaner/Desktop/camera/libraries/zf_driver/zf_driver_uart.c:237 (discriminator 1)
     9bc:	fd042703          	lw	a4,-48(s0)
     9c0:	47cd                	li	a5,19
     9c2:	00f71763          	bne	a4,a5,9d0 <uart_init+0x66>
C:/Users/Yaner/Desktop/camera/libraries/zf_driver/zf_driver_uart.c:238
        GPIO_PinRemapConfig(GPIO_Remap_USART2, ENABLE);
     9c6:	4585                	li	a1,1
     9c8:	4521                	li	a0,8
     9ca:	74e010ef          	jal	ra,2118 <GPIO_PinRemapConfig>
     9ce:	a299                	j	b14 <uart_init+0x1aa>
C:/Users/Yaner/Desktop/camera/libraries/zf_driver/zf_driver_uart.c:239
    else if(UART3_TX_C10 == tx_pin && UART3_RX_C11 == rx_pin)
     9d0:	fd442703          	lw	a4,-44(s0)
     9d4:	02200793          	li	a5,34
     9d8:	02f71063          	bne	a4,a5,9f8 <uart_init+0x8e>
C:/Users/Yaner/Desktop/camera/libraries/zf_driver/zf_driver_uart.c:239 (discriminator 1)
     9dc:	fd042703          	lw	a4,-48(s0)
     9e0:	02300793          	li	a5,35
     9e4:	00f71a63          	bne	a4,a5,9f8 <uart_init+0x8e>
C:/Users/Yaner/Desktop/camera/libraries/zf_driver/zf_driver_uart.c:240
        GPIO_PinRemapConfig(GPIO_PartialRemap_USART3, ENABLE);
     9e8:	4585                	li	a1,1
     9ea:	001407b7          	lui	a5,0x140
     9ee:	01078513          	addi	a0,a5,16 # 140010 <_data_lma+0x13b020>
     9f2:	726010ef          	jal	ra,2118 <GPIO_PinRemapConfig>
     9f6:	aa39                	j	b14 <uart_init+0x1aa>
C:/Users/Yaner/Desktop/camera/libraries/zf_driver/zf_driver_uart.c:241
    else if(UART3_TX_D8 == tx_pin && UART3_RX_D9 == rx_pin)
     9f8:	fd442703          	lw	a4,-44(s0)
     9fc:	02400793          	li	a5,36
     a00:	02f71063          	bne	a4,a5,a20 <uart_init+0xb6>
C:/Users/Yaner/Desktop/camera/libraries/zf_driver/zf_driver_uart.c:241 (discriminator 1)
     a04:	fd042703          	lw	a4,-48(s0)
     a08:	02500793          	li	a5,37
     a0c:	00f71a63          	bne	a4,a5,a20 <uart_init+0xb6>
C:/Users/Yaner/Desktop/camera/libraries/zf_driver/zf_driver_uart.c:242
        GPIO_PinRemapConfig(GPIO_FullRemap_USART3, ENABLE);
     a10:	4585                	li	a1,1
     a12:	001407b7          	lui	a5,0x140
     a16:	03078513          	addi	a0,a5,48 # 140030 <_data_lma+0x13b040>
     a1a:	6fe010ef          	jal	ra,2118 <GPIO_PinRemapConfig>
     a1e:	a8dd                	j	b14 <uart_init+0x1aa>
C:/Users/Yaner/Desktop/camera/libraries/zf_driver/zf_driver_uart.c:243
    else if(UART4_TX_B0 == tx_pin && UART4_RX_B1 == rx_pin)
     a20:	fd442703          	lw	a4,-44(s0)
     a24:	04200793          	li	a5,66
     a28:	00f71d63          	bne	a4,a5,a42 <uart_init+0xd8>
C:/Users/Yaner/Desktop/camera/libraries/zf_driver/zf_driver_uart.c:243 (discriminator 1)
     a2c:	fd042703          	lw	a4,-48(s0)
     a30:	04300793          	li	a5,67
     a34:	00f71763          	bne	a4,a5,a42 <uart_init+0xd8>
C:/Users/Yaner/Desktop/camera/libraries/zf_driver/zf_driver_uart.c:244
        GPIO_PinRemapConfig(GPIO_Remap_TIM4, ENABLE);
     a38:	4585                	li	a1,1
     a3a:	6505                	lui	a0,0x1
     a3c:	6dc010ef          	jal	ra,2118 <GPIO_PinRemapConfig>
     a40:	a8d1                	j	b14 <uart_init+0x1aa>
C:/Users/Yaner/Desktop/camera/libraries/zf_driver/zf_driver_uart.c:245
    else if(UART5_TX_E8 == tx_pin && UART5_RX_E9 == rx_pin)
     a42:	fd442703          	lw	a4,-44(s0)
     a46:	05200793          	li	a5,82
     a4a:	02f71063          	bne	a4,a5,a6a <uart_init+0x100>
C:/Users/Yaner/Desktop/camera/libraries/zf_driver/zf_driver_uart.c:245 (discriminator 1)
     a4e:	fd042703          	lw	a4,-48(s0)
     a52:	05300793          	li	a5,83
     a56:	00f71a63          	bne	a4,a5,a6a <uart_init+0x100>
C:/Users/Yaner/Desktop/camera/libraries/zf_driver/zf_driver_uart.c:246
        GPIO_PinRemapConfig(GPIO_Remap_TIM5CH4_LSI, ENABLE);
     a5a:	4585                	li	a1,1
     a5c:	002007b7          	lui	a5,0x200
     a60:	00178513          	addi	a0,a5,1 # 200001 <_data_lma+0x1fb011>
     a64:	6b4010ef          	jal	ra,2118 <GPIO_PinRemapConfig>
     a68:	a075                	j	b14 <uart_init+0x1aa>
C:/Users/Yaner/Desktop/camera/libraries/zf_driver/zf_driver_uart.c:247
    else if(UART6_TX_E10 == tx_pin && UART6_RX_E11 == rx_pin)
     a6a:	fd442703          	lw	a4,-44(s0)
     a6e:	06200793          	li	a5,98
     a72:	02f71063          	bne	a4,a5,a92 <uart_init+0x128>
C:/Users/Yaner/Desktop/camera/libraries/zf_driver/zf_driver_uart.c:247 (discriminator 1)
     a76:	fd042703          	lw	a4,-48(s0)
     a7a:	06300793          	li	a5,99
     a7e:	00f71a63          	bne	a4,a5,a92 <uart_init+0x128>
C:/Users/Yaner/Desktop/camera/libraries/zf_driver/zf_driver_uart.c:248
        GPIO_PinRemapConfig(GPIO_Remap_TIM67_DAC_DMA, ENABLE);
     a82:	4585                	li	a1,1
     a84:	800017b7          	lui	a5,0x80001
     a88:	80078513          	addi	a0,a5,-2048 # 80000800 <_eusrstack+0x5fff0800>
     a8c:	68c010ef          	jal	ra,2118 <GPIO_PinRemapConfig>
     a90:	a051                	j	b14 <uart_init+0x1aa>
C:/Users/Yaner/Desktop/camera/libraries/zf_driver/zf_driver_uart.c:250

    else if(UART7_TX_A6 == tx_pin && UART7_RX_A7 == rx_pin)
     a92:	fd442703          	lw	a4,-44(s0)
     a96:	07200793          	li	a5,114
     a9a:	02f71263          	bne	a4,a5,abe <uart_init+0x154>
C:/Users/Yaner/Desktop/camera/libraries/zf_driver/zf_driver_uart.c:250 (discriminator 1)
     a9e:	fd042703          	lw	a4,-48(s0)
     aa2:	07300793          	li	a5,115
     aa6:	00f71c63          	bne	a4,a5,abe <uart_init+0x154>
C:/Users/Yaner/Desktop/camera/libraries/zf_driver/zf_driver_uart.c:251
        AFIO->PCFR2 |= 0x01<<22;                       //[23:22]
     aaa:	400107b7          	lui	a5,0x40010
     aae:	4fd4                	lw	a3,28(a5)
     ab0:	400107b7          	lui	a5,0x40010
     ab4:	00400737          	lui	a4,0x400
     ab8:	8f55                	or	a4,a4,a3
     aba:	cfd8                	sw	a4,28(a5)
     abc:	a8a1                	j	b14 <uart_init+0x1aa>
C:/Users/Yaner/Desktop/camera/libraries/zf_driver/zf_driver_uart.c:252
    else if(UART7_TX_E12 == tx_pin && UART7_RX_E13 == rx_pin)
     abe:	fd442703          	lw	a4,-44(s0)
     ac2:	07400793          	li	a5,116
     ac6:	02f71263          	bne	a4,a5,aea <uart_init+0x180>
C:/Users/Yaner/Desktop/camera/libraries/zf_driver/zf_driver_uart.c:252 (discriminator 1)
     aca:	fd042703          	lw	a4,-48(s0)
     ace:	07500793          	li	a5,117
     ad2:	00f71c63          	bne	a4,a5,aea <uart_init+0x180>
C:/Users/Yaner/Desktop/camera/libraries/zf_driver/zf_driver_uart.c:253
        AFIO->PCFR2 |= 0x01<<23;                       //[23:22]
     ad6:	400107b7          	lui	a5,0x40010
     ada:	4fd4                	lw	a3,28(a5)
     adc:	400107b7          	lui	a5,0x40010
     ae0:	00800737          	lui	a4,0x800
     ae4:	8f55                	or	a4,a4,a3
     ae6:	cfd8                	sw	a4,28(a5)
     ae8:	a035                	j	b14 <uart_init+0x1aa>
C:/Users/Yaner/Desktop/camera/libraries/zf_driver/zf_driver_uart.c:255

    else if(UART8_TX_E14 == tx_pin && UART8_RX_E15 == rx_pin)
     aea:	fd442703          	lw	a4,-44(s0)
     aee:	08200793          	li	a5,130
     af2:	02f71163          	bne	a4,a5,b14 <uart_init+0x1aa>
C:/Users/Yaner/Desktop/camera/libraries/zf_driver/zf_driver_uart.c:255 (discriminator 1)
     af6:	fd042703          	lw	a4,-48(s0)
     afa:	08300793          	li	a5,131
     afe:	00f71b63          	bne	a4,a5,b14 <uart_init+0x1aa>
C:/Users/Yaner/Desktop/camera/libraries/zf_driver/zf_driver_uart.c:256
        AFIO->PCFR2 |= 1<<25;    //[25:24]
     b02:	400107b7          	lui	a5,0x40010
     b06:	4fd4                	lw	a3,28(a5)
     b08:	400107b7          	lui	a5,0x40010
     b0c:	02000737          	lui	a4,0x2000
     b10:	8f55                	or	a4,a4,a3
     b12:	cfd8                	sw	a4,28(a5)
C:/Users/Yaner/Desktop/camera/libraries/zf_driver/zf_driver_uart.c:259

    //  串口总线使能
    if(UART_1 == uart_num) RCC_APB2PeriphClockCmd(RCC_APB2Periph_USART1, ENABLE);
     b14:	fdc42783          	lw	a5,-36(s0)
     b18:	e791                	bnez	a5,b24 <uart_init+0x1ba>
C:/Users/Yaner/Desktop/camera/libraries/zf_driver/zf_driver_uart.c:259 (discriminator 1)
     b1a:	4585                	li	a1,1
     b1c:	6511                	lui	a0,0x4
     b1e:	201010ef          	jal	ra,251e <RCC_APB2PeriphClockCmd>
     b22:	a869                	j	bbc <uart_init+0x252>
C:/Users/Yaner/Desktop/camera/libraries/zf_driver/zf_driver_uart.c:260
    else if(UART_2 == uart_num) RCC_APB1PeriphClockCmd(RCC_APB1Periph_USART2, ENABLE);
     b24:	fdc42703          	lw	a4,-36(s0)
     b28:	4785                	li	a5,1
     b2a:	00f71863          	bne	a4,a5,b3a <uart_init+0x1d0>
C:/Users/Yaner/Desktop/camera/libraries/zf_driver/zf_driver_uart.c:260 (discriminator 1)
     b2e:	4585                	li	a1,1
     b30:	00020537          	lui	a0,0x20
     b34:	231010ef          	jal	ra,2564 <RCC_APB1PeriphClockCmd>
     b38:	a051                	j	bbc <uart_init+0x252>
C:/Users/Yaner/Desktop/camera/libraries/zf_driver/zf_driver_uart.c:261
    else if(UART_3 == uart_num) RCC_APB1PeriphClockCmd(RCC_APB1Periph_USART3, ENABLE);
     b3a:	fdc42703          	lw	a4,-36(s0)
     b3e:	4789                	li	a5,2
     b40:	00f71863          	bne	a4,a5,b50 <uart_init+0x1e6>
C:/Users/Yaner/Desktop/camera/libraries/zf_driver/zf_driver_uart.c:261 (discriminator 1)
     b44:	4585                	li	a1,1
     b46:	00040537          	lui	a0,0x40
     b4a:	21b010ef          	jal	ra,2564 <RCC_APB1PeriphClockCmd>
     b4e:	a0bd                	j	bbc <uart_init+0x252>
C:/Users/Yaner/Desktop/camera/libraries/zf_driver/zf_driver_uart.c:262
    else if(UART_4 == uart_num) RCC_APB1PeriphClockCmd(RCC_APB1Periph_UART4, ENABLE);
     b50:	fdc42703          	lw	a4,-36(s0)
     b54:	478d                	li	a5,3
     b56:	00f71863          	bne	a4,a5,b66 <uart_init+0x1fc>
C:/Users/Yaner/Desktop/camera/libraries/zf_driver/zf_driver_uart.c:262 (discriminator 1)
     b5a:	4585                	li	a1,1
     b5c:	00080537          	lui	a0,0x80
     b60:	205010ef          	jal	ra,2564 <RCC_APB1PeriphClockCmd>
     b64:	a8a1                	j	bbc <uart_init+0x252>
C:/Users/Yaner/Desktop/camera/libraries/zf_driver/zf_driver_uart.c:263
    else if(UART_5 == uart_num) RCC_APB1PeriphClockCmd(RCC_APB1Periph_UART5, ENABLE);
     b66:	fdc42703          	lw	a4,-36(s0)
     b6a:	4791                	li	a5,4
     b6c:	00f71863          	bne	a4,a5,b7c <uart_init+0x212>
C:/Users/Yaner/Desktop/camera/libraries/zf_driver/zf_driver_uart.c:263 (discriminator 1)
     b70:	4585                	li	a1,1
     b72:	00100537          	lui	a0,0x100
     b76:	1ef010ef          	jal	ra,2564 <RCC_APB1PeriphClockCmd>
     b7a:	a089                	j	bbc <uart_init+0x252>
C:/Users/Yaner/Desktop/camera/libraries/zf_driver/zf_driver_uart.c:264
    else if(UART_6 == uart_num) RCC_APB1PeriphClockCmd(RCC_APB1Periph_UART6, ENABLE);
     b7c:	fdc42703          	lw	a4,-36(s0)
     b80:	4795                	li	a5,5
     b82:	00f71863          	bne	a4,a5,b92 <uart_init+0x228>
C:/Users/Yaner/Desktop/camera/libraries/zf_driver/zf_driver_uart.c:264 (discriminator 1)
     b86:	4585                	li	a1,1
     b88:	04000513          	li	a0,64
     b8c:	1d9010ef          	jal	ra,2564 <RCC_APB1PeriphClockCmd>
     b90:	a035                	j	bbc <uart_init+0x252>
C:/Users/Yaner/Desktop/camera/libraries/zf_driver/zf_driver_uart.c:265
    else if(UART_7 == uart_num) RCC_APB1PeriphClockCmd(RCC_APB1Periph_UART7, ENABLE);
     b92:	fdc42703          	lw	a4,-36(s0)
     b96:	4799                	li	a5,6
     b98:	00f71863          	bne	a4,a5,ba8 <uart_init+0x23e>
C:/Users/Yaner/Desktop/camera/libraries/zf_driver/zf_driver_uart.c:265 (discriminator 1)
     b9c:	4585                	li	a1,1
     b9e:	08000513          	li	a0,128
     ba2:	1c3010ef          	jal	ra,2564 <RCC_APB1PeriphClockCmd>
     ba6:	a819                	j	bbc <uart_init+0x252>
C:/Users/Yaner/Desktop/camera/libraries/zf_driver/zf_driver_uart.c:266
    else if(UART_8 == uart_num) RCC_APB1PeriphClockCmd(RCC_APB1Periph_UART8, ENABLE);
     ba8:	fdc42703          	lw	a4,-36(s0)
     bac:	479d                	li	a5,7
     bae:	00f71763          	bne	a4,a5,bbc <uart_init+0x252>
C:/Users/Yaner/Desktop/camera/libraries/zf_driver/zf_driver_uart.c:266 (discriminator 1)
     bb2:	4585                	li	a1,1
     bb4:	10000513          	li	a0,256
     bb8:	1ad010ef          	jal	ra,2564 <RCC_APB1PeriphClockCmd>
C:/Users/Yaner/Desktop/camera/libraries/zf_driver/zf_driver_uart.c:270


    //  串口参数配置
    USART_InitStructure.USART_BaudRate = baud;
     bbc:	fd842783          	lw	a5,-40(s0)
     bc0:	fef42023          	sw	a5,-32(s0)
C:/Users/Yaner/Desktop/camera/libraries/zf_driver/zf_driver_uart.c:271
    USART_InitStructure.USART_WordLength = USART_WordLength_8b;
     bc4:	fe041223          	sh	zero,-28(s0)
C:/Users/Yaner/Desktop/camera/libraries/zf_driver/zf_driver_uart.c:272
    USART_InitStructure.USART_StopBits = USART_StopBits_1;
     bc8:	fe041323          	sh	zero,-26(s0)
C:/Users/Yaner/Desktop/camera/libraries/zf_driver/zf_driver_uart.c:273
    USART_InitStructure.USART_Parity = USART_Parity_No;
     bcc:	fe041423          	sh	zero,-24(s0)
C:/Users/Yaner/Desktop/camera/libraries/zf_driver/zf_driver_uart.c:274
    USART_InitStructure.USART_HardwareFlowControl = USART_HardwareFlowControl_None;
     bd0:	fe041623          	sh	zero,-20(s0)
C:/Users/Yaner/Desktop/camera/libraries/zf_driver/zf_driver_uart.c:275
    USART_InitStructure.USART_Mode = USART_Mode_Tx | USART_Mode_Rx;
     bd4:	47b1                	li	a5,12
     bd6:	fef41523          	sh	a5,-22(s0)
C:/Users/Yaner/Desktop/camera/libraries/zf_driver/zf_driver_uart.c:278

    //  使能串口
    USART_Init((USART_TypeDef*)uart_index[uart_num], &USART_InitStructure);
     bda:	6795                	lui	a5,0x5
     bdc:	fdc42703          	lw	a4,-36(s0)
     be0:	070a                	slli	a4,a4,0x2
     be2:	dcc78793          	addi	a5,a5,-564 # 4dcc <uart_index>
     be6:	97ba                	add	a5,a5,a4
     be8:	439c                	lw	a5,0(a5)
     bea:	873e                	mv	a4,a5
     bec:	fe040793          	addi	a5,s0,-32
     bf0:	85be                	mv	a1,a5
     bf2:	853a                	mv	a0,a4
     bf4:	255010ef          	jal	ra,2648 <USART_Init>
C:/Users/Yaner/Desktop/camera/libraries/zf_driver/zf_driver_uart.c:279
    USART_Cmd((USART_TypeDef*)uart_index[uart_num], ENABLE);
     bf8:	6795                	lui	a5,0x5
     bfa:	fdc42703          	lw	a4,-36(s0)
     bfe:	070a                	slli	a4,a4,0x2
     c00:	dcc78793          	addi	a5,a5,-564 # 4dcc <uart_index>
     c04:	97ba                	add	a5,a5,a4
     c06:	439c                	lw	a5,0(a5)
     c08:	4585                	li	a1,1
     c0a:	853e                	mv	a0,a5
     c0c:	471010ef          	jal	ra,287c <USART_Cmd>
C:/Users/Yaner/Desktop/camera/libraries/zf_driver/zf_driver_uart.c:281

}
     c10:	0001                	nop
     c12:	50b2                	lw	ra,44(sp)
     c14:	5422                	lw	s0,40(sp)
     c16:	6145                	addi	sp,sp,48
     c18:	8082                	ret

00000c1a <bluetooth_ch9141_uart_callback_ch2>:
bluetooth_ch9141_uart_callback_ch2():
C:/Users/Yaner/Desktop/camera/libraries/zf_device/zf_device_bluetooth_ch9141.c:49
//  @since      v1.0
//  Sample usage:
//  @note       该函数在ISR文件 串口8中断程序被调用
//-------------------------------------------------------------------------------------------------------------------
void bluetooth_ch9141_uart_callback_ch2(void)
{
     c1a:	1141                	addi	sp,sp,-16
     c1c:	c606                	sw	ra,12(sp)
     c1e:	c422                	sw	s0,8(sp)
     c20:	0800                	addi	s0,sp,16
C:/Users/Yaner/Desktop/camera/libraries/zf_device/zf_device_bluetooth_ch9141.c:50
    if(1 == at_mode)
     c22:	82a1c783          	lbu	a5,-2006(gp) # 20000122 <at_mode>
     c26:	0ff7f713          	andi	a4,a5,255
     c2a:	4785                	li	a5,1
     c2c:	04f71663          	bne	a4,a5,c78 <bluetooth_ch9141_uart_callback_ch2+0x5e>
C:/Users/Yaner/Desktop/camera/libraries/zf_device/zf_device_bluetooth_ch9141.c:53
    {
        //进入AT模式 接收应答信号 此处if语句内代码用户不要改动
        at_mode_data[at_mode_num++] = ((USART_TypeDef*)uart_index[bluetooth_ch9141[1].uart_n])->DATAR & 0x01FF;
     c30:	200007b7          	lui	a5,0x20000
     c34:	00078793          	mv	a5,a5
     c38:	4fd8                	lw	a4,28(a5)
     c3a:	6795                	lui	a5,0x5
     c3c:	070a                	slli	a4,a4,0x2
     c3e:	dcc78793          	addi	a5,a5,-564 # 4dcc <uart_index>
     c42:	97ba                	add	a5,a5,a4
     c44:	439c                	lw	a5,0(a5)
     c46:	0047d783          	lhu	a5,4(a5)
     c4a:	01079613          	slli	a2,a5,0x10
     c4e:	8241                	srli	a2,a2,0x10
     c50:	82b1c783          	lbu	a5,-2005(gp) # 20000123 <at_mode_num>
     c54:	0ff7f793          	andi	a5,a5,255
     c58:	00178713          	addi	a4,a5,1
     c5c:	0ff77693          	andi	a3,a4,255
     c60:	82d185a3          	sb	a3,-2005(gp) # 20000123 <at_mode_num>
     c64:	86be                	mv	a3,a5
     c66:	0ff67713          	andi	a4,a2,255
     c6a:	88818793          	addi	a5,gp,-1912 # 20000180 <at_mode_data>
     c6e:	97b6                	add	a5,a5,a3
     c70:	00e78023          	sb	a4,0(a5)
C:/Users/Yaner/Desktop/camera/libraries/zf_device/zf_device_bluetooth_ch9141.c:54
        bluetooth_ch9141_check_response();
     c74:	2239                	jal	d82 <bluetooth_ch9141_check_response>
C:/Users/Yaner/Desktop/camera/libraries/zf_device/zf_device_bluetooth_ch9141.c:72
        uart_flag = 1;
        uart_data = ((USART_TypeDef*)uart_index[bluetooth_ch9141[1].uart_n])->DATAR & 0x01FF;
    }


}
     c76:	a881                	j	cc6 <bluetooth_ch9141_uart_callback_ch2+0xac>
C:/Users/Yaner/Desktop/camera/libraries/zf_device/zf_device_bluetooth_ch9141.c:56
    else if(2 == at_mode)
     c78:	82a1c783          	lbu	a5,-2006(gp) # 20000122 <at_mode>
     c7c:	0ff7f713          	andi	a4,a5,255
     c80:	4789                	li	a5,2
     c82:	00f71c63          	bne	a4,a5,c9a <bluetooth_ch9141_uart_callback_ch2+0x80>
C:/Users/Yaner/Desktop/camera/libraries/zf_device/zf_device_bluetooth_ch9141.c:59
        at_mode_num++;
     c86:	82b1c783          	lbu	a5,-2005(gp) # 20000123 <at_mode_num>
     c8a:	0ff7f793          	andi	a5,a5,255
     c8e:	0785                	addi	a5,a5,1
     c90:	0ff7f713          	andi	a4,a5,255
     c94:	82e185a3          	sb	a4,-2005(gp) # 20000123 <at_mode_num>
C:/Users/Yaner/Desktop/camera/libraries/zf_device/zf_device_bluetooth_ch9141.c:72
}
     c98:	a03d                	j	cc6 <bluetooth_ch9141_uart_callback_ch2+0xac>
C:/Users/Yaner/Desktop/camera/libraries/zf_device/zf_device_bluetooth_ch9141.c:67
        uart_flag = 1;
     c9a:	4705                	li	a4,1
     c9c:	82e18423          	sb	a4,-2008(gp) # 20000120 <_edata>
C:/Users/Yaner/Desktop/camera/libraries/zf_device/zf_device_bluetooth_ch9141.c:68
        uart_data = ((USART_TypeDef*)uart_index[bluetooth_ch9141[1].uart_n])->DATAR & 0x01FF;
     ca0:	200007b7          	lui	a5,0x20000
     ca4:	00078793          	mv	a5,a5
     ca8:	4fd8                	lw	a4,28(a5)
     caa:	6795                	lui	a5,0x5
     cac:	070a                	slli	a4,a4,0x2
     cae:	dcc78793          	addi	a5,a5,-564 # 4dcc <uart_index>
     cb2:	97ba                	add	a5,a5,a4
     cb4:	439c                	lw	a5,0(a5)
     cb6:	0047d783          	lhu	a5,4(a5)
     cba:	07c2                	slli	a5,a5,0x10
     cbc:	83c1                	srli	a5,a5,0x10
     cbe:	0ff7f713          	andi	a4,a5,255
     cc2:	82e184a3          	sb	a4,-2007(gp) # 20000121 <uart_data>
C:/Users/Yaner/Desktop/camera/libraries/zf_device/zf_device_bluetooth_ch9141.c:72
}
     cc6:	0001                	nop
     cc8:	40b2                	lw	ra,12(sp)
     cca:	4422                	lw	s0,8(sp)
     ccc:	0141                	addi	sp,sp,16
     cce:	8082                	ret

00000cd0 <bluetooth_ch9141_uart_callback_ch1>:
bluetooth_ch9141_uart_callback_ch1():
C:/Users/Yaner/Desktop/camera/libraries/zf_device/zf_device_bluetooth_ch9141.c:84
//  @since      v1.0
//  Sample usage:
//  @note       该函数在ISR文件 串口8中断程序被调用
//-------------------------------------------------------------------------------------------------------------------
void bluetooth_ch9141_uart_callback_ch1(void)
{
     cd0:	1141                	addi	sp,sp,-16
     cd2:	c606                	sw	ra,12(sp)
     cd4:	c422                	sw	s0,8(sp)
     cd6:	0800                	addi	s0,sp,16
C:/Users/Yaner/Desktop/camera/libraries/zf_device/zf_device_bluetooth_ch9141.c:86

    if(1 == at_mode)
     cd8:	82a1c783          	lbu	a5,-2006(gp) # 20000122 <at_mode>
     cdc:	0ff7f713          	andi	a4,a5,255
     ce0:	4785                	li	a5,1
     ce2:	04f71563          	bne	a4,a5,d2c <bluetooth_ch9141_uart_callback_ch1+0x5c>
C:/Users/Yaner/Desktop/camera/libraries/zf_device/zf_device_bluetooth_ch9141.c:89
    {
        //进入AT模式 接收应答信号 此处if语句内代码用户不要改动
        at_mode_data[at_mode_num++] = ((USART_TypeDef*)uart_index[bluetooth_ch9141[0].uart_n])->DATAR & 0x01FF;
     ce6:	200007b7          	lui	a5,0x20000
     cea:	0007a703          	lw	a4,0(a5) # 20000000 <_data_vma>
     cee:	6795                	lui	a5,0x5
     cf0:	070a                	slli	a4,a4,0x2
     cf2:	dcc78793          	addi	a5,a5,-564 # 4dcc <uart_index>
     cf6:	97ba                	add	a5,a5,a4
     cf8:	439c                	lw	a5,0(a5)
     cfa:	0047d783          	lhu	a5,4(a5)
     cfe:	01079613          	slli	a2,a5,0x10
     d02:	8241                	srli	a2,a2,0x10
     d04:	82b1c783          	lbu	a5,-2005(gp) # 20000123 <at_mode_num>
     d08:	0ff7f793          	andi	a5,a5,255
     d0c:	00178713          	addi	a4,a5,1
     d10:	0ff77693          	andi	a3,a4,255
     d14:	82d185a3          	sb	a3,-2005(gp) # 20000123 <at_mode_num>
     d18:	86be                	mv	a3,a5
     d1a:	0ff67713          	andi	a4,a2,255
     d1e:	88818793          	addi	a5,gp,-1912 # 20000180 <at_mode_data>
     d22:	97b6                	add	a5,a5,a3
     d24:	00e78023          	sb	a4,0(a5)
C:/Users/Yaner/Desktop/camera/libraries/zf_device/zf_device_bluetooth_ch9141.c:90
        bluetooth_ch9141_check_response();
     d28:	28a9                	jal	d82 <bluetooth_ch9141_check_response>
C:/Users/Yaner/Desktop/camera/libraries/zf_device/zf_device_bluetooth_ch9141.c:108
        uart_flag = 1;
        uart_data = ((USART_TypeDef*)uart_index[bluetooth_ch9141[0].uart_n])->DATAR & 0x01FF;
    }


}
     d2a:	a0b9                	j	d78 <bluetooth_ch9141_uart_callback_ch1+0xa8>
C:/Users/Yaner/Desktop/camera/libraries/zf_device/zf_device_bluetooth_ch9141.c:92
    else if(2 == at_mode)
     d2c:	82a1c783          	lbu	a5,-2006(gp) # 20000122 <at_mode>
     d30:	0ff7f713          	andi	a4,a5,255
     d34:	4789                	li	a5,2
     d36:	00f71c63          	bne	a4,a5,d4e <bluetooth_ch9141_uart_callback_ch1+0x7e>
C:/Users/Yaner/Desktop/camera/libraries/zf_device/zf_device_bluetooth_ch9141.c:95
        at_mode_num++;
     d3a:	82b1c783          	lbu	a5,-2005(gp) # 20000123 <at_mode_num>
     d3e:	0ff7f793          	andi	a5,a5,255
     d42:	0785                	addi	a5,a5,1
     d44:	0ff7f713          	andi	a4,a5,255
     d48:	82e185a3          	sb	a4,-2005(gp) # 20000123 <at_mode_num>
C:/Users/Yaner/Desktop/camera/libraries/zf_device/zf_device_bluetooth_ch9141.c:108
}
     d4c:	a035                	j	d78 <bluetooth_ch9141_uart_callback_ch1+0xa8>
C:/Users/Yaner/Desktop/camera/libraries/zf_device/zf_device_bluetooth_ch9141.c:103
        uart_flag = 1;
     d4e:	4705                	li	a4,1
     d50:	82e18423          	sb	a4,-2008(gp) # 20000120 <_edata>
C:/Users/Yaner/Desktop/camera/libraries/zf_device/zf_device_bluetooth_ch9141.c:104
        uart_data = ((USART_TypeDef*)uart_index[bluetooth_ch9141[0].uart_n])->DATAR & 0x01FF;
     d54:	200007b7          	lui	a5,0x20000
     d58:	0007a703          	lw	a4,0(a5) # 20000000 <_data_vma>
     d5c:	6795                	lui	a5,0x5
     d5e:	070a                	slli	a4,a4,0x2
     d60:	dcc78793          	addi	a5,a5,-564 # 4dcc <uart_index>
     d64:	97ba                	add	a5,a5,a4
     d66:	439c                	lw	a5,0(a5)
     d68:	0047d783          	lhu	a5,4(a5)
     d6c:	07c2                	slli	a5,a5,0x10
     d6e:	83c1                	srli	a5,a5,0x10
     d70:	0ff7f713          	andi	a4,a5,255
     d74:	82e184a3          	sb	a4,-2007(gp) # 20000121 <uart_data>
C:/Users/Yaner/Desktop/camera/libraries/zf_device/zf_device_bluetooth_ch9141.c:108
}
     d78:	0001                	nop
     d7a:	40b2                	lw	ra,12(sp)
     d7c:	4422                	lw	s0,8(sp)
     d7e:	0141                	addi	sp,sp,16
     d80:	8082                	ret

00000d82 <bluetooth_ch9141_check_response>:
bluetooth_ch9141_check_response():
C:/Users/Yaner/Desktop/camera/libraries/zf_device/zf_device_bluetooth_ch9141.c:119
//  @since      v1.0
//  Sample usage:
//  @note       用户无需关心
//-------------------------------------------------------------------------------------------------------------------
void bluetooth_ch9141_check_response(void)
{
     d82:	1141                	addi	sp,sp,-16
     d84:	c606                	sw	ra,12(sp)
     d86:	c422                	sw	s0,8(sp)
     d88:	0800                	addi	s0,sp,16
C:/Users/Yaner/Desktop/camera/libraries/zf_device/zf_device_bluetooth_ch9141.c:120
    if(4 <= at_mode_num)
     d8a:	82b1c783          	lbu	a5,-2005(gp) # 20000123 <at_mode_num>
     d8e:	0ff7f713          	andi	a4,a5,255
     d92:	478d                	li	a5,3
     d94:	02e7f763          	bgeu	a5,a4,dc2 <bluetooth_ch9141_check_response+0x40>
C:/Users/Yaner/Desktop/camera/libraries/zf_device/zf_device_bluetooth_ch9141.c:122
    {
        if(0 == strncmp("OK\r\n", (int8_t *)&at_mode_data[at_mode_num-4], 4))
     d98:	82b1c783          	lbu	a5,-2005(gp) # 20000123 <at_mode_num>
     d9c:	0ff7f793          	andi	a5,a5,255
     da0:	ffc78713          	addi	a4,a5,-4
     da4:	88818793          	addi	a5,gp,-1912 # 20000180 <at_mode_data>
     da8:	97ba                	add	a5,a5,a4
     daa:	4611                	li	a2,4
     dac:	85be                	mv	a1,a5
     dae:	6795                	lui	a5,0x5
     db0:	c7478513          	addi	a0,a5,-908 # 4c74 <_sbrk+0x3c>
     db4:	553020ef          	jal	ra,3b06 <strncmp>
     db8:	87aa                	mv	a5,a0
     dba:	e781                	bnez	a5,dc2 <bluetooth_ch9141_check_response+0x40>
C:/Users/Yaner/Desktop/camera/libraries/zf_device/zf_device_bluetooth_ch9141.c:124
        {
            at_mode_cmd_flag = 1;
     dbc:	4705                	li	a4,1
     dbe:	82e18623          	sb	a4,-2004(gp) # 20000124 <at_mode_cmd_flag>
C:/Users/Yaner/Desktop/camera/libraries/zf_device/zf_device_bluetooth_ch9141.c:127
        }
    }
}
     dc2:	0001                	nop
     dc4:	40b2                	lw	ra,12(sp)
     dc6:	4422                	lw	s0,8(sp)
     dc8:	0141                	addi	sp,sp,16
     dca:	8082                	ret

00000dcc <camera_uart_handler>:
camera_uart_handler():
C:/Users/Yaner/Desktop/camera/libraries/zf_device/zf_device_camera.c:32
// @param       void
// @return      void
// Sample usage:
//-------------------------------------------------------------------------------------------------------------------
void camera_uart_handler (void)
{
     dcc:	1141                	addi	sp,sp,-16
     dce:	c606                	sw	ra,12(sp)
     dd0:	c422                	sw	s0,8(sp)
     dd2:	0800                	addi	s0,sp,16
C:/Users/Yaner/Desktop/camera/libraries/zf_device/zf_device_camera.c:33
    if(camera_type == CAMERA_BIN_UART)
     dd4:	8481a703          	lw	a4,-1976(gp) # 20000140 <camera_type>
     dd8:	4789                	li	a5,2
     dda:	00f70863          	beq	a4,a5,dea <camera_uart_handler+0x1e>
C:/Users/Yaner/Desktop/camera/libraries/zf_device/zf_device_camera.c:38
    {
        // 小钻风暂不支持
        //ov7725_cof_uart_interrupt();
    }
    else if(camera_type == CAMERA_GRAYSCALE)
     dde:	8481a703          	lw	a4,-1976(gp) # 20000140 <camera_type>
     de2:	478d                	li	a5,3
     de4:	00f71363          	bne	a4,a5,dea <camera_uart_handler+0x1e>
C:/Users/Yaner/Desktop/camera/libraries/zf_device/zf_device_camera.c:41
    {
        // 总钻风串口回调函数
        mt9v03x_uart_callback_dvp();
     de8:	2815                	jal	e1c <mt9v03x_uart_callback_dvp>
C:/Users/Yaner/Desktop/camera/libraries/zf_device/zf_device_camera.c:48
    else if(camera_type == CAMERA_COLOR)
    {
        //凌瞳串口回调函数
        //scc8660_uart_callback();
    }
}
     dea:	0001                	nop
     dec:	40b2                	lw	ra,12(sp)
     dee:	4422                	lw	s0,8(sp)
     df0:	0141                	addi	sp,sp,16
     df2:	8082                	ret

00000df4 <camera_dvp_handler>:
camera_dvp_handler():
C:/Users/Yaner/Desktop/camera/libraries/zf_device/zf_device_camera.c:79
// @param       void
// @return      void
// Sample usage:
//-------------------------------------------------------------------------------------------------------------------
void camera_dvp_handler(void)
{
     df4:	1141                	addi	sp,sp,-16
     df6:	c606                	sw	ra,12(sp)
     df8:	c422                	sw	s0,8(sp)
     dfa:	0800                	addi	s0,sp,16
C:/Users/Yaner/Desktop/camera/libraries/zf_device/zf_device_camera.c:80
    if(camera_type == CAMERA_COLOR)
     dfc:	8481a703          	lw	a4,-1976(gp) # 20000140 <camera_type>
     e00:	4791                	li	a5,4
     e02:	00f70863          	beq	a4,a5,e12 <camera_dvp_handler+0x1e>
C:/Users/Yaner/Desktop/camera/libraries/zf_device/zf_device_camera.c:84
    {
        //scc8660_dvp_vsync();
    }
    else if(camera_type == CAMERA_GRAYSCALE)
     e06:	8481a703          	lw	a4,-1976(gp) # 20000140 <camera_type>
     e0a:	478d                	li	a5,3
     e0c:	00f71363          	bne	a4,a5,e12 <camera_dvp_handler+0x1e>
C:/Users/Yaner/Desktop/camera/libraries/zf_device/zf_device_camera.c:86
    {
        mt9v03x_dvp_handler();
     e10:	28b5                	jal	e8c <mt9v03x_dvp_handler>
C:/Users/Yaner/Desktop/camera/libraries/zf_device/zf_device_camera.c:92
    }
    else if(camera_type == CAMERA_BIN_UART)
    {
        //小钻风暂不支持
    }
}
     e12:	0001                	nop
     e14:	40b2                	lw	ra,12(sp)
     e16:	4422                	lw	s0,8(sp)
     e18:	0141                	addi	sp,sp,16
     e1a:	8082                	ret

00000e1c <mt9v03x_uart_callback_dvp>:
mt9v03x_uart_callback_dvp():
C:/Users/Yaner/Desktop/camera/libraries/zf_device/zf_device_mt9v03x_dvp.c:181
// @param       void
// @return      void
// Sample usage:
//-------------------------------------------------------------------------------------------------------------------
void mt9v03x_uart_callback_dvp (void)
{
     e1c:	1141                	addi	sp,sp,-16
     e1e:	c622                	sw	s0,12(sp)
     e20:	0800                	addi	s0,sp,16
C:/Users/Yaner/Desktop/camera/libraries/zf_device/zf_device_mt9v03x_dvp.c:182
    receive_dvp[receive_num_dvp] = ((USART_TypeDef*)uart_index[MT9V03X_COF_UART_DVP])->DATAR & 0xFF;
     e22:	6795                	lui	a5,0x5
     e24:	dcc78793          	addi	a5,a5,-564 # 4dcc <uart_index>
     e28:	4b9c                	lw	a5,16(a5)
     e2a:	0047d783          	lhu	a5,4(a5)
     e2e:	01079713          	slli	a4,a5,0x10
     e32:	8341                	srli	a4,a4,0x10
     e34:	8431c783          	lbu	a5,-1981(gp) # 2000013b <receive_num_dvp>
     e38:	86be                	mv	a3,a5
     e3a:	0ff77713          	andi	a4,a4,255
     e3e:	84018793          	addi	a5,gp,-1984 # 20000138 <receive_dvp>
     e42:	97b6                	add	a5,a5,a3
     e44:	00e78023          	sb	a4,0(a5)
C:/Users/Yaner/Desktop/camera/libraries/zf_device/zf_device_mt9v03x_dvp.c:183
    receive_num_dvp++;
     e48:	8431c783          	lbu	a5,-1981(gp) # 2000013b <receive_num_dvp>
     e4c:	0785                	addi	a5,a5,1
     e4e:	0ff7f713          	andi	a4,a5,255
     e52:	84e181a3          	sb	a4,-1981(gp) # 2000013b <receive_num_dvp>
C:/Users/Yaner/Desktop/camera/libraries/zf_device/zf_device_mt9v03x_dvp.c:188

//    if(uart_query_byte(MT9V03X_COF_UART_DVP, &receive_dvp[receive_num_dvp]))
//        receive_num_dvp++;

    if(1 == receive_num_dvp && 0XA5!=receive_dvp[0])
     e56:	8431c703          	lbu	a4,-1981(gp) # 2000013b <receive_num_dvp>
     e5a:	4785                	li	a5,1
     e5c:	00f71a63          	bne	a4,a5,e70 <mt9v03x_uart_callback_dvp+0x54>
C:/Users/Yaner/Desktop/camera/libraries/zf_device/zf_device_mt9v03x_dvp.c:188 (discriminator 1)
     e60:	8401c703          	lbu	a4,-1984(gp) # 20000138 <receive_dvp>
     e64:	0a500793          	li	a5,165
     e68:	00f70463          	beq	a4,a5,e70 <mt9v03x_uart_callback_dvp+0x54>
C:/Users/Yaner/Desktop/camera/libraries/zf_device/zf_device_mt9v03x_dvp.c:189
        receive_num_dvp = 0;
     e6c:	840181a3          	sb	zero,-1981(gp) # 2000013b <receive_num_dvp>
C:/Users/Yaner/Desktop/camera/libraries/zf_device/zf_device_mt9v03x_dvp.c:190
    if(3 == receive_num_dvp)
     e70:	8431c703          	lbu	a4,-1981(gp) # 2000013b <receive_num_dvp>
     e74:	478d                	li	a5,3
     e76:	00f71763          	bne	a4,a5,e84 <mt9v03x_uart_callback_dvp+0x68>
C:/Users/Yaner/Desktop/camera/libraries/zf_device/zf_device_mt9v03x_dvp.c:192
    {
        receive_num_dvp = 0;
     e7a:	840181a3          	sb	zero,-1981(gp) # 2000013b <receive_num_dvp>
C:/Users/Yaner/Desktop/camera/libraries/zf_device/zf_device_mt9v03x_dvp.c:193
        uart_receive_flag_dvp = 1;
     e7e:	4705                	li	a4,1
     e80:	84e18223          	sb	a4,-1980(gp) # 2000013c <uart_receive_flag_dvp>
C:/Users/Yaner/Desktop/camera/libraries/zf_device/zf_device_mt9v03x_dvp.c:195
    }
}
     e84:	0001                	nop
     e86:	4432                	lw	s0,12(sp)
     e88:	0141                	addi	sp,sp,16
     e8a:	8082                	ret

00000e8c <mt9v03x_dvp_handler>:
mt9v03x_dvp_handler():
C:/Users/Yaner/Desktop/camera/libraries/zf_device/zf_device_mt9v03x_dvp.c:311
//  @since      v1.0
//  Sample usage:               在isr.c里面先创建对应的中断函数，然后调用该函数(之后别忘记清除中断标志位)
//-------------------------------------------------------------------------------------------------------------------
unsigned char camera_flag;
void mt9v03x_dvp_handler(void)
{
     e8c:	1141                	addi	sp,sp,-16
     e8e:	c622                	sw	s0,12(sp)
     e90:	0800                	addi	s0,sp,16
C:/Users/Yaner/Desktop/camera/libraries/zf_device/zf_device_mt9v03x_dvp.c:312
    if(image_use_flag == 1)
     e92:	200007b7          	lui	a5,0x20000
     e96:	0f87c703          	lbu	a4,248(a5) # 200000f8 <image_use_flag>
     e9a:	4785                	li	a5,1
     e9c:	00f71d63          	bne	a4,a5,eb6 <mt9v03x_dvp_handler+0x2a>
C:/Users/Yaner/Desktop/camera/libraries/zf_device/zf_device_mt9v03x_dvp.c:314
    {
        image_use_flag = 2;
     ea0:	200007b7          	lui	a5,0x20000
     ea4:	4709                	li	a4,2
     ea6:	0ee78c23          	sb	a4,248(a5) # 200000f8 <image_use_flag>
C:/Users/Yaner/Desktop/camera/libraries/zf_device/zf_device_mt9v03x_dvp.c:315
        DVP->DMA_BUF0 = (uint32_t)camera_buffer_addr2;       // 恢复DMA地址
     eaa:	8341a703          	lw	a4,-1996(gp) # 2000012c <camera_buffer_addr2>
     eae:	500507b7          	lui	a5,0x50050
     eb2:	c798                	sw	a4,8(a5)
     eb4:	a015                	j	ed8 <mt9v03x_dvp_handler+0x4c>
C:/Users/Yaner/Desktop/camera/libraries/zf_device/zf_device_mt9v03x_dvp.c:317
    }
    else if(image_use_flag == 2)
     eb6:	200007b7          	lui	a5,0x20000
     eba:	0f87c703          	lbu	a4,248(a5) # 200000f8 <image_use_flag>
     ebe:	4789                	li	a5,2
     ec0:	00f71c63          	bne	a4,a5,ed8 <mt9v03x_dvp_handler+0x4c>
C:/Users/Yaner/Desktop/camera/libraries/zf_device/zf_device_mt9v03x_dvp.c:319
    {
        image_use_flag = 1;
     ec4:	200007b7          	lui	a5,0x20000
     ec8:	4705                	li	a4,1
     eca:	0ee78c23          	sb	a4,248(a5) # 200000f8 <image_use_flag>
C:/Users/Yaner/Desktop/camera/libraries/zf_device/zf_device_mt9v03x_dvp.c:320
        DVP->DMA_BUF0 = (uint32_t)camera_buffer_addr;       // 恢复DMA地址
     ece:	8301a703          	lw	a4,-2000(gp) # 20000128 <camera_buffer_addr>
     ed2:	500507b7          	lui	a5,0x50050
     ed6:	c798                	sw	a4,8(a5)
C:/Users/Yaner/Desktop/camera/libraries/zf_device/zf_device_mt9v03x_dvp.c:322
    }
    mt9v03x_finish_flag_dvp = 1;                        // 摄像头采集完成标志位置1
     ed8:	4705                	li	a4,1
     eda:	82e18e23          	sb	a4,-1988(gp) # 20000134 <mt9v03x_finish_flag_dvp>
C:/Users/Yaner/Desktop/camera/libraries/zf_device/zf_device_mt9v03x_dvp.c:323
    camera_flag++;
     ede:	8451c783          	lbu	a5,-1979(gp) # 2000013d <camera_flag>
     ee2:	0785                	addi	a5,a5,1
     ee4:	0ff7f713          	andi	a4,a5,255
     ee8:	84e182a3          	sb	a4,-1979(gp) # 2000013d <camera_flag>
C:/Users/Yaner/Desktop/camera/libraries/zf_device/zf_device_mt9v03x_dvp.c:324
    DVP->CR0 |= RB_DVP_ENABLE;                          // 重新打开DVP，采集下一副图像
     eec:	500507b7          	lui	a5,0x50050
     ef0:	0007c783          	lbu	a5,0(a5) # 50050000 <_eusrstack+0x30040000>
     ef4:	0ff7f713          	andi	a4,a5,255
     ef8:	500507b7          	lui	a5,0x50050
     efc:	00176713          	ori	a4,a4,1
     f00:	0ff77713          	andi	a4,a4,255
     f04:	00e78023          	sb	a4,0(a5) # 50050000 <_eusrstack+0x30040000>
C:/Users/Yaner/Desktop/camera/libraries/zf_device/zf_device_mt9v03x_dvp.c:325
}
     f08:	0001                	nop
     f0a:	4432                	lw	s0,12(sp)
     f0c:	0141                	addi	sp,sp,16
     f0e:	8082                	ret

00000f10 <wireless_uart_callback_ch1>:
wireless_uart_callback_ch1():
C:/Users/Yaner/Desktop/camera/libraries/zf_device/zf_device_wireless_uart.c:103
//  @since      v1.0
//  Sample usage:
//  @note       该函数在ISR文件 串口2中断程序被调用
//-------------------------------------------------------------------------------------------------------------------
void wireless_uart_callback_ch1(void)
{
     f10:	1141                	addi	sp,sp,-16
     f12:	c622                	sw	s0,12(sp)
     f14:	0800                	addi	s0,sp,16
C:/Users/Yaner/Desktop/camera/libraries/zf_device/zf_device_wireless_uart.c:105
    // 接到一个字节后单片机将会进入此处，通过在此处读取wireless_rx_buffer可以取走数据
    wireless_rx_buffer[0] = ((USART_TypeDef*)uart_index[wireless_device_info[0].uart_n])->DATAR & 0x01FF;
     f16:	200007b7          	lui	a5,0x20000
     f1a:	01c7a703          	lw	a4,28(a5) # 2000001c <wireless_device_info>
     f1e:	6795                	lui	a5,0x5
     f20:	070a                	slli	a4,a4,0x2
     f22:	dcc78793          	addi	a5,a5,-564 # 4dcc <uart_index>
     f26:	97ba                	add	a5,a5,a4
     f28:	439c                	lw	a5,0(a5)
     f2a:	0047d783          	lhu	a5,4(a5)
     f2e:	07c2                	slli	a5,a5,0x10
     f30:	83c1                	srli	a5,a5,0x10
     f32:	0ff7f713          	andi	a4,a5,255
     f36:	84e18823          	sb	a4,-1968(gp) # 20000148 <wireless_rx_buffer>
C:/Users/Yaner/Desktop/camera/libraries/zf_device/zf_device_wireless_uart.c:106
}
     f3a:	0001                	nop
     f3c:	4432                	lw	s0,12(sp)
     f3e:	0141                	addi	sp,sp,16
     f40:	8082                	ret

00000f42 <wireless_uart_callback_ch2>:
wireless_uart_callback_ch2():
C:/Users/Yaner/Desktop/camera/libraries/zf_device/zf_device_wireless_uart.c:118
//  @since      v1.0
//  Sample usage:
//  @note       该函数在ISR文件 串口7中断程序被调用
//-------------------------------------------------------------------------------------------------------------------
void wireless_uart_callback_ch2(void)
{
     f42:	1141                	addi	sp,sp,-16
     f44:	c622                	sw	s0,12(sp)
     f46:	0800                	addi	s0,sp,16
C:/Users/Yaner/Desktop/camera/libraries/zf_device/zf_device_wireless_uart.c:120
    // 接到一个字节后单片机将会进入此处，通过在此处读取wireless_rx_buffer可以取走数据
    wireless_rx_buffer[1] = ((USART_TypeDef*)uart_index[wireless_device_info[1].uart_n])->DATAR & 0x01FF;
     f48:	200007b7          	lui	a5,0x20000
     f4c:	01c78793          	addi	a5,a5,28 # 2000001c <wireless_device_info>
     f50:	4bd8                	lw	a4,20(a5)
     f52:	6795                	lui	a5,0x5
     f54:	070a                	slli	a4,a4,0x2
     f56:	dcc78793          	addi	a5,a5,-564 # 4dcc <uart_index>
     f5a:	97ba                	add	a5,a5,a4
     f5c:	439c                	lw	a5,0(a5)
     f5e:	0047d783          	lhu	a5,4(a5)
     f62:	07c2                	slli	a5,a5,0x10
     f64:	83c1                	srli	a5,a5,0x10
     f66:	0ff7f713          	andi	a4,a5,255
     f6a:	85018793          	addi	a5,gp,-1968 # 20000148 <wireless_rx_buffer>
     f6e:	00e780a3          	sb	a4,1(a5)
C:/Users/Yaner/Desktop/camera/libraries/zf_device/zf_device_wireless_uart.c:122

}
     f72:	0001                	nop
     f74:	4432                	lw	s0,12(sp)
     f76:	0141                	addi	sp,sp,16
     f78:	8082                	ret

00000f7a <clock_init>:
clock_init():
C:/Users/Yaner/Desktop/camera/libraries/zf_common/zf_common_clock.c:36
// @param       clock           时钟频率 推荐使用 zf_common_clock.h 中 system_clock_enum 定义的选项
// @return      void
// Sample usage:                clock_init(SYSTEM_CLOCK_144M);                   // 初始化核心时钟为 144MHz
//-------------------------------------------------------------------------------------------------------------------
void clock_init (uint32_t clock)
{
     f7a:	1101                	addi	sp,sp,-32
     f7c:	ce06                	sw	ra,28(sp)
     f7e:	cc22                	sw	s0,24(sp)
     f80:	1000                	addi	s0,sp,32
     f82:	fea42623          	sw	a0,-20(s0)
C:/Users/Yaner/Desktop/camera/libraries/zf_common/zf_common_clock.c:37
    system_clock = clock;                                                       // 记录核心时钟频率
     f86:	fec42703          	lw	a4,-20(s0)
     f8a:	84e1aa23          	sw	a4,-1964(gp) # 2000014c <system_clock>
C:/Users/Yaner/Desktop/camera/libraries/zf_common/zf_common_clock.c:38
    clock_reset();
     f8e:	2811                	jal	fa2 <clock_reset>
C:/Users/Yaner/Desktop/camera/libraries/zf_common/zf_common_clock.c:39
    clock_set_freq(clock);
     f90:	fec42503          	lw	a0,-20(s0)
     f94:	2051                	jal	1018 <clock_set_freq>
C:/Users/Yaner/Desktop/camera/libraries/zf_common/zf_common_clock.c:40
    interrupt_init();
     f96:	213d                	jal	13c4 <interrupt_init>
C:/Users/Yaner/Desktop/camera/libraries/zf_common/zf_common_clock.c:41
}
     f98:	0001                	nop
     f9a:	40f2                	lw	ra,28(sp)
     f9c:	4462                	lw	s0,24(sp)
     f9e:	6105                	addi	sp,sp,32
     fa0:	8082                	ret

00000fa2 <clock_reset>:
clock_reset():
C:/Users/Yaner/Desktop/camera/libraries/zf_common/zf_common_clock.c:49
// @brief       核心时钟恢复初始设置 内部调用
// @param       void
// @return      void
//-------------------------------------------------------------------------------------------------------------------
static void clock_reset (void)
{
     fa2:	1141                	addi	sp,sp,-16
     fa4:	c622                	sw	s0,12(sp)
     fa6:	0800                	addi	s0,sp,16
C:/Users/Yaner/Desktop/camera/libraries/zf_common/zf_common_clock.c:50
    RCC->CTLR |= (uint32_t)0x00000001;      //使能HSI振荡器
     fa8:	400217b7          	lui	a5,0x40021
     fac:	4398                	lw	a4,0(a5)
     fae:	400217b7          	lui	a5,0x40021
     fb2:	00176713          	ori	a4,a4,1
     fb6:	c398                	sw	a4,0(a5)
C:/Users/Yaner/Desktop/camera/libraries/zf_common/zf_common_clock.c:51
    RCC->CFGR0 &= (uint32_t)0xF8FF0000;
     fb8:	400217b7          	lui	a5,0x40021
     fbc:	43d4                	lw	a3,4(a5)
     fbe:	400217b7          	lui	a5,0x40021
     fc2:	f8ff0737          	lui	a4,0xf8ff0
     fc6:	8f75                	and	a4,a4,a3
     fc8:	c3d8                	sw	a4,4(a5)
C:/Users/Yaner/Desktop/camera/libraries/zf_common/zf_common_clock.c:52
    RCC->CTLR &= (uint32_t)0xFEF6FFFF;
     fca:	400217b7          	lui	a5,0x40021
     fce:	4394                	lw	a3,0(a5)
     fd0:	400217b7          	lui	a5,0x40021
     fd4:	fef70737          	lui	a4,0xfef70
     fd8:	177d                	addi	a4,a4,-1
     fda:	8f75                	and	a4,a4,a3
     fdc:	c398                	sw	a4,0(a5)
C:/Users/Yaner/Desktop/camera/libraries/zf_common/zf_common_clock.c:53
    RCC->CTLR &= (uint32_t)0xFFFBFFFF;
     fde:	400217b7          	lui	a5,0x40021
     fe2:	4394                	lw	a3,0(a5)
     fe4:	400217b7          	lui	a5,0x40021
     fe8:	fffc0737          	lui	a4,0xfffc0
     fec:	177d                	addi	a4,a4,-1
     fee:	8f75                	and	a4,a4,a3
     ff0:	c398                	sw	a4,0(a5)
C:/Users/Yaner/Desktop/camera/libraries/zf_common/zf_common_clock.c:54
    RCC->CFGR0 &= (uint32_t)0xFF80FFFF;
     ff2:	400217b7          	lui	a5,0x40021
     ff6:	43d4                	lw	a3,4(a5)
     ff8:	400217b7          	lui	a5,0x40021
     ffc:	ff810737          	lui	a4,0xff810
    1000:	177d                	addi	a4,a4,-1
    1002:	8f75                	and	a4,a4,a3
    1004:	c3d8                	sw	a4,4(a5)
C:/Users/Yaner/Desktop/camera/libraries/zf_common/zf_common_clock.c:55
    RCC->INTR = 0x009F0000;                 // 禁用所有中断并清除挂起位
    1006:	400217b7          	lui	a5,0x40021
    100a:	009f0737          	lui	a4,0x9f0
    100e:	c798                	sw	a4,8(a5)
C:/Users/Yaner/Desktop/camera/libraries/zf_common/zf_common_clock.c:56
}
    1010:	0001                	nop
    1012:	4432                	lw	s0,12(sp)
    1014:	0141                	addi	sp,sp,16
    1016:	8082                	ret

00001018 <clock_set_freq>:
clock_set_freq():
C:/Users/Yaner/Desktop/camera/libraries/zf_common/zf_common_clock.c:66
// @brief       核心时钟设置
// @param       clock           时钟频率 推荐使用 zf_common_clock.h 中 system_clock_enum 定义的选项
// @return      void
//-------------------------------------------------------------------------------------------------------------------
static void clock_set_freq (uint32_t clock)
{
    1018:	7179                	addi	sp,sp,-48
    101a:	d622                	sw	s0,44(sp)
    101c:	1800                	addi	s0,sp,48
    101e:	fca42e23          	sw	a0,-36(s0)
C:/Users/Yaner/Desktop/camera/libraries/zf_common/zf_common_clock.c:67
    __IO uint32_t StartUpCounter = 0, HSEStatus = 0;
    1022:	fe042623          	sw	zero,-20(s0)
    1026:	fe042423          	sw	zero,-24(s0)
C:/Users/Yaner/Desktop/camera/libraries/zf_common/zf_common_clock.c:69

    RCC->CTLR |= ((uint32_t)RCC_HSEON);
    102a:	400217b7          	lui	a5,0x40021
    102e:	4394                	lw	a3,0(a5)
    1030:	400217b7          	lui	a5,0x40021
    1034:	6741                	lui	a4,0x10
    1036:	8f55                	or	a4,a4,a3
    1038:	c398                	sw	a4,0(a5)
C:/Users/Yaner/Desktop/camera/libraries/zf_common/zf_common_clock.c:74 (discriminator 2)

    /* Wait till HSE is ready and if Time out is reached exit */
    do
    {
        HSEStatus = RCC->CTLR & RCC_HSERDY;
    103a:	400217b7          	lui	a5,0x40021
    103e:	4398                	lw	a4,0(a5)
    1040:	000207b7          	lui	a5,0x20
    1044:	8ff9                	and	a5,a5,a4
    1046:	fef42423          	sw	a5,-24(s0)
C:/Users/Yaner/Desktop/camera/libraries/zf_common/zf_common_clock.c:75 (discriminator 2)
        StartUpCounter++;
    104a:	fec42783          	lw	a5,-20(s0)
    104e:	0785                	addi	a5,a5,1
    1050:	fef42623          	sw	a5,-20(s0)
C:/Users/Yaner/Desktop/camera/libraries/zf_common/zf_common_clock.c:76 (discriminator 2)
    } while((HSEStatus == 0) && (StartUpCounter != HSE_STARTUP_TIMEOUT));
    1054:	fe842783          	lw	a5,-24(s0)
    1058:	e799                	bnez	a5,1066 <clock_set_freq+0x4e>
C:/Users/Yaner/Desktop/camera/libraries/zf_common/zf_common_clock.c:76 (discriminator 1)
    105a:	fec42703          	lw	a4,-20(s0)
    105e:	50000793          	li	a5,1280
    1062:	fcf71ce3          	bne	a4,a5,103a <clock_set_freq+0x22>
C:/Users/Yaner/Desktop/camera/libraries/zf_common/zf_common_clock.c:78

    if ((RCC->CTLR & RCC_HSERDY) != RESET)
    1066:	400217b7          	lui	a5,0x40021
    106a:	4398                	lw	a4,0(a5)
    106c:	000207b7          	lui	a5,0x20
    1070:	8ff9                	and	a5,a5,a4
    1072:	c789                	beqz	a5,107c <clock_set_freq+0x64>
C:/Users/Yaner/Desktop/camera/libraries/zf_common/zf_common_clock.c:80
    {
        HSEStatus = (uint32_t)0x01;
    1074:	4785                	li	a5,1
    1076:	fef42423          	sw	a5,-24(s0)
    107a:	a019                	j	1080 <clock_set_freq+0x68>
C:/Users/Yaner/Desktop/camera/libraries/zf_common/zf_common_clock.c:84
    }
    else
    {
        HSEStatus = (uint32_t)0x00;
    107c:	fe042423          	sw	zero,-24(s0)
C:/Users/Yaner/Desktop/camera/libraries/zf_common/zf_common_clock.c:87
    }

    if (HSEStatus == (uint32_t)0x01)
    1080:	fe842703          	lw	a4,-24(s0)
    1084:	4785                	li	a5,1
    1086:	1ef71563          	bne	a4,a5,1270 <clock_set_freq+0x258>
C:/Users/Yaner/Desktop/camera/libraries/zf_common/zf_common_clock.c:90
    {
        /* Enable Prefetch Buffer */
        FLASH->ACTLR |= FLASH_ACTLR_PRFTBE;
    108a:	400227b7          	lui	a5,0x40022
    108e:	4398                	lw	a4,0(a5)
    1090:	400227b7          	lui	a5,0x40022
    1094:	01076713          	ori	a4,a4,16
    1098:	c398                	sw	a4,0(a5)
C:/Users/Yaner/Desktop/camera/libraries/zf_common/zf_common_clock.c:93

        /* Flash wait state */
        FLASH->ACTLR &= (uint32_t)((uint32_t)~FLASH_ACTLR_LATENCY);
    109a:	400227b7          	lui	a5,0x40022
    109e:	4398                	lw	a4,0(a5)
    10a0:	400227b7          	lui	a5,0x40022
    10a4:	9b71                	andi	a4,a4,-4
    10a6:	c398                	sw	a4,0(a5)
C:/Users/Yaner/Desktop/camera/libraries/zf_common/zf_common_clock.c:95

        FLASH->ACTLR |= (((clock-1)/24000000)&0x07);
    10a8:	400227b7          	lui	a5,0x40022
    10ac:	4394                	lw	a3,0(a5)
    10ae:	fdc42783          	lw	a5,-36(s0)
    10b2:	fff78713          	addi	a4,a5,-1 # 40021fff <_eusrstack+0x20011fff>
    10b6:	016e37b7          	lui	a5,0x16e3
    10ba:	60078793          	addi	a5,a5,1536 # 16e3600 <_data_lma+0x16de610>
    10be:	02f757b3          	divu	a5,a4,a5
    10c2:	0077f713          	andi	a4,a5,7
    10c6:	400227b7          	lui	a5,0x40022
    10ca:	8f55                	or	a4,a4,a3
    10cc:	c398                	sw	a4,0(a5)
C:/Users/Yaner/Desktop/camera/libraries/zf_common/zf_common_clock.c:98

        /* HCLK = SYSCLK */
        RCC->CFGR0 |= (uint32_t)RCC_HPRE_DIV1;
    10ce:	40021737          	lui	a4,0x40021
    10d2:	400217b7          	lui	a5,0x40021
    10d6:	4358                	lw	a4,4(a4)
    10d8:	c3d8                	sw	a4,4(a5)
C:/Users/Yaner/Desktop/camera/libraries/zf_common/zf_common_clock.c:100
        /* PCLK2 = HCLK */
        RCC->CFGR0 |= (uint32_t)RCC_PPRE2_DIV1;
    10da:	40021737          	lui	a4,0x40021
    10de:	400217b7          	lui	a5,0x40021
    10e2:	4358                	lw	a4,4(a4)
    10e4:	c3d8                	sw	a4,4(a5)
C:/Users/Yaner/Desktop/camera/libraries/zf_common/zf_common_clock.c:102
        /* PCLK1 = HCLK */
        RCC->CFGR0 |= (uint32_t)RCC_PPRE1_DIV1;
    10e6:	40021737          	lui	a4,0x40021
    10ea:	400217b7          	lui	a5,0x40021
    10ee:	4358                	lw	a4,4(a4)
    10f0:	c3d8                	sw	a4,4(a5)
C:/Users/Yaner/Desktop/camera/libraries/zf_common/zf_common_clock.c:105


        if(clock == SYSTEM_CLOCK_XTAL)
    10f2:	fdc42703          	lw	a4,-36(s0)
    10f6:	007a17b7          	lui	a5,0x7a1
    10fa:	20078793          	addi	a5,a5,512 # 7a1200 <_data_lma+0x79c210>
    10fe:	02f71b63          	bne	a4,a5,1134 <clock_set_freq+0x11c>
C:/Users/Yaner/Desktop/camera/libraries/zf_common/zf_common_clock.c:108
        {
            /* Select HSE as system clock source */
            RCC->CFGR0 &= (uint32_t)((uint32_t)~(RCC_SW));
    1102:	400217b7          	lui	a5,0x40021
    1106:	43d8                	lw	a4,4(a5)
    1108:	400217b7          	lui	a5,0x40021
    110c:	9b71                	andi	a4,a4,-4
    110e:	c3d8                	sw	a4,4(a5)
C:/Users/Yaner/Desktop/camera/libraries/zf_common/zf_common_clock.c:109
            RCC->CFGR0 |= (uint32_t)RCC_SW_HSE;
    1110:	400217b7          	lui	a5,0x40021
    1114:	43d8                	lw	a4,4(a5)
    1116:	400217b7          	lui	a5,0x40021
    111a:	00176713          	ori	a4,a4,1
    111e:	c3d8                	sw	a4,4(a5)
C:/Users/Yaner/Desktop/camera/libraries/zf_common/zf_common_clock.c:111
            /* Wait till HSE is used as system clock source */
            while ((RCC->CFGR0 & (uint32_t)RCC_SWS) != (uint32_t)0x04)
    1120:	0001                	nop
C:/Users/Yaner/Desktop/camera/libraries/zf_common/zf_common_clock.c:111 (discriminator 1)
    1122:	400217b7          	lui	a5,0x40021
    1126:	43dc                	lw	a5,4(a5)
    1128:	00c7f713          	andi	a4,a5,12
    112c:	4791                	li	a5,4
    112e:	fef71ae3          	bne	a4,a5,1122 <clock_set_freq+0x10a>
C:/Users/Yaner/Desktop/camera/libraries/zf_common/zf_common_clock.c:161
        /*
        * If HSE fails to start-up, the application will have wrong clock
        * configuration. User can add here some code to deal with this error
        */
    }
}
    1132:	a281                	j	1272 <clock_set_freq+0x25a>
C:/Users/Yaner/Desktop/camera/libraries/zf_common/zf_common_clock.c:118
            RCC->CFGR0 &= (uint32_t)((uint32_t)~(RCC_PLLSRC | RCC_PLLXTPRE | RCC_PLLMULL));
    1134:	400217b7          	lui	a5,0x40021
    1138:	43d4                	lw	a3,4(a5)
    113a:	400217b7          	lui	a5,0x40021
    113e:	ffc10737          	lui	a4,0xffc10
    1142:	177d                	addi	a4,a4,-1
    1144:	8f75                	and	a4,a4,a3
    1146:	c3d8                	sw	a4,4(a5)
C:/Users/Yaner/Desktop/camera/libraries/zf_common/zf_common_clock.c:120
            if(clock == SYSTEM_CLOCK_144M)
    1148:	fdc42703          	lw	a4,-36(s0)
    114c:	089547b7          	lui	a5,0x8954
    1150:	40078793          	addi	a5,a5,1024 # 8954400 <_data_lma+0x894f410>
    1154:	00f71b63          	bne	a4,a5,116a <clock_set_freq+0x152>
C:/Users/Yaner/Desktop/camera/libraries/zf_common/zf_common_clock.c:121
            RCC->CFGR0 |= (uint32_t)(RCC_PLLSRC_HSE | RCC_PLLXTPRE_HSE | RCC_PLLMULL18_EXTEN);
    1158:	400217b7          	lui	a5,0x40021
    115c:	43d4                	lw	a3,4(a5)
    115e:	400217b7          	lui	a5,0x40021
    1162:	6741                	lui	a4,0x10
    1164:	8f55                	or	a4,a4,a3
    1166:	c3d8                	sw	a4,4(a5)
    1168:	a855                	j	121c <clock_set_freq+0x204>
C:/Users/Yaner/Desktop/camera/libraries/zf_common/zf_common_clock.c:122
            else if(clock == SYSTEM_CLOCK_120M)
    116a:	fdc42703          	lw	a4,-36(s0)
    116e:	072717b7          	lui	a5,0x7271
    1172:	e0078793          	addi	a5,a5,-512 # 7270e00 <_data_lma+0x726be10>
    1176:	00f71c63          	bne	a4,a5,118e <clock_set_freq+0x176>
C:/Users/Yaner/Desktop/camera/libraries/zf_common/zf_common_clock.c:123
            RCC->CFGR0 |= (uint32_t)(RCC_PLLSRC_HSE | RCC_PLLXTPRE_HSE | RCC_PLLMULL15_EXTEN);
    117a:	400217b7          	lui	a5,0x40021
    117e:	43d4                	lw	a3,4(a5)
    1180:	400217b7          	lui	a5,0x40021
    1184:	00390737          	lui	a4,0x390
    1188:	8f55                	or	a4,a4,a3
    118a:	c3d8                	sw	a4,4(a5)
    118c:	a841                	j	121c <clock_set_freq+0x204>
C:/Users/Yaner/Desktop/camera/libraries/zf_common/zf_common_clock.c:124
            else if(clock == SYSTEM_CLOCK_96M)
    118e:	fdc42703          	lw	a4,-36(s0)
    1192:	05b8e7b7          	lui	a5,0x5b8e
    1196:	80078793          	addi	a5,a5,-2048 # 5b8d800 <_data_lma+0x5b88810>
    119a:	00f71c63          	bne	a4,a5,11b2 <clock_set_freq+0x19a>
C:/Users/Yaner/Desktop/camera/libraries/zf_common/zf_common_clock.c:125
            RCC->CFGR0 |= (uint32_t)(RCC_PLLSRC_HSE | RCC_PLLXTPRE_HSE | RCC_PLLMULL12_EXTEN);
    119e:	400217b7          	lui	a5,0x40021
    11a2:	43d4                	lw	a3,4(a5)
    11a4:	400217b7          	lui	a5,0x40021
    11a8:	00290737          	lui	a4,0x290
    11ac:	8f55                	or	a4,a4,a3
    11ae:	c3d8                	sw	a4,4(a5)
    11b0:	a0b5                	j	121c <clock_set_freq+0x204>
C:/Users/Yaner/Desktop/camera/libraries/zf_common/zf_common_clock.c:126
            else if(clock == SYSTEM_CLOCK_72M)
    11b2:	fdc42703          	lw	a4,-36(s0)
    11b6:	044aa7b7          	lui	a5,0x44aa
    11ba:	20078793          	addi	a5,a5,512 # 44aa200 <_data_lma+0x44a5210>
    11be:	00f71c63          	bne	a4,a5,11d6 <clock_set_freq+0x1be>
C:/Users/Yaner/Desktop/camera/libraries/zf_common/zf_common_clock.c:127
            RCC->CFGR0 |= (uint32_t)(RCC_PLLSRC_HSE | RCC_PLLXTPRE_HSE | RCC_PLLMULL9_EXTEN);
    11c2:	400217b7          	lui	a5,0x40021
    11c6:	43d4                	lw	a3,4(a5)
    11c8:	400217b7          	lui	a5,0x40021
    11cc:	001d0737          	lui	a4,0x1d0
    11d0:	8f55                	or	a4,a4,a3
    11d2:	c3d8                	sw	a4,4(a5)
    11d4:	a0a1                	j	121c <clock_set_freq+0x204>
C:/Users/Yaner/Desktop/camera/libraries/zf_common/zf_common_clock.c:128
            else if(clock == SYSTEM_CLOCK_48M)
    11d6:	fdc42703          	lw	a4,-36(s0)
    11da:	02dc77b7          	lui	a5,0x2dc7
    11de:	c0078793          	addi	a5,a5,-1024 # 2dc6c00 <_data_lma+0x2dc1c10>
    11e2:	00f71c63          	bne	a4,a5,11fa <clock_set_freq+0x1e2>
C:/Users/Yaner/Desktop/camera/libraries/zf_common/zf_common_clock.c:129
            RCC->CFGR0 |= (uint32_t)(RCC_PLLSRC_HSE | RCC_PLLXTPRE_HSE | RCC_PLLMULL6_EXTEN);
    11e6:	400217b7          	lui	a5,0x40021
    11ea:	43d4                	lw	a3,4(a5)
    11ec:	400217b7          	lui	a5,0x40021
    11f0:	00110737          	lui	a4,0x110
    11f4:	8f55                	or	a4,a4,a3
    11f6:	c3d8                	sw	a4,4(a5)
    11f8:	a015                	j	121c <clock_set_freq+0x204>
C:/Users/Yaner/Desktop/camera/libraries/zf_common/zf_common_clock.c:130
            else if(clock == SYSTEM_CLOCK_24M)
    11fa:	fdc42703          	lw	a4,-36(s0)
    11fe:	016e37b7          	lui	a5,0x16e3
    1202:	60078793          	addi	a5,a5,1536 # 16e3600 <_data_lma+0x16de610>
    1206:	00f71b63          	bne	a4,a5,121c <clock_set_freq+0x204>
C:/Users/Yaner/Desktop/camera/libraries/zf_common/zf_common_clock.c:131
            RCC->CFGR0 |= (uint32_t)(RCC_PLLSRC_HSE | RCC_PLLXTPRE_HSE | RCC_PLLMULL3_EXTEN);
    120a:	400217b7          	lui	a5,0x40021
    120e:	43d4                	lw	a3,4(a5)
    1210:	400217b7          	lui	a5,0x40021
    1214:	00050737          	lui	a4,0x50
    1218:	8f55                	or	a4,a4,a3
    121a:	c3d8                	sw	a4,4(a5)
C:/Users/Yaner/Desktop/camera/libraries/zf_common/zf_common_clock.c:138
            RCC->CTLR |= RCC_PLLON;
    121c:	400217b7          	lui	a5,0x40021
    1220:	4394                	lw	a3,0(a5)
    1222:	400217b7          	lui	a5,0x40021
    1226:	01000737          	lui	a4,0x1000
    122a:	8f55                	or	a4,a4,a3
    122c:	c398                	sw	a4,0(a5)
C:/Users/Yaner/Desktop/camera/libraries/zf_common/zf_common_clock.c:140
            while((RCC->CTLR & RCC_PLLRDY) == 0)
    122e:	0001                	nop
C:/Users/Yaner/Desktop/camera/libraries/zf_common/zf_common_clock.c:140 (discriminator 1)
    1230:	400217b7          	lui	a5,0x40021
    1234:	4398                	lw	a4,0(a5)
    1236:	020007b7          	lui	a5,0x2000
    123a:	8ff9                	and	a5,a5,a4
    123c:	dbf5                	beqz	a5,1230 <clock_set_freq+0x218>
C:/Users/Yaner/Desktop/camera/libraries/zf_common/zf_common_clock.c:144
            RCC->CFGR0 &= (uint32_t)((uint32_t)~(RCC_SW));
    123e:	400217b7          	lui	a5,0x40021
    1242:	43d8                	lw	a4,4(a5)
    1244:	400217b7          	lui	a5,0x40021
    1248:	9b71                	andi	a4,a4,-4
    124a:	c3d8                	sw	a4,4(a5)
C:/Users/Yaner/Desktop/camera/libraries/zf_common/zf_common_clock.c:145
            RCC->CFGR0 |= (uint32_t)RCC_SW_PLL;
    124c:	400217b7          	lui	a5,0x40021
    1250:	43d8                	lw	a4,4(a5)
    1252:	400217b7          	lui	a5,0x40021
    1256:	00276713          	ori	a4,a4,2
    125a:	c3d8                	sw	a4,4(a5)
C:/Users/Yaner/Desktop/camera/libraries/zf_common/zf_common_clock.c:147
            while ((RCC->CFGR0 & (uint32_t)RCC_SWS) != (uint32_t)0x08)
    125c:	0001                	nop
C:/Users/Yaner/Desktop/camera/libraries/zf_common/zf_common_clock.c:147 (discriminator 1)
    125e:	400217b7          	lui	a5,0x40021
    1262:	43dc                	lw	a5,4(a5)
    1264:	00c7f713          	andi	a4,a5,12
    1268:	47a1                	li	a5,8
    126a:	fef71ae3          	bne	a4,a5,125e <clock_set_freq+0x246>
C:/Users/Yaner/Desktop/camera/libraries/zf_common/zf_common_clock.c:161
}
    126e:	a011                	j	1272 <clock_set_freq+0x25a>
C:/Users/Yaner/Desktop/camera/libraries/zf_common/zf_common_clock.c:155 (discriminator 2)
        while(1);           // 外部晶振不稳定或缺失 时钟设置失败
    1270:	a001                	j	1270 <clock_set_freq+0x258>
C:/Users/Yaner/Desktop/camera/libraries/zf_common/zf_common_clock.c:161
}
    1272:	5432                	lw	s0,44(sp)
    1274:	6145                	addi	sp,sp,48
    1276:	8082                	ret

00001278 <debug_init>:
debug_init():
C:/Users/Yaner/Desktop/camera/libraries/zf_common/zf_common_debug.c:35


uint8_t zf_debug_init_flag = 0;

void debug_init (void)
{
    1278:	1141                	addi	sp,sp,-16
    127a:	c606                	sw	ra,12(sp)
    127c:	c422                	sw	s0,8(sp)
    127e:	0800                	addi	s0,sp,16
C:/Users/Yaner/Desktop/camera/libraries/zf_common/zf_common_debug.c:43
//    GPIO_DeInit(GPIOC);
//    GPIO_DeInit(GPIOD);
//    GPIO_DeInit(GPIOE);


    uart_init(
    1280:	02100693          	li	a3,33
    1284:	02000613          	li	a2,32
    1288:	67f1                	lui	a5,0x1c
    128a:	20078593          	addi	a1,a5,512 # 1c200 <_data_lma+0x17210>
    128e:	4509                	li	a0,2
    1290:	edaff0ef          	jal	ra,96a <uart_init>
C:/Users/Yaner/Desktop/camera/libraries/zf_common/zf_common_debug.c:51
        DEBUG_UART_TX_PIN,                                                      // 在 zf_common_debug.h 中查看对应值
        DEBUG_UART_RX_PIN);                                                     // 在 zf_common_debug.h 中查看对应值

    if(DEBUG_UART_USE_INTERRUPT)                                                // 如果启用串口中断
    {
        uart_rx_interrupt(DEBUG_UART_INDEX, 1);                                 // 使能对应串口接收中断
    1294:	4585                	li	a1,1
    1296:	4509                	li	a0,2
    1298:	e4cff0ef          	jal	ra,8e4 <uart_rx_interrupt>
C:/Users/Yaner/Desktop/camera/libraries/zf_common/zf_common_debug.c:53
    }
    zf_debug_init_flag = 1;
    129c:	4705                	li	a4,1
    129e:	84e18c23          	sb	a4,-1960(gp) # 20000150 <zf_debug_init_flag>
C:/Users/Yaner/Desktop/camera/libraries/zf_common/zf_common_debug.c:54
}
    12a2:	0001                	nop
    12a4:	40b2                	lw	ra,12(sp)
    12a6:	4422                	lw	s0,8(sp)
    12a8:	0141                	addi	sp,sp,16
    12aa:	8082                	ret

000012ac <_write>:
_write():
C:/Users/Yaner/Desktop/camera/libraries/zf_common/zf_common_debug.c:154
//  @since      v1.0
//  Sample usage:              重定向printf到DEBUG串口上
//-------------------------------------------------------------------------------------------------------------------
#if (1 == PRINTF_ENABLE)
int _write(int fd, char *buf, int size)
{
    12ac:	7179                	addi	sp,sp,-48
    12ae:	d606                	sw	ra,44(sp)
    12b0:	d422                	sw	s0,40(sp)
    12b2:	1800                	addi	s0,sp,48
    12b4:	fca42e23          	sw	a0,-36(s0)
    12b8:	fcb42c23          	sw	a1,-40(s0)
    12bc:	fcc42a23          	sw	a2,-44(s0)
C:/Users/Yaner/Desktop/camera/libraries/zf_common/zf_common_debug.c:156
    int i;
    for(i=0; i<size; i++)
    12c0:	fe042623          	sw	zero,-20(s0)
    12c4:	a0a9                	j	130e <_write+0x62>
C:/Users/Yaner/Desktop/camera/libraries/zf_common/zf_common_debug.c:158
    {
        while (USART_GetFlagStatus((USART_TypeDef*)uart_index[UART_6], USART_FLAG_TC) == RESET);
    12c6:	0001                	nop
C:/Users/Yaner/Desktop/camera/libraries/zf_common/zf_common_debug.c:158 (discriminator 1)
    12c8:	6795                	lui	a5,0x5
    12ca:	dcc78793          	addi	a5,a5,-564 # 4dcc <uart_index>
    12ce:	4bdc                	lw	a5,20(a5)
    12d0:	04000593          	li	a1,64
    12d4:	853e                	mv	a0,a5
    12d6:	6f8010ef          	jal	ra,29ce <USART_GetFlagStatus>
    12da:	87aa                	mv	a5,a0
    12dc:	d7f5                	beqz	a5,12c8 <_write+0x1c>
C:/Users/Yaner/Desktop/camera/libraries/zf_common/zf_common_debug.c:159 (discriminator 2)
        USART_SendData((USART_TypeDef*)uart_index[UART_6], *buf++);
    12de:	6795                	lui	a5,0x5
    12e0:	dcc78793          	addi	a5,a5,-564 # 4dcc <uart_index>
    12e4:	4bdc                	lw	a5,20(a5)
    12e6:	86be                	mv	a3,a5
    12e8:	fd842783          	lw	a5,-40(s0)
    12ec:	00178713          	addi	a4,a5,1
    12f0:	fce42c23          	sw	a4,-40(s0)
    12f4:	00078783          	lb	a5,0(a5)
    12f8:	07c2                	slli	a5,a5,0x10
    12fa:	83c1                	srli	a5,a5,0x10
    12fc:	85be                	mv	a1,a5
    12fe:	8536                	mv	a0,a3
    1300:	6a0010ef          	jal	ra,29a0 <USART_SendData>
C:/Users/Yaner/Desktop/camera/libraries/zf_common/zf_common_debug.c:156 (discriminator 2)
    for(i=0; i<size; i++)
    1304:	fec42783          	lw	a5,-20(s0)
    1308:	0785                	addi	a5,a5,1
    130a:	fef42623          	sw	a5,-20(s0)
C:/Users/Yaner/Desktop/camera/libraries/zf_common/zf_common_debug.c:156 (discriminator 1)
    130e:	fec42703          	lw	a4,-20(s0)
    1312:	fd442783          	lw	a5,-44(s0)
    1316:	faf748e3          	blt	a4,a5,12c6 <_write+0x1a>
C:/Users/Yaner/Desktop/camera/libraries/zf_common/zf_common_debug.c:162

    }
    return size;
    131a:	fd442783          	lw	a5,-44(s0)
C:/Users/Yaner/Desktop/camera/libraries/zf_common/zf_common_debug.c:163
}
    131e:	853e                	mv	a0,a5
    1320:	50b2                	lw	ra,44(sp)
    1322:	5422                	lw	s0,40(sp)
    1324:	6145                	addi	sp,sp,48
    1326:	8082                	ret

00001328 <NVIC_EnableIRQ>:
NVIC_EnableIRQ():
C:\Users\Yaner\Desktop\camera\libraries\sdk\Core/core_riscv.h:129
* Function Name  : NVIC_EnableIRQ
* Description    : Enable Interrupt
* Input          : IRQn: Interrupt Numbers
* Return         : None
*******************************************************************************/
RV_STATIC_INLINE void NVIC_EnableIRQ(IRQn_Type IRQn){
    1328:	1101                	addi	sp,sp,-32
    132a:	ce22                	sw	s0,28(sp)
    132c:	1000                	addi	s0,sp,32
    132e:	fea42623          	sw	a0,-20(s0)
C:\Users\Yaner\Desktop\camera\libraries\sdk\Core/core_riscv.h:130
  NVIC->IENR[((uint32_t)(IRQn) >> 5)] = (1 << ((uint32_t)(IRQn) & 0x1F));
    1332:	fec42783          	lw	a5,-20(s0)
    1336:	8bfd                	andi	a5,a5,31
    1338:	4705                	li	a4,1
    133a:	00f716b3          	sll	a3,a4,a5
    133e:	e000e737          	lui	a4,0xe000e
    1342:	fec42783          	lw	a5,-20(s0)
    1346:	8395                	srli	a5,a5,0x5
    1348:	04078793          	addi	a5,a5,64
    134c:	078a                	slli	a5,a5,0x2
    134e:	97ba                	add	a5,a5,a4
    1350:	c394                	sw	a3,0(a5)
C:\Users\Yaner\Desktop\camera\libraries\sdk\Core/core_riscv.h:131
}
    1352:	0001                	nop
    1354:	4472                	lw	s0,28(sp)
    1356:	6105                	addi	sp,sp,32
    1358:	8082                	ret

0000135a <NVIC_DisableIRQ>:
NVIC_DisableIRQ():
C:\Users\Yaner\Desktop\camera\libraries\sdk\Core/core_riscv.h:140
* Description    : Disable Interrupt
* Input          : IRQn: Interrupt Numbers
* Return         : None
*******************************************************************************/
RV_STATIC_INLINE void NVIC_DisableIRQ(IRQn_Type IRQn)
{
    135a:	1101                	addi	sp,sp,-32
    135c:	ce22                	sw	s0,28(sp)
    135e:	1000                	addi	s0,sp,32
    1360:	fea42623          	sw	a0,-20(s0)
C:\Users\Yaner\Desktop\camera\libraries\sdk\Core/core_riscv.h:141
  NVIC->IRER[((uint32_t)(IRQn) >> 5)] = (1 << ((uint32_t)(IRQn) & 0x1F));
    1364:	fec42783          	lw	a5,-20(s0)
    1368:	8bfd                	andi	a5,a5,31
    136a:	4705                	li	a4,1
    136c:	00f716b3          	sll	a3,a4,a5
    1370:	e000e737          	lui	a4,0xe000e
    1374:	fec42783          	lw	a5,-20(s0)
    1378:	8395                	srli	a5,a5,0x5
    137a:	06078793          	addi	a5,a5,96
    137e:	078a                	slli	a5,a5,0x2
    1380:	97ba                	add	a5,a5,a4
    1382:	c394                	sw	a3,0(a5)
C:\Users\Yaner\Desktop\camera\libraries\sdk\Core/core_riscv.h:142
}
    1384:	0001                	nop
    1386:	4472                	lw	s0,28(sp)
    1388:	6105                	addi	sp,sp,32
    138a:	8082                	ret

0000138c <interrupt_enable>:
interrupt_enable():
C:/Users/Yaner/Desktop/camera/libraries/zf_common/zf_common_interrupt.c:31
// @param       irqn            指定中断号 可查看 isr.c 对应中断服务函数的标注
// @return      void
// Sample usage:                interrupt_enable(UART1_IRQn);
//-------------------------------------------------------------------------------------------------------------------
void interrupt_enable (IRQn_Type irqn)
{
    138c:	1101                	addi	sp,sp,-32
    138e:	ce06                	sw	ra,28(sp)
    1390:	cc22                	sw	s0,24(sp)
    1392:	1000                	addi	s0,sp,32
    1394:	fea42623          	sw	a0,-20(s0)
C:/Users/Yaner/Desktop/camera/libraries/zf_common/zf_common_interrupt.c:32
    NVIC_EnableIRQ(irqn);
    1398:	fec42503          	lw	a0,-20(s0)
    139c:	3771                	jal	1328 <NVIC_EnableIRQ>
C:/Users/Yaner/Desktop/camera/libraries/zf_common/zf_common_interrupt.c:33
}
    139e:	0001                	nop
    13a0:	40f2                	lw	ra,28(sp)
    13a2:	4462                	lw	s0,24(sp)
    13a4:	6105                	addi	sp,sp,32
    13a6:	8082                	ret

000013a8 <interrupt_disable>:
interrupt_disable():
C:/Users/Yaner/Desktop/camera/libraries/zf_common/zf_common_interrupt.c:42
// @param       irqn            指定中断号 可查看 isr.c 对应中断服务函数的标注
// @return      void
// Sample usage:                interrupt_disable(UART1_IRQn);
//-------------------------------------------------------------------------------------------------------------------
void interrupt_disable (IRQn_Type irqn)
{
    13a8:	1101                	addi	sp,sp,-32
    13aa:	ce06                	sw	ra,28(sp)
    13ac:	cc22                	sw	s0,24(sp)
    13ae:	1000                	addi	s0,sp,32
    13b0:	fea42623          	sw	a0,-20(s0)
C:/Users/Yaner/Desktop/camera/libraries/zf_common/zf_common_interrupt.c:43
    NVIC_DisableIRQ(irqn);
    13b4:	fec42503          	lw	a0,-20(s0)
    13b8:	374d                	jal	135a <NVIC_DisableIRQ>
C:/Users/Yaner/Desktop/camera/libraries/zf_common/zf_common_interrupt.c:44
}
    13ba:	0001                	nop
    13bc:	40f2                	lw	ra,28(sp)
    13be:	4462                	lw	s0,24(sp)
    13c0:	6105                	addi	sp,sp,32
    13c2:	8082                	ret

000013c4 <interrupt_init>:
interrupt_init():
C:/Users/Yaner/Desktop/camera/libraries/zf_common/zf_common_interrupt.c:65
// @param       void
// @return      void
// Sample usage:                interrupt_init();
//-------------------------------------------------------------------------------------------------------------------
void interrupt_init (void)
{
    13c4:	1141                	addi	sp,sp,-16
    13c6:	c622                	sw	s0,12(sp)
    13c8:	0800                	addi	s0,sp,16
C:/Users/Yaner/Desktop/camera/libraries/zf_common/zf_common_interrupt.c:67
    //NVIC_SetPriorityGrouping(4);
}
    13ca:	0001                	nop
    13cc:	4432                	lw	s0,12(sp)
    13ce:	0141                	addi	sp,sp,16
    13d0:	8082                	ret

000013d2 <interrupt_enable_all>:
interrupt_enable_all():
C:/Users/Yaner/Desktop/camera/libraries/zf_common/zf_common_interrupt.c:76
// @param       void
// @return      void
// Sample usage:                interrupt_enable_all();
//-------------------------------------------------------------------------------------------------------------------
void interrupt_enable_all (uint8_t state)
{
    13d2:	1101                	addi	sp,sp,-32
    13d4:	ce06                	sw	ra,28(sp)
    13d6:	cc22                	sw	s0,24(sp)
    13d8:	1000                	addi	s0,sp,32
    13da:	87aa                	mv	a5,a0
    13dc:	fef407a3          	sb	a5,-17(s0)
C:/Users/Yaner/Desktop/camera/libraries/zf_common/zf_common_interrupt.c:77
    if(state == 0)
    13e0:	fef44783          	lbu	a5,-17(s0)
    13e4:	e399                	bnez	a5,13ea <interrupt_enable_all+0x18>
C:/Users/Yaner/Desktop/camera/libraries/zf_common/zf_common_interrupt.c:80
    {
        extern void en_interrupt();
        en_interrupt();
    13e6:	e21fe0ef          	jal	ra,206 <en_interrupt>
C:/Users/Yaner/Desktop/camera/libraries/zf_common/zf_common_interrupt.c:82
    }
}
    13ea:	0001                	nop
    13ec:	40f2                	lw	ra,28(sp)
    13ee:	4462                	lw	s0,24(sp)
    13f0:	6105                	addi	sp,sp,32
    13f2:	8082                	ret

000013f4 <interrupt_disable_all>:
interrupt_disable_all():
C:/Users/Yaner/Desktop/camera/libraries/zf_common/zf_common_interrupt.c:91
// @param       void
// @return      void
// Sample usage:                interrupt_disable_all();
//-------------------------------------------------------------------------------------------------------------------
uint32_t interrupt_disable_all (void)
{
    13f4:	1101                	addi	sp,sp,-32
    13f6:	ce06                	sw	ra,28(sp)
    13f8:	cc22                	sw	s0,24(sp)
    13fa:	1000                	addi	s0,sp,32
C:/Users/Yaner/Desktop/camera/libraries/zf_common/zf_common_interrupt.c:94
    uint32_t temp;
    extern void dis_interrupt();
    dis_interrupt();
    13fc:	e05fe0ef          	jal	ra,200 <dis_interrupt>
C:/Users/Yaner/Desktop/camera/libraries/zf_common/zf_common_interrupt.c:95
    temp = __get_MSTATUS();
    1400:	512020ef          	jal	ra,3912 <__get_MSTATUS>
    1404:	fea42623          	sw	a0,-20(s0)
C:/Users/Yaner/Desktop/camera/libraries/zf_common/zf_common_interrupt.c:97
    //返回当前mstatus寄存器的值
    return temp;
    1408:	fec42783          	lw	a5,-20(s0)
C:/Users/Yaner/Desktop/camera/libraries/zf_common/zf_common_interrupt.c:98
}
    140c:	853e                	mv	a0,a5
    140e:	40f2                	lw	ra,28(sp)
    1410:	4462                	lw	s0,24(sp)
    1412:	6105                	addi	sp,sp,32
    1414:	8082                	ret

00001416 <USART1_IRQHandler>:
USART1_IRQHandler():
C:/Users/Yaner/Desktop/camera/project/user/src/isr.c:66
void EXTI9_5_IRQHandler(void) __attribute__((interrupt("WCH-Interrupt-fast")));
void EXTI15_10_IRQHandler(void) __attribute__((interrupt("WCH-Interrupt-fast")));


void USART1_IRQHandler(void)
{
    1416:	1141                	addi	sp,sp,-16
    1418:	c622                	sw	s0,12(sp)
    141a:	0800                	addi	s0,sp,16
C:/Users/Yaner/Desktop/camera/project/user/src/isr.c:67
    if(USART_GetITStatus(USART1, USART_IT_RXNE) != RESET)
    141c:	52500593          	li	a1,1317
    1420:	400147b7          	lui	a5,0x40014
    1424:	80078513          	addi	a0,a5,-2048 # 40013800 <_eusrstack+0x20003800>
    1428:	5ec010ef          	jal	ra,2a14 <USART_GetITStatus>
    142c:	87aa                	mv	a5,a0
    142e:	cb89                	beqz	a5,1440 <USART1_IRQHandler+0x2a>
C:/Users/Yaner/Desktop/camera/project/user/src/isr.c:69
    {
        USART_ClearITPendingBit(USART1, USART_IT_RXNE);
    1430:	52500593          	li	a1,1317
    1434:	400147b7          	lui	a5,0x40014
    1438:	80078513          	addi	a0,a5,-2048 # 40013800 <_eusrstack+0x20003800>
    143c:	6da010ef          	jal	ra,2b16 <USART_ClearITPendingBit>
C:/Users/Yaner/Desktop/camera/project/user/src/isr.c:72

    }
}
    1440:	0001                	nop
    1442:	4432                	lw	s0,12(sp)
    1444:	0141                	addi	sp,sp,16
    1446:	30200073          	mret

0000144a <USART2_IRQHandler>:
USART2_IRQHandler():
C:/Users/Yaner/Desktop/camera/project/user/src/isr.c:74
void USART2_IRQHandler(void)
{
    144a:	1141                	addi	sp,sp,-16
    144c:	c622                	sw	s0,12(sp)
    144e:	0800                	addi	s0,sp,16
C:/Users/Yaner/Desktop/camera/project/user/src/isr.c:75
    if(USART_GetITStatus(USART2, USART_IT_RXNE) != RESET)
    1450:	52500593          	li	a1,1317
    1454:	400047b7          	lui	a5,0x40004
    1458:	40078513          	addi	a0,a5,1024 # 40004400 <_eusrstack+0x1fff4400>
    145c:	5b8010ef          	jal	ra,2a14 <USART_GetITStatus>
    1460:	87aa                	mv	a5,a0
    1462:	cb85                	beqz	a5,1492 <USART2_IRQHandler+0x48>
C:/Users/Yaner/Desktop/camera/project/user/src/isr.c:78
    {

        USART_ClearITPendingBit(USART2, USART_IT_RXNE);
    1464:	52500593          	li	a1,1317
    1468:	400047b7          	lui	a5,0x40004
    146c:	40078513          	addi	a0,a5,1024 # 40004400 <_eusrstack+0x1fff4400>
    1470:	6a6010ef          	jal	ra,2b16 <USART_ClearITPendingBit>
C:/Users/Yaner/Desktop/camera/project/user/src/isr.c:79
        if(wireless_type == WIRELESS_UART)
    1474:	84c1a703          	lw	a4,-1972(gp) # 20000144 <wireless_type>
    1478:	4785                	li	a5,1
    147a:	00f71563          	bne	a4,a5,1484 <USART2_IRQHandler+0x3a>
C:/Users/Yaner/Desktop/camera/project/user/src/isr.c:81
        {
            wireless_uart_callback_ch1();
    147e:	a93ff0ef          	jal	ra,f10 <wireless_uart_callback_ch1>
C:/Users/Yaner/Desktop/camera/project/user/src/isr.c:90
            bluetooth_ch9141_uart_callback_ch1();
        }


    }
}
    1482:	a801                	j	1492 <USART2_IRQHandler+0x48>
C:/Users/Yaner/Desktop/camera/project/user/src/isr.c:83
        else if(wireless_type == BULETOOTH_CH9141)
    1484:	84c1a703          	lw	a4,-1972(gp) # 20000144 <wireless_type>
    1488:	4789                	li	a5,2
    148a:	00f71463          	bne	a4,a5,1492 <USART2_IRQHandler+0x48>
C:/Users/Yaner/Desktop/camera/project/user/src/isr.c:85
            bluetooth_ch9141_uart_callback_ch1();
    148e:	843ff0ef          	jal	ra,cd0 <bluetooth_ch9141_uart_callback_ch1>
C:/Users/Yaner/Desktop/camera/project/user/src/isr.c:90
}
    1492:	0001                	nop
    1494:	4432                	lw	s0,12(sp)
    1496:	0141                	addi	sp,sp,16
    1498:	30200073          	mret

0000149c <USART3_IRQHandler>:
USART3_IRQHandler():
C:/Users/Yaner/Desktop/camera/project/user/src/isr.c:95



void USART3_IRQHandler(void)
{
    149c:	1141                	addi	sp,sp,-16
    149e:	c622                	sw	s0,12(sp)
    14a0:	0800                	addi	s0,sp,16
C:/Users/Yaner/Desktop/camera/project/user/src/isr.c:96
    if(USART_GetITStatus(USART3, USART_IT_RXNE) != RESET)
    14a2:	52500593          	li	a1,1317
    14a6:	400057b7          	lui	a5,0x40005
    14aa:	80078513          	addi	a0,a5,-2048 # 40004800 <_eusrstack+0x1fff4800>
    14ae:	566010ef          	jal	ra,2a14 <USART_GetITStatus>
    14b2:	87aa                	mv	a5,a0
    14b4:	cb89                	beqz	a5,14c6 <USART3_IRQHandler+0x2a>
C:/Users/Yaner/Desktop/camera/project/user/src/isr.c:99
    {

        USART_ClearITPendingBit(USART3, USART_IT_RXNE);
    14b6:	52500593          	li	a1,1317
    14ba:	400057b7          	lui	a5,0x40005
    14be:	80078513          	addi	a0,a5,-2048 # 40004800 <_eusrstack+0x1fff4800>
    14c2:	654010ef          	jal	ra,2b16 <USART_ClearITPendingBit>
C:/Users/Yaner/Desktop/camera/project/user/src/isr.c:102

    }
}
    14c6:	0001                	nop
    14c8:	4432                	lw	s0,12(sp)
    14ca:	0141                	addi	sp,sp,16
    14cc:	30200073          	mret

000014d0 <UART4_IRQHandler>:
UART4_IRQHandler():
C:/Users/Yaner/Desktop/camera/project/user/src/isr.c:104
void UART4_IRQHandler (void)
{
    14d0:	1141                	addi	sp,sp,-16
    14d2:	c622                	sw	s0,12(sp)
    14d4:	0800                	addi	s0,sp,16
C:/Users/Yaner/Desktop/camera/project/user/src/isr.c:105
    if(USART_GetITStatus(UART4, USART_IT_RXNE) != RESET)
    14d6:	52500593          	li	a1,1317
    14da:	400057b7          	lui	a5,0x40005
    14de:	c0078513          	addi	a0,a5,-1024 # 40004c00 <_eusrstack+0x1fff4c00>
    14e2:	532010ef          	jal	ra,2a14 <USART_GetITStatus>
    14e6:	87aa                	mv	a5,a0
    14e8:	cb89                	beqz	a5,14fa <UART4_IRQHandler+0x2a>
C:/Users/Yaner/Desktop/camera/project/user/src/isr.c:108
    {

        USART_ClearITPendingBit(UART4, USART_IT_RXNE);
    14ea:	52500593          	li	a1,1317
    14ee:	400057b7          	lui	a5,0x40005
    14f2:	c0078513          	addi	a0,a5,-1024 # 40004c00 <_eusrstack+0x1fff4c00>
    14f6:	620010ef          	jal	ra,2b16 <USART_ClearITPendingBit>
C:/Users/Yaner/Desktop/camera/project/user/src/isr.c:111

    }
}
    14fa:	0001                	nop
    14fc:	4432                	lw	s0,12(sp)
    14fe:	0141                	addi	sp,sp,16
    1500:	30200073          	mret

00001504 <UART5_IRQHandler>:
UART5_IRQHandler():
C:/Users/Yaner/Desktop/camera/project/user/src/isr.c:113
void UART5_IRQHandler (void)
{
    1504:	1141                	addi	sp,sp,-16
    1506:	c622                	sw	s0,12(sp)
    1508:	0800                	addi	s0,sp,16
C:/Users/Yaner/Desktop/camera/project/user/src/isr.c:114
    if(USART_GetITStatus(UART5, USART_IT_RXNE) != RESET)
    150a:	52500593          	li	a1,1317
    150e:	40005537          	lui	a0,0x40005
    1512:	502010ef          	jal	ra,2a14 <USART_GetITStatus>
    1516:	87aa                	mv	a5,a0
    1518:	cb89                	beqz	a5,152a <UART5_IRQHandler+0x26>
C:/Users/Yaner/Desktop/camera/project/user/src/isr.c:116
    {
        USART_ClearITPendingBit(UART5, USART_IT_RXNE);
    151a:	52500593          	li	a1,1317
    151e:	40005537          	lui	a0,0x40005
    1522:	5f4010ef          	jal	ra,2b16 <USART_ClearITPendingBit>
C:/Users/Yaner/Desktop/camera/project/user/src/isr.c:117
        camera_uart_handler();
    1526:	8a7ff0ef          	jal	ra,dcc <camera_uart_handler>
C:/Users/Yaner/Desktop/camera/project/user/src/isr.c:119
    }
}
    152a:	0001                	nop
    152c:	4432                	lw	s0,12(sp)
    152e:	0141                	addi	sp,sp,16
    1530:	30200073          	mret

00001534 <UART6_IRQHandler>:
UART6_IRQHandler():
C:/Users/Yaner/Desktop/camera/project/user/src/isr.c:122

void UART6_IRQHandler (void)
{
    1534:	1141                	addi	sp,sp,-16
    1536:	c622                	sw	s0,12(sp)
    1538:	0800                	addi	s0,sp,16
C:/Users/Yaner/Desktop/camera/project/user/src/isr.c:123
    if(USART_GetITStatus(UART6, USART_IT_RXNE) != RESET)
    153a:	52500593          	li	a1,1317
    153e:	400027b7          	lui	a5,0x40002
    1542:	80078513          	addi	a0,a5,-2048 # 40001800 <_eusrstack+0x1fff1800>
    1546:	4ce010ef          	jal	ra,2a14 <USART_GetITStatus>
    154a:	87aa                	mv	a5,a0
    154c:	cb89                	beqz	a5,155e <UART6_IRQHandler+0x2a>
C:/Users/Yaner/Desktop/camera/project/user/src/isr.c:126
    {

        USART_ClearITPendingBit(UART6, USART_IT_RXNE);
    154e:	52500593          	li	a1,1317
    1552:	400027b7          	lui	a5,0x40002
    1556:	80078513          	addi	a0,a5,-2048 # 40001800 <_eusrstack+0x1fff1800>
    155a:	5bc010ef          	jal	ra,2b16 <USART_ClearITPendingBit>
C:/Users/Yaner/Desktop/camera/project/user/src/isr.c:130


    }
}
    155e:	0001                	nop
    1560:	4432                	lw	s0,12(sp)
    1562:	0141                	addi	sp,sp,16
    1564:	30200073          	mret

00001568 <UART7_IRQHandler>:
UART7_IRQHandler():
C:/Users/Yaner/Desktop/camera/project/user/src/isr.c:132
void UART7_IRQHandler (void)
{
    1568:	1141                	addi	sp,sp,-16
    156a:	c622                	sw	s0,12(sp)
    156c:	0800                	addi	s0,sp,16
C:/Users/Yaner/Desktop/camera/project/user/src/isr.c:133
    if(USART_GetITStatus(UART7, USART_IT_RXNE) != RESET)
    156e:	52500593          	li	a1,1317
    1572:	400027b7          	lui	a5,0x40002
    1576:	c0078513          	addi	a0,a5,-1024 # 40001c00 <_eusrstack+0x1fff1c00>
    157a:	49a010ef          	jal	ra,2a14 <USART_GetITStatus>
    157e:	87aa                	mv	a5,a0
    1580:	cb85                	beqz	a5,15b0 <UART7_IRQHandler+0x48>
C:/Users/Yaner/Desktop/camera/project/user/src/isr.c:135
    {
        USART_ClearITPendingBit(UART7, USART_IT_RXNE);
    1582:	52500593          	li	a1,1317
    1586:	400027b7          	lui	a5,0x40002
    158a:	c0078513          	addi	a0,a5,-1024 # 40001c00 <_eusrstack+0x1fff1c00>
    158e:	588010ef          	jal	ra,2b16 <USART_ClearITPendingBit>
C:/Users/Yaner/Desktop/camera/project/user/src/isr.c:136
        if(wireless_type == WIRELESS_UART)
    1592:	84c1a703          	lw	a4,-1972(gp) # 20000144 <wireless_type>
    1596:	4785                	li	a5,1
    1598:	00f71563          	bne	a4,a5,15a2 <UART7_IRQHandler+0x3a>
C:/Users/Yaner/Desktop/camera/project/user/src/isr.c:138
        {
            wireless_uart_callback_ch2();
    159c:	9a7ff0ef          	jal	ra,f42 <wireless_uart_callback_ch2>
C:/Users/Yaner/Desktop/camera/project/user/src/isr.c:145
        else if(wireless_type == BULETOOTH_CH9141)
        {
            bluetooth_ch9141_uart_callback_ch2();
        }
    }
}
    15a0:	a801                	j	15b0 <UART7_IRQHandler+0x48>
C:/Users/Yaner/Desktop/camera/project/user/src/isr.c:140
        else if(wireless_type == BULETOOTH_CH9141)
    15a2:	84c1a703          	lw	a4,-1972(gp) # 20000144 <wireless_type>
    15a6:	4789                	li	a5,2
    15a8:	00f71463          	bne	a4,a5,15b0 <UART7_IRQHandler+0x48>
C:/Users/Yaner/Desktop/camera/project/user/src/isr.c:142
            bluetooth_ch9141_uart_callback_ch2();
    15ac:	e6eff0ef          	jal	ra,c1a <bluetooth_ch9141_uart_callback_ch2>
C:/Users/Yaner/Desktop/camera/project/user/src/isr.c:145
}
    15b0:	0001                	nop
    15b2:	4432                	lw	s0,12(sp)
    15b4:	0141                	addi	sp,sp,16
    15b6:	30200073          	mret

000015ba <UART8_IRQHandler>:
UART8_IRQHandler():
C:/Users/Yaner/Desktop/camera/project/user/src/isr.c:147
void UART8_IRQHandler (void)
{
    15ba:	1141                	addi	sp,sp,-16
    15bc:	c622                	sw	s0,12(sp)
    15be:	0800                	addi	s0,sp,16
C:/Users/Yaner/Desktop/camera/project/user/src/isr.c:148
    if(USART_GetITStatus(UART8, USART_IT_RXNE) != RESET)
    15c0:	52500593          	li	a1,1317
    15c4:	40002537          	lui	a0,0x40002
    15c8:	44c010ef          	jal	ra,2a14 <USART_GetITStatus>
    15cc:	87aa                	mv	a5,a0
    15ce:	c799                	beqz	a5,15dc <UART8_IRQHandler+0x22>
C:/Users/Yaner/Desktop/camera/project/user/src/isr.c:150
    {
        USART_ClearITPendingBit(UART8, USART_IT_RXNE);
    15d0:	52500593          	li	a1,1317
    15d4:	40002537          	lui	a0,0x40002
    15d8:	53e010ef          	jal	ra,2b16 <USART_ClearITPendingBit>
C:/Users/Yaner/Desktop/camera/project/user/src/isr.c:152
    }
}
    15dc:	0001                	nop
    15de:	4432                	lw	s0,12(sp)
    15e0:	0141                	addi	sp,sp,16
    15e2:	30200073          	mret

000015e6 <DVP_IRQHandler>:
DVP_IRQHandler():
C:/Users/Yaner/Desktop/camera/project/user/src/isr.c:158




void DVP_IRQHandler(void)
{
    15e6:	1141                	addi	sp,sp,-16
    15e8:	c622                	sw	s0,12(sp)
    15ea:	0800                	addi	s0,sp,16
C:/Users/Yaner/Desktop/camera/project/user/src/isr.c:159
    if (DVP->IFR & RB_DVP_IF_FRM_DONE)
    15ec:	500507b7          	lui	a5,0x50050
    15f0:	0107c783          	lbu	a5,16(a5) # 50050010 <_eusrstack+0x30040010>
    15f4:	0ff7f793          	andi	a5,a5,255
    15f8:	8b91                	andi	a5,a5,4
    15fa:	c385                	beqz	a5,161a <DVP_IRQHandler+0x34>
C:/Users/Yaner/Desktop/camera/project/user/src/isr.c:161
    {
        DVP->IFR &= ~RB_DVP_IF_FRM_DONE;
    15fc:	500507b7          	lui	a5,0x50050
    1600:	0107c783          	lbu	a5,16(a5) # 50050010 <_eusrstack+0x30040010>
    1604:	0ff7f713          	andi	a4,a5,255
    1608:	500507b7          	lui	a5,0x50050
    160c:	9b6d                	andi	a4,a4,-5
    160e:	0ff77713          	andi	a4,a4,255
    1612:	00e78823          	sb	a4,16(a5) # 50050010 <_eusrstack+0x30040010>
C:/Users/Yaner/Desktop/camera/project/user/src/isr.c:162
        camera_dvp_handler();
    1616:	fdeff0ef          	jal	ra,df4 <camera_dvp_handler>
C:/Users/Yaner/Desktop/camera/project/user/src/isr.c:164
    }
}
    161a:	0001                	nop
    161c:	4432                	lw	s0,12(sp)
    161e:	0141                	addi	sp,sp,16
    1620:	30200073          	mret

00001624 <EXTI0_IRQHandler>:
EXTI0_IRQHandler():
C:/Users/Yaner/Desktop/camera/project/user/src/isr.c:166
void EXTI0_IRQHandler(void)
{
    1624:	1141                	addi	sp,sp,-16
    1626:	c622                	sw	s0,12(sp)
    1628:	0800                	addi	s0,sp,16
C:/Users/Yaner/Desktop/camera/project/user/src/isr.c:167
    if(SET == EXTI_GetITStatus(EXTI_Line0))
    162a:	4505                	li	a0,1
    162c:	015000ef          	jal	ra,1e40 <EXTI_GetITStatus>
    1630:	872a                	mv	a4,a0
    1632:	4785                	li	a5,1
    1634:	00f71563          	bne	a4,a5,163e <EXTI0_IRQHandler+0x1a>
C:/Users/Yaner/Desktop/camera/project/user/src/isr.c:169
    {
        EXTI_ClearITPendingBit(EXTI_Line0);
    1638:	4505                	li	a0,1
    163a:	05d000ef          	jal	ra,1e96 <EXTI_ClearITPendingBit>
C:/Users/Yaner/Desktop/camera/project/user/src/isr.c:172

    }
}
    163e:	0001                	nop
    1640:	4432                	lw	s0,12(sp)
    1642:	0141                	addi	sp,sp,16
    1644:	30200073          	mret

00001648 <EXTI1_IRQHandler>:
EXTI1_IRQHandler():
C:/Users/Yaner/Desktop/camera/project/user/src/isr.c:175

void EXTI1_IRQHandler(void)
{
    1648:	1141                	addi	sp,sp,-16
    164a:	c622                	sw	s0,12(sp)
    164c:	0800                	addi	s0,sp,16
C:/Users/Yaner/Desktop/camera/project/user/src/isr.c:176
    if(SET == EXTI_GetITStatus(EXTI_Line1))
    164e:	4509                	li	a0,2
    1650:	7f0000ef          	jal	ra,1e40 <EXTI_GetITStatus>
    1654:	872a                	mv	a4,a0
    1656:	4785                	li	a5,1
    1658:	00f71563          	bne	a4,a5,1662 <EXTI1_IRQHandler+0x1a>
C:/Users/Yaner/Desktop/camera/project/user/src/isr.c:178
    {
        EXTI_ClearITPendingBit(EXTI_Line1);
    165c:	4509                	li	a0,2
    165e:	039000ef          	jal	ra,1e96 <EXTI_ClearITPendingBit>
C:/Users/Yaner/Desktop/camera/project/user/src/isr.c:181

    }
}
    1662:	0001                	nop
    1664:	4432                	lw	s0,12(sp)
    1666:	0141                	addi	sp,sp,16
    1668:	30200073          	mret

0000166c <EXTI2_IRQHandler>:
EXTI2_IRQHandler():
C:/Users/Yaner/Desktop/camera/project/user/src/isr.c:184

void EXTI2_IRQHandler(void)
{
    166c:	1141                	addi	sp,sp,-16
    166e:	c622                	sw	s0,12(sp)
    1670:	0800                	addi	s0,sp,16
C:/Users/Yaner/Desktop/camera/project/user/src/isr.c:185
    if(SET == EXTI_GetITStatus(EXTI_Line2))
    1672:	4511                	li	a0,4
    1674:	7cc000ef          	jal	ra,1e40 <EXTI_GetITStatus>
    1678:	872a                	mv	a4,a0
    167a:	4785                	li	a5,1
    167c:	00f71563          	bne	a4,a5,1686 <EXTI2_IRQHandler+0x1a>
C:/Users/Yaner/Desktop/camera/project/user/src/isr.c:187
    {
        EXTI_ClearITPendingBit(EXTI_Line2);
    1680:	4511                	li	a0,4
    1682:	015000ef          	jal	ra,1e96 <EXTI_ClearITPendingBit>
C:/Users/Yaner/Desktop/camera/project/user/src/isr.c:190

    }
}
    1686:	0001                	nop
    1688:	4432                	lw	s0,12(sp)
    168a:	0141                	addi	sp,sp,16
    168c:	30200073          	mret

00001690 <EXTI3_IRQHandler>:
EXTI3_IRQHandler():
C:/Users/Yaner/Desktop/camera/project/user/src/isr.c:193

void EXTI3_IRQHandler(void)
{
    1690:	1141                	addi	sp,sp,-16
    1692:	c622                	sw	s0,12(sp)
    1694:	0800                	addi	s0,sp,16
C:/Users/Yaner/Desktop/camera/project/user/src/isr.c:194
    if(SET == EXTI_GetITStatus(EXTI_Line3))
    1696:	4521                	li	a0,8
    1698:	7a8000ef          	jal	ra,1e40 <EXTI_GetITStatus>
    169c:	872a                	mv	a4,a0
    169e:	4785                	li	a5,1
    16a0:	00f71563          	bne	a4,a5,16aa <EXTI3_IRQHandler+0x1a>
C:/Users/Yaner/Desktop/camera/project/user/src/isr.c:196
    {
        EXTI_ClearITPendingBit(EXTI_Line3);
    16a4:	4521                	li	a0,8
    16a6:	7f0000ef          	jal	ra,1e96 <EXTI_ClearITPendingBit>
C:/Users/Yaner/Desktop/camera/project/user/src/isr.c:199

    }
}
    16aa:	0001                	nop
    16ac:	4432                	lw	s0,12(sp)
    16ae:	0141                	addi	sp,sp,16
    16b0:	30200073          	mret

000016b4 <EXTI4_IRQHandler>:
EXTI4_IRQHandler():
C:/Users/Yaner/Desktop/camera/project/user/src/isr.c:202

void EXTI4_IRQHandler(void)
{
    16b4:	1141                	addi	sp,sp,-16
    16b6:	c622                	sw	s0,12(sp)
    16b8:	0800                	addi	s0,sp,16
C:/Users/Yaner/Desktop/camera/project/user/src/isr.c:203
    if(SET == EXTI_GetITStatus(EXTI_Line4))
    16ba:	4541                	li	a0,16
    16bc:	784000ef          	jal	ra,1e40 <EXTI_GetITStatus>
    16c0:	872a                	mv	a4,a0
    16c2:	4785                	li	a5,1
    16c4:	00f71563          	bne	a4,a5,16ce <EXTI4_IRQHandler+0x1a>
C:/Users/Yaner/Desktop/camera/project/user/src/isr.c:205
    {
        EXTI_ClearITPendingBit(EXTI_Line4);
    16c8:	4541                	li	a0,16
    16ca:	7cc000ef          	jal	ra,1e96 <EXTI_ClearITPendingBit>
C:/Users/Yaner/Desktop/camera/project/user/src/isr.c:208

    }
}
    16ce:	0001                	nop
    16d0:	4432                	lw	s0,12(sp)
    16d2:	0141                	addi	sp,sp,16
    16d4:	30200073          	mret

000016d8 <EXTI9_5_IRQHandler>:
EXTI9_5_IRQHandler():
C:/Users/Yaner/Desktop/camera/project/user/src/isr.c:210
void EXTI9_5_IRQHandler(void)
{
    16d8:	1141                	addi	sp,sp,-16
    16da:	c622                	sw	s0,12(sp)
    16dc:	0800                	addi	s0,sp,16
C:/Users/Yaner/Desktop/camera/project/user/src/isr.c:211
    if(SET == EXTI_GetITStatus(EXTI_Line5))
    16de:	02000513          	li	a0,32
    16e2:	75e000ef          	jal	ra,1e40 <EXTI_GetITStatus>
    16e6:	872a                	mv	a4,a0
    16e8:	4785                	li	a5,1
    16ea:	02f71d63          	bne	a4,a5,1724 <EXTI9_5_IRQHandler+0x4c>
C:/Users/Yaner/Desktop/camera/project/user/src/isr.c:213
    {
        EXTI_ClearITPendingBit(EXTI_Line5);
    16ee:	02000513          	li	a0,32
    16f2:	7a4000ef          	jal	ra,1e96 <EXTI_ClearITPendingBit>
C:/Users/Yaner/Desktop/camera/project/user/src/isr.c:214
        if (DVP->IFR & RB_DVP_IF_FRM_DONE)
    16f6:	500507b7          	lui	a5,0x50050
    16fa:	0107c783          	lbu	a5,16(a5) # 50050010 <_eusrstack+0x30040010>
    16fe:	0ff7f793          	andi	a5,a5,255
    1702:	8b91                	andi	a5,a5,4
    1704:	c385                	beqz	a5,1724 <EXTI9_5_IRQHandler+0x4c>
C:/Users/Yaner/Desktop/camera/project/user/src/isr.c:216
                 {
                     DVP->IFR &= ~RB_DVP_IF_FRM_DONE;
    1706:	500507b7          	lui	a5,0x50050
    170a:	0107c783          	lbu	a5,16(a5) # 50050010 <_eusrstack+0x30040010>
    170e:	0ff7f713          	andi	a4,a5,255
    1712:	500507b7          	lui	a5,0x50050
    1716:	9b6d                	andi	a4,a4,-5
    1718:	0ff77713          	andi	a4,a4,255
    171c:	00e78823          	sb	a4,16(a5) # 50050010 <_eusrstack+0x30040010>
C:/Users/Yaner/Desktop/camera/project/user/src/isr.c:217
                     camera_dvp_handler();
    1720:	ed4ff0ef          	jal	ra,df4 <camera_dvp_handler>
C:/Users/Yaner/Desktop/camera/project/user/src/isr.c:220
                 }
    }
    if(SET == EXTI_GetITStatus(EXTI_Line6))
    1724:	04000513          	li	a0,64
    1728:	718000ef          	jal	ra,1e40 <EXTI_GetITStatus>
    172c:	872a                	mv	a4,a0
    172e:	4785                	li	a5,1
    1730:	00f71663          	bne	a4,a5,173c <EXTI9_5_IRQHandler+0x64>
C:/Users/Yaner/Desktop/camera/project/user/src/isr.c:222
    {
        EXTI_ClearITPendingBit(EXTI_Line6);
    1734:	04000513          	li	a0,64
    1738:	75e000ef          	jal	ra,1e96 <EXTI_ClearITPendingBit>
C:/Users/Yaner/Desktop/camera/project/user/src/isr.c:225

    }
    if(SET == EXTI_GetITStatus(EXTI_Line7))
    173c:	08000513          	li	a0,128
    1740:	700000ef          	jal	ra,1e40 <EXTI_GetITStatus>
    1744:	872a                	mv	a4,a0
    1746:	4785                	li	a5,1
    1748:	00f71663          	bne	a4,a5,1754 <EXTI9_5_IRQHandler+0x7c>
C:/Users/Yaner/Desktop/camera/project/user/src/isr.c:227
    {
        EXTI_ClearITPendingBit(EXTI_Line7);
    174c:	08000513          	li	a0,128
    1750:	746000ef          	jal	ra,1e96 <EXTI_ClearITPendingBit>
C:/Users/Yaner/Desktop/camera/project/user/src/isr.c:230

    }
    if(SET == EXTI_GetITStatus(EXTI_Line8))
    1754:	10000513          	li	a0,256
    1758:	6e8000ef          	jal	ra,1e40 <EXTI_GetITStatus>
    175c:	872a                	mv	a4,a0
    175e:	4785                	li	a5,1
    1760:	00f71663          	bne	a4,a5,176c <EXTI9_5_IRQHandler+0x94>
C:/Users/Yaner/Desktop/camera/project/user/src/isr.c:232
    {
        EXTI_ClearITPendingBit(EXTI_Line8);
    1764:	10000513          	li	a0,256
    1768:	72e000ef          	jal	ra,1e96 <EXTI_ClearITPendingBit>
C:/Users/Yaner/Desktop/camera/project/user/src/isr.c:235

    }
    if(SET == EXTI_GetITStatus(EXTI_Line9))
    176c:	20000513          	li	a0,512
    1770:	6d0000ef          	jal	ra,1e40 <EXTI_GetITStatus>
    1774:	872a                	mv	a4,a0
    1776:	4785                	li	a5,1
    1778:	00f71663          	bne	a4,a5,1784 <EXTI9_5_IRQHandler+0xac>
C:/Users/Yaner/Desktop/camera/project/user/src/isr.c:237
    {
        EXTI_ClearITPendingBit(EXTI_Line9);
    177c:	20000513          	li	a0,512
    1780:	716000ef          	jal	ra,1e96 <EXTI_ClearITPendingBit>
C:/Users/Yaner/Desktop/camera/project/user/src/isr.c:241

    }

}
    1784:	0001                	nop
    1786:	4432                	lw	s0,12(sp)
    1788:	0141                	addi	sp,sp,16
    178a:	30200073          	mret

0000178e <EXTI15_10_IRQHandler>:
EXTI15_10_IRQHandler():
C:/Users/Yaner/Desktop/camera/project/user/src/isr.c:244

void EXTI15_10_IRQHandler(void)
{
    178e:	1141                	addi	sp,sp,-16
    1790:	c622                	sw	s0,12(sp)
    1792:	0800                	addi	s0,sp,16
C:/Users/Yaner/Desktop/camera/project/user/src/isr.c:245
    if(SET == EXTI_GetITStatus(EXTI_Line10))
    1794:	40000513          	li	a0,1024
    1798:	2565                	jal	1e40 <EXTI_GetITStatus>
    179a:	872a                	mv	a4,a0
    179c:	4785                	li	a5,1
    179e:	00f71563          	bne	a4,a5,17a8 <EXTI15_10_IRQHandler+0x1a>
C:/Users/Yaner/Desktop/camera/project/user/src/isr.c:247
    {
        EXTI_ClearITPendingBit(EXTI_Line10);
    17a2:	40000513          	li	a0,1024
    17a6:	2dc5                	jal	1e96 <EXTI_ClearITPendingBit>
C:/Users/Yaner/Desktop/camera/project/user/src/isr.c:250

    }
    if(SET == EXTI_GetITStatus(EXTI_Line11))
    17a8:	6785                	lui	a5,0x1
    17aa:	80078513          	addi	a0,a5,-2048 # 800 <__stack_size>
    17ae:	2d49                	jal	1e40 <EXTI_GetITStatus>
    17b0:	872a                	mv	a4,a0
    17b2:	4785                	li	a5,1
    17b4:	00f71663          	bne	a4,a5,17c0 <EXTI15_10_IRQHandler+0x32>
C:/Users/Yaner/Desktop/camera/project/user/src/isr.c:252
    {
        EXTI_ClearITPendingBit(EXTI_Line11);
    17b8:	6785                	lui	a5,0x1
    17ba:	80078513          	addi	a0,a5,-2048 # 800 <__stack_size>
    17be:	2de1                	jal	1e96 <EXTI_ClearITPendingBit>
C:/Users/Yaner/Desktop/camera/project/user/src/isr.c:255

    }
    if(SET == EXTI_GetITStatus(EXTI_Line12))
    17c0:	6505                	lui	a0,0x1
    17c2:	2dbd                	jal	1e40 <EXTI_GetITStatus>
    17c4:	872a                	mv	a4,a0
    17c6:	4785                	li	a5,1
    17c8:	00f71463          	bne	a4,a5,17d0 <EXTI15_10_IRQHandler+0x42>
C:/Users/Yaner/Desktop/camera/project/user/src/isr.c:257
    {
        EXTI_ClearITPendingBit(EXTI_Line12);
    17cc:	6505                	lui	a0,0x1
    17ce:	25e1                	jal	1e96 <EXTI_ClearITPendingBit>
C:/Users/Yaner/Desktop/camera/project/user/src/isr.c:260

    }
    if(SET == EXTI_GetITStatus(EXTI_Line13))
    17d0:	6509                	lui	a0,0x2
    17d2:	25bd                	jal	1e40 <EXTI_GetITStatus>
    17d4:	872a                	mv	a4,a0
    17d6:	4785                	li	a5,1
    17d8:	00f71463          	bne	a4,a5,17e0 <EXTI15_10_IRQHandler+0x52>
C:/Users/Yaner/Desktop/camera/project/user/src/isr.c:262
    {
        EXTI_ClearITPendingBit(EXTI_Line13);
    17dc:	6509                	lui	a0,0x2
    17de:	2d65                	jal	1e96 <EXTI_ClearITPendingBit>
C:/Users/Yaner/Desktop/camera/project/user/src/isr.c:265

    }
    if(SET == EXTI_GetITStatus(EXTI_Line14))
    17e0:	6511                	lui	a0,0x4
    17e2:	2db9                	jal	1e40 <EXTI_GetITStatus>
    17e4:	872a                	mv	a4,a0
    17e6:	4785                	li	a5,1
    17e8:	00f71463          	bne	a4,a5,17f0 <EXTI15_10_IRQHandler+0x62>
C:/Users/Yaner/Desktop/camera/project/user/src/isr.c:267
    {
        EXTI_ClearITPendingBit(EXTI_Line14);
    17ec:	6511                	lui	a0,0x4
    17ee:	2565                	jal	1e96 <EXTI_ClearITPendingBit>
C:/Users/Yaner/Desktop/camera/project/user/src/isr.c:270

    }
    if(SET == EXTI_GetITStatus(EXTI_Line15))
    17f0:	6521                	lui	a0,0x8
    17f2:	25b9                	jal	1e40 <EXTI_GetITStatus>
    17f4:	872a                	mv	a4,a0
    17f6:	4785                	li	a5,1
    17f8:	00f71463          	bne	a4,a5,1800 <EXTI15_10_IRQHandler+0x72>
C:/Users/Yaner/Desktop/camera/project/user/src/isr.c:272
    {
        EXTI_ClearITPendingBit(EXTI_Line15);
    17fc:	6521                	lui	a0,0x8
    17fe:	2d61                	jal	1e96 <EXTI_ClearITPendingBit>
C:/Users/Yaner/Desktop/camera/project/user/src/isr.c:275

    }
}
    1800:	0001                	nop
    1802:	4432                	lw	s0,12(sp)
    1804:	0141                	addi	sp,sp,16
    1806:	30200073          	mret

0000180a <TIM1_UP_IRQHandler>:
TIM1_UP_IRQHandler():
C:/Users/Yaner/Desktop/camera/project/user/src/isr.c:278

void TIM1_UP_IRQHandler(void)
{
    180a:	1141                	addi	sp,sp,-16
    180c:	c622                	sw	s0,12(sp)
    180e:	0800                	addi	s0,sp,16
C:/Users/Yaner/Desktop/camera/project/user/src/isr.c:279
    if(TIM_GetITStatus(TIM1, TIM_IT_Update) != RESET)
    1810:	4585                	li	a1,1
    1812:	400137b7          	lui	a5,0x40013
    1816:	c0078513          	addi	a0,a5,-1024 # 40012c00 <_eusrstack+0x20002c00>
    181a:	591000ef          	jal	ra,25aa <TIM_GetITStatus>
    181e:	87aa                	mv	a5,a0
    1820:	cb81                	beqz	a5,1830 <TIM1_UP_IRQHandler+0x26>
C:/Users/Yaner/Desktop/camera/project/user/src/isr.c:281
    {
        TIM_ClearITPendingBit(TIM1, TIM_IT_Update);
    1822:	4585                	li	a1,1
    1824:	400137b7          	lui	a5,0x40013
    1828:	c0078513          	addi	a0,a5,-1024 # 40012c00 <_eusrstack+0x20002c00>
    182c:	5ef000ef          	jal	ra,261a <TIM_ClearITPendingBit>
C:/Users/Yaner/Desktop/camera/project/user/src/isr.c:284

    }
}
    1830:	0001                	nop
    1832:	4432                	lw	s0,12(sp)
    1834:	0141                	addi	sp,sp,16
    1836:	30200073          	mret

0000183a <TIM2_IRQHandler>:
TIM2_IRQHandler():
C:/Users/Yaner/Desktop/camera/project/user/src/isr.c:288


void TIM2_IRQHandler(void)
{
    183a:	1141                	addi	sp,sp,-16
    183c:	c622                	sw	s0,12(sp)
    183e:	0800                	addi	s0,sp,16
C:/Users/Yaner/Desktop/camera/project/user/src/isr.c:289
    if(TIM_GetITStatus(TIM2, TIM_IT_Update) != RESET)
    1840:	4585                	li	a1,1
    1842:	40000537          	lui	a0,0x40000
    1846:	565000ef          	jal	ra,25aa <TIM_GetITStatus>
    184a:	87aa                	mv	a5,a0
    184c:	c791                	beqz	a5,1858 <TIM2_IRQHandler+0x1e>
C:/Users/Yaner/Desktop/camera/project/user/src/isr.c:291
    {
       TIM_ClearITPendingBit(TIM2, TIM_IT_Update );
    184e:	4585                	li	a1,1
    1850:	40000537          	lui	a0,0x40000
    1854:	5c7000ef          	jal	ra,261a <TIM_ClearITPendingBit>
C:/Users/Yaner/Desktop/camera/project/user/src/isr.c:295


    }
}
    1858:	0001                	nop
    185a:	4432                	lw	s0,12(sp)
    185c:	0141                	addi	sp,sp,16
    185e:	30200073          	mret

00001862 <TIM3_IRQHandler>:
TIM3_IRQHandler():
C:/Users/Yaner/Desktop/camera/project/user/src/isr.c:298

void TIM3_IRQHandler(void)
{
    1862:	1141                	addi	sp,sp,-16
    1864:	c622                	sw	s0,12(sp)
    1866:	0800                	addi	s0,sp,16
C:/Users/Yaner/Desktop/camera/project/user/src/isr.c:299
    if(TIM_GetITStatus(TIM3, TIM_IT_Update) != RESET)
    1868:	4585                	li	a1,1
    186a:	400007b7          	lui	a5,0x40000
    186e:	40078513          	addi	a0,a5,1024 # 40000400 <_eusrstack+0x1fff0400>
    1872:	539000ef          	jal	ra,25aa <TIM_GetITStatus>
    1876:	87aa                	mv	a5,a0
    1878:	cb81                	beqz	a5,1888 <TIM3_IRQHandler+0x26>
C:/Users/Yaner/Desktop/camera/project/user/src/isr.c:301
    {
       TIM_ClearITPendingBit(TIM3, TIM_IT_Update );
    187a:	4585                	li	a1,1
    187c:	400007b7          	lui	a5,0x40000
    1880:	40078513          	addi	a0,a5,1024 # 40000400 <_eusrstack+0x1fff0400>
    1884:	597000ef          	jal	ra,261a <TIM_ClearITPendingBit>
C:/Users/Yaner/Desktop/camera/project/user/src/isr.c:305


    }
}
    1888:	0001                	nop
    188a:	4432                	lw	s0,12(sp)
    188c:	0141                	addi	sp,sp,16
    188e:	30200073          	mret

00001892 <TIM4_IRQHandler>:
TIM4_IRQHandler():
C:/Users/Yaner/Desktop/camera/project/user/src/isr.c:308

void TIM4_IRQHandler(void)
{
    1892:	1141                	addi	sp,sp,-16
    1894:	c622                	sw	s0,12(sp)
    1896:	0800                	addi	s0,sp,16
C:/Users/Yaner/Desktop/camera/project/user/src/isr.c:309
    if(TIM_GetITStatus(TIM4, TIM_IT_Update) != RESET)
    1898:	4585                	li	a1,1
    189a:	400017b7          	lui	a5,0x40001
    189e:	80078513          	addi	a0,a5,-2048 # 40000800 <_eusrstack+0x1fff0800>
    18a2:	509000ef          	jal	ra,25aa <TIM_GetITStatus>
    18a6:	87aa                	mv	a5,a0
    18a8:	cb81                	beqz	a5,18b8 <TIM4_IRQHandler+0x26>
C:/Users/Yaner/Desktop/camera/project/user/src/isr.c:311
    {
       TIM_ClearITPendingBit(TIM4, TIM_IT_Update );
    18aa:	4585                	li	a1,1
    18ac:	400017b7          	lui	a5,0x40001
    18b0:	80078513          	addi	a0,a5,-2048 # 40000800 <_eusrstack+0x1fff0800>
    18b4:	567000ef          	jal	ra,261a <TIM_ClearITPendingBit>
C:/Users/Yaner/Desktop/camera/project/user/src/isr.c:315


    }
}
    18b8:	0001                	nop
    18ba:	4432                	lw	s0,12(sp)
    18bc:	0141                	addi	sp,sp,16
    18be:	30200073          	mret

000018c2 <TIM5_IRQHandler>:
TIM5_IRQHandler():
C:/Users/Yaner/Desktop/camera/project/user/src/isr.c:318

void TIM5_IRQHandler(void)
{
    18c2:	1141                	addi	sp,sp,-16
    18c4:	c622                	sw	s0,12(sp)
    18c6:	0800                	addi	s0,sp,16
C:/Users/Yaner/Desktop/camera/project/user/src/isr.c:319
    if(TIM_GetITStatus(TIM5, TIM_IT_Update) != RESET)
    18c8:	4585                	li	a1,1
    18ca:	400017b7          	lui	a5,0x40001
    18ce:	c0078513          	addi	a0,a5,-1024 # 40000c00 <_eusrstack+0x1fff0c00>
    18d2:	4d9000ef          	jal	ra,25aa <TIM_GetITStatus>
    18d6:	87aa                	mv	a5,a0
    18d8:	cb81                	beqz	a5,18e8 <TIM5_IRQHandler+0x26>
C:/Users/Yaner/Desktop/camera/project/user/src/isr.c:321
    {
       TIM_ClearITPendingBit(TIM5, TIM_IT_Update );
    18da:	4585                	li	a1,1
    18dc:	400017b7          	lui	a5,0x40001
    18e0:	c0078513          	addi	a0,a5,-1024 # 40000c00 <_eusrstack+0x1fff0c00>
    18e4:	537000ef          	jal	ra,261a <TIM_ClearITPendingBit>
C:/Users/Yaner/Desktop/camera/project/user/src/isr.c:327




    }
}
    18e8:	0001                	nop
    18ea:	4432                	lw	s0,12(sp)
    18ec:	0141                	addi	sp,sp,16
    18ee:	30200073          	mret

000018f2 <TIM6_IRQHandler>:
TIM6_IRQHandler():
C:/Users/Yaner/Desktop/camera/project/user/src/isr.c:330

void TIM6_IRQHandler(void)
{
    18f2:	1141                	addi	sp,sp,-16
    18f4:	c622                	sw	s0,12(sp)
    18f6:	0800                	addi	s0,sp,16
C:/Users/Yaner/Desktop/camera/project/user/src/isr.c:332

    if (TIM_GetITStatus(TIM6, TIM_IT_Update) != RESET) {
    18f8:	4585                	li	a1,1
    18fa:	40001537          	lui	a0,0x40001
    18fe:	4ad000ef          	jal	ra,25aa <TIM_GetITStatus>
    1902:	87aa                	mv	a5,a0
    1904:	c791                	beqz	a5,1910 <TIM6_IRQHandler+0x1e>
C:/Users/Yaner/Desktop/camera/project/user/src/isr.c:333
        TIM_ClearITPendingBit(TIM6, TIM_IT_Update);
    1906:	4585                	li	a1,1
    1908:	40001537          	lui	a0,0x40001
    190c:	50f000ef          	jal	ra,261a <TIM_ClearITPendingBit>
C:/Users/Yaner/Desktop/camera/project/user/src/isr.c:335
    }
}
    1910:	0001                	nop
    1912:	4432                	lw	s0,12(sp)
    1914:	0141                	addi	sp,sp,16
    1916:	30200073          	mret

0000191a <TIM7_IRQHandler>:
TIM7_IRQHandler():
C:/Users/Yaner/Desktop/camera/project/user/src/isr.c:339


void TIM7_IRQHandler(void)
{
    191a:	1141                	addi	sp,sp,-16
    191c:	c622                	sw	s0,12(sp)
    191e:	0800                	addi	s0,sp,16
C:/Users/Yaner/Desktop/camera/project/user/src/isr.c:340
    if(TIM_GetITStatus(TIM7, TIM_IT_Update) != RESET)
    1920:	4585                	li	a1,1
    1922:	400017b7          	lui	a5,0x40001
    1926:	40078513          	addi	a0,a5,1024 # 40001400 <_eusrstack+0x1fff1400>
    192a:	481000ef          	jal	ra,25aa <TIM_GetITStatus>
    192e:	87aa                	mv	a5,a0
    1930:	cb81                	beqz	a5,1940 <TIM7_IRQHandler+0x26>
C:/Users/Yaner/Desktop/camera/project/user/src/isr.c:342
    {
       TIM_ClearITPendingBit(TIM7, TIM_IT_Update );
    1932:	4585                	li	a1,1
    1934:	400017b7          	lui	a5,0x40001
    1938:	40078513          	addi	a0,a5,1024 # 40001400 <_eusrstack+0x1fff1400>
    193c:	4df000ef          	jal	ra,261a <TIM_ClearITPendingBit>
C:/Users/Yaner/Desktop/camera/project/user/src/isr.c:345

    }
}
    1940:	0001                	nop
    1942:	4432                	lw	s0,12(sp)
    1944:	0141                	addi	sp,sp,16
    1946:	30200073          	mret

0000194a <TIM8_UP_IRQHandler>:
TIM8_UP_IRQHandler():
C:/Users/Yaner/Desktop/camera/project/user/src/isr.c:349


void TIM8_UP_IRQHandler(void)
{
    194a:	1141                	addi	sp,sp,-16
    194c:	c622                	sw	s0,12(sp)
    194e:	0800                	addi	s0,sp,16
C:/Users/Yaner/Desktop/camera/project/user/src/isr.c:350
    if(TIM_GetITStatus(TIM8, TIM_IT_Update) != RESET)
    1950:	4585                	li	a1,1
    1952:	400137b7          	lui	a5,0x40013
    1956:	40078513          	addi	a0,a5,1024 # 40013400 <_eusrstack+0x20003400>
    195a:	451000ef          	jal	ra,25aa <TIM_GetITStatus>
    195e:	87aa                	mv	a5,a0
    1960:	cb81                	beqz	a5,1970 <TIM8_UP_IRQHandler+0x26>
C:/Users/Yaner/Desktop/camera/project/user/src/isr.c:352
    {
        TIM_ClearITPendingBit(TIM8, TIM_IT_Update);
    1962:	4585                	li	a1,1
    1964:	400137b7          	lui	a5,0x40013
    1968:	40078513          	addi	a0,a5,1024 # 40013400 <_eusrstack+0x20003400>
    196c:	4af000ef          	jal	ra,261a <TIM_ClearITPendingBit>
C:/Users/Yaner/Desktop/camera/project/user/src/isr.c:355

    }
}
    1970:	0001                	nop
    1972:	4432                	lw	s0,12(sp)
    1974:	0141                	addi	sp,sp,16
    1976:	30200073          	mret

0000197a <TIM9_UP_IRQHandler>:
TIM9_UP_IRQHandler():
C:/Users/Yaner/Desktop/camera/project/user/src/isr.c:359


void TIM9_UP_IRQHandler(void)
{
    197a:	1141                	addi	sp,sp,-16
    197c:	c622                	sw	s0,12(sp)
    197e:	0800                	addi	s0,sp,16
C:/Users/Yaner/Desktop/camera/project/user/src/isr.c:360
    if(TIM_GetITStatus(TIM9, TIM_IT_Update) != RESET)
    1980:	4585                	li	a1,1
    1982:	400157b7          	lui	a5,0x40015
    1986:	c0078513          	addi	a0,a5,-1024 # 40014c00 <_eusrstack+0x20004c00>
    198a:	421000ef          	jal	ra,25aa <TIM_GetITStatus>
    198e:	87aa                	mv	a5,a0
    1990:	cb81                	beqz	a5,19a0 <TIM9_UP_IRQHandler+0x26>
C:/Users/Yaner/Desktop/camera/project/user/src/isr.c:362
    {
        TIM_ClearITPendingBit(TIM9, TIM_IT_Update);
    1992:	4585                	li	a1,1
    1994:	400157b7          	lui	a5,0x40015
    1998:	c0078513          	addi	a0,a5,-1024 # 40014c00 <_eusrstack+0x20004c00>
    199c:	47f000ef          	jal	ra,261a <TIM_ClearITPendingBit>
C:/Users/Yaner/Desktop/camera/project/user/src/isr.c:365

    }
}
    19a0:	0001                	nop
    19a2:	4432                	lw	s0,12(sp)
    19a4:	0141                	addi	sp,sp,16
    19a6:	30200073          	mret

000019aa <TIM10_UP_IRQHandler>:
TIM10_UP_IRQHandler():
C:/Users/Yaner/Desktop/camera/project/user/src/isr.c:369


void TIM10_UP_IRQHandler(void)
{
    19aa:	1141                	addi	sp,sp,-16
    19ac:	c622                	sw	s0,12(sp)
    19ae:	0800                	addi	s0,sp,16
C:/Users/Yaner/Desktop/camera/project/user/src/isr.c:370
    if(TIM_GetITStatus(TIM10, TIM_IT_Update) != RESET)
    19b0:	4585                	li	a1,1
    19b2:	40015537          	lui	a0,0x40015
    19b6:	3f5000ef          	jal	ra,25aa <TIM_GetITStatus>
    19ba:	87aa                	mv	a5,a0
    19bc:	c791                	beqz	a5,19c8 <TIM10_UP_IRQHandler+0x1e>
C:/Users/Yaner/Desktop/camera/project/user/src/isr.c:372
    {
        TIM_ClearITPendingBit(TIM10, TIM_IT_Update);
    19be:	4585                	li	a1,1
    19c0:	40015537          	lui	a0,0x40015
    19c4:	457000ef          	jal	ra,261a <TIM_ClearITPendingBit>
C:/Users/Yaner/Desktop/camera/project/user/src/isr.c:375

    }
}
    19c8:	0001                	nop
    19ca:	4432                	lw	s0,12(sp)
    19cc:	0141                	addi	sp,sp,16
    19ce:	30200073          	mret

000019d2 <NMI_Handler>:
NMI_Handler():
C:/Users/Yaner/Desktop/camera/project/user/src/isr.c:471
* Description    : This function handles NMI exception.
* Input          : None
* Return         : None
*******************************************************************************/
void NMI_Handler(void)
{
    19d2:	1141                	addi	sp,sp,-16
    19d4:	c622                	sw	s0,12(sp)
    19d6:	0800                	addi	s0,sp,16
C:/Users/Yaner/Desktop/camera/project/user/src/isr.c:472
}
    19d8:	0001                	nop
    19da:	4432                	lw	s0,12(sp)
    19dc:	0141                	addi	sp,sp,16
    19de:	30200073          	mret

000019e2 <HardFault_Handler>:
HardFault_Handler():
C:/Users/Yaner/Desktop/camera/project/user/src/isr.c:481
* Description    : This function handles Hard Fault exception.
* Input          : None
* Return         : None
*******************************************************************************/
void HardFault_Handler(void)
{
    19e2:	1141                	addi	sp,sp,-16
    19e4:	c622                	sw	s0,12(sp)
    19e6:	0800                	addi	s0,sp,16
C:/Users/Yaner/Desktop/camera/project/user/src/isr.c:484 (discriminator 1)
  while (1)
  {
      printf("hardfault!\n");
    19e8:	6795                	lui	a5,0x5
    19ea:	d6878513          	addi	a0,a5,-664 # 4d68 <_sbrk+0x130>
    19ee:	10e020ef          	jal	ra,3afc <puts>
    19f2:	bfdd                	j	19e8 <HardFault_Handler+0x6>

000019f4 <main>:
main():
C:/Users/Yaner/Desktop/camera/project/user/src/main.c:24


#include "zf_common_headfile.h"

int main(void)
{
    19f4:	1141                	addi	sp,sp,-16
    19f6:	c606                	sw	ra,12(sp)
    19f8:	c422                	sw	s0,8(sp)
    19fa:	c24a                	sw	s2,4(sp)
    19fc:	c04e                	sw	s3,0(sp)
    19fe:	0800                	addi	s0,sp,16
C:/Users/Yaner/Desktop/camera/project/user/src/main.c:25
    interrupt_disable_all();            // 关闭总中断
    1a00:	9f5ff0ef          	jal	ra,13f4 <interrupt_disable_all>
C:/Users/Yaner/Desktop/camera/project/user/src/main.c:26
    clock_init(SYSTEM_CLOCK_144M);      // 务必保留，设置系统时钟。
    1a04:	089547b7          	lui	a5,0x8954
    1a08:	40078513          	addi	a0,a5,1024 # 8954400 <_data_lma+0x894f410>
    1a0c:	d6eff0ef          	jal	ra,f7a <clock_init>
C:/Users/Yaner/Desktop/camera/project/user/src/main.c:27
    debug_init();                       // 务必保留，本函数用于初始化MPU 时钟 调试串口
    1a10:	869ff0ef          	jal	ra,1278 <debug_init>
C:/Users/Yaner/Desktop/camera/project/user/src/main.c:34
    //    mt9v03x_init_dvp();//摄像头初始化
// 此处编写用户代码(例如：外设初始化代码等)
    //ADC初始化，例：adc_init(ADC_IN7_A7);


    gpio_init(LED_1_PIN, GPO, 1, GPIO_PIN_CONFIG);
    1a14:	31000693          	li	a3,784
    1a18:	4605                	li	a2,1
    1a1a:	4585                	li	a1,1
    1a1c:	08200513          	li	a0,130
    1a20:	96dfe0ef          	jal	ra,38c <gpio_init>
C:/Users/Yaner/Desktop/camera/project/user/src/main.c:35
    gpio_init(BEEP_PIN, GPO, 1, GPIO_PIN_CONFIG);
    1a24:	31000693          	li	a3,784
    1a28:	4605                	li	a2,1
    1a2a:	4585                	li	a1,1
    1a2c:	06f00513          	li	a0,111
    1a30:	95dfe0ef          	jal	ra,38c <gpio_init>
C:/Users/Yaner/Desktop/camera/project/user/src/main.c:36
    system_delay_ms(500);
    1a34:	8541a703          	lw	a4,-1964(gp) # 2000014c <system_clock>
    1a38:	6789                	lui	a5,0x2
    1a3a:	f4078793          	addi	a5,a5,-192 # 1f40 <GPIO_Init+0x8a>
    1a3e:	02f75733          	divu	a4,a4,a5
    1a42:	1f400793          	li	a5,500
    1a46:	02f707b3          	mul	a5,a4,a5
    1a4a:	893e                	mv	s2,a5
    1a4c:	4981                	li	s3,0
    1a4e:	854a                	mv	a0,s2
    1a50:	85ce                	mv	a1,s3
    1a52:	86bfe0ef          	jal	ra,2bc <system_delay>
C:/Users/Yaner/Desktop/camera/project/user/src/main.c:37
    gpio_set_level(BEEP_PIN, 0);
    1a56:	4581                	li	a1,0
    1a58:	06f00513          	li	a0,111
    1a5c:	8bdfe0ef          	jal	ra,318 <gpio_set_level>
C:/Users/Yaner/Desktop/camera/project/user/src/main.c:39

    interrupt_enable_all(0);            // 总中断最后开启
    1a60:	4501                	li	a0,0
    1a62:	971ff0ef          	jal	ra,13d2 <interrupt_enable_all>
C:/Users/Yaner/Desktop/camera/project/user/src/main.c:44
    while(1)
    {
        // 此处编写需要循环执行的代码

        gpio_set_level(LED_1_PIN, 1);
    1a66:	4585                	li	a1,1
    1a68:	08200513          	li	a0,130
    1a6c:	8adfe0ef          	jal	ra,318 <gpio_set_level>
C:/Users/Yaner/Desktop/camera/project/user/src/main.c:46

        if(mt9v03x_finish_flag_dvp == 1)
    1a70:	83c1c703          	lbu	a4,-1988(gp) # 20000134 <mt9v03x_finish_flag_dvp>
    1a74:	4785                	li	a5,1
    1a76:	fef718e3          	bne	a4,a5,1a66 <main+0x72>
C:/Users/Yaner/Desktop/camera/project/user/src/main.c:48
        {
            old_image_use_flag = image_use_flag;
    1a7a:	200007b7          	lui	a5,0x20000
    1a7e:	0f87c703          	lbu	a4,248(a5) # 200000f8 <image_use_flag>
    1a82:	200007b7          	lui	a5,0x20000
    1a86:	0ee78ca3          	sb	a4,249(a5) # 200000f9 <old_image_use_flag>
C:/Users/Yaner/Desktop/camera/project/user/src/main.c:49
             mt9v03x_finish_flag_dvp = 0;
    1a8a:	82018e23          	sb	zero,-1988(gp) # 20000134 <mt9v03x_finish_flag_dvp>
C:/Users/Yaner/Desktop/camera/project/user/src/main.c:52
            //thershold_local = GetOSTU(image_fire);  //使用某一种办法获得阈值
            //eight_neighbor(image_fire,thershold_local);//然后处理你的图像
            if(old_image_use_flag != image_use_flag)
    1a8e:	200007b7          	lui	a5,0x20000
    1a92:	0f97c703          	lbu	a4,249(a5) # 200000f9 <old_image_use_flag>
    1a96:	200007b7          	lui	a5,0x20000
    1a9a:	0f87c783          	lbu	a5,248(a5) # 200000f8 <image_use_flag>
    1a9e:	02f70a63          	beq	a4,a5,1ad2 <main+0xde>
C:/Users/Yaner/Desktop/camera/project/user/src/main.c:54
            {
              if(image_use_flag==1)//改变缓冲区
    1aa2:	200007b7          	lui	a5,0x20000
    1aa6:	0f87c703          	lbu	a4,248(a5) # 200000f8 <image_use_flag>
    1aaa:	4785                	li	a5,1
    1aac:	00f71763          	bne	a4,a5,1aba <main+0xc6>
C:/Users/Yaner/Desktop/camera/project/user/src/main.c:56
              {
                  image_fire=camera_buffer_addr2;
    1ab0:	8341a703          	lw	a4,-1996(gp) # 2000012c <camera_buffer_addr2>
    1ab4:	82e1ac23          	sw	a4,-1992(gp) # 20000130 <image_fire>
    1ab8:	b77d                	j	1a66 <main+0x72>
C:/Users/Yaner/Desktop/camera/project/user/src/main.c:58
              }
              else if(image_use_flag==2)
    1aba:	200007b7          	lui	a5,0x20000
    1abe:	0f87c703          	lbu	a4,248(a5) # 200000f8 <image_use_flag>
    1ac2:	4789                	li	a5,2
    1ac4:	faf711e3          	bne	a4,a5,1a66 <main+0x72>
C:/Users/Yaner/Desktop/camera/project/user/src/main.c:60
              {
                  image_fire=camera_buffer_addr;
    1ac8:	8301a703          	lw	a4,-2000(gp) # 20000128 <camera_buffer_addr>
    1acc:	82e1ac23          	sw	a4,-1992(gp) # 20000130 <image_fire>
    1ad0:	bf59                	j	1a66 <main+0x72>
C:/Users/Yaner/Desktop/camera/project/user/src/main.c:65
              }
            }
            else                        //说明程序执行较快，此时下一场的场中断还未到
            {
              if(image_use_flag==1)//改变缓冲区
    1ad2:	200007b7          	lui	a5,0x20000
    1ad6:	0f87c703          	lbu	a4,248(a5) # 200000f8 <image_use_flag>
    1ada:	4785                	li	a5,1
    1adc:	00f71763          	bne	a4,a5,1aea <main+0xf6>
C:/Users/Yaner/Desktop/camera/project/user/src/main.c:67
              {
                  image_fire=camera_buffer_addr;
    1ae0:	8301a703          	lw	a4,-2000(gp) # 20000128 <camera_buffer_addr>
    1ae4:	82e1ac23          	sw	a4,-1992(gp) # 20000130 <image_fire>
    1ae8:	bfbd                	j	1a66 <main+0x72>
C:/Users/Yaner/Desktop/camera/project/user/src/main.c:69
              }
              else if(image_use_flag==2)
    1aea:	200007b7          	lui	a5,0x20000
    1aee:	0f87c703          	lbu	a4,248(a5) # 200000f8 <image_use_flag>
    1af2:	4789                	li	a5,2
    1af4:	f6f719e3          	bne	a4,a5,1a66 <main+0x72>
C:/Users/Yaner/Desktop/camera/project/user/src/main.c:71
              {
                  image_fire=camera_buffer_addr2;
    1af8:	8341a703          	lw	a4,-1996(gp) # 2000012c <camera_buffer_addr2>
    1afc:	82e1ac23          	sw	a4,-1992(gp) # 20000130 <image_fire>
C:/Users/Yaner/Desktop/camera/project/user/src/main.c:44
        gpio_set_level(LED_1_PIN, 1);
    1b00:	b79d                	j	1a66 <main+0x72>
C:/Users/Yaner/Desktop/camera/libraries/sdk/Startup/startup_ch32v30x.S:236
    .weak   DMA2_Channel8_IRQHandler   /* DMA2 Channel 8 */
    .weak   DMA2_Channel9_IRQHandler   /* DMA2 Channel 9 */
    .weak   DMA2_Channel10_IRQHandler  /* DMA2 Channel 10 */
    .weak   DMA2_Channel11_IRQHandler  /* DMA2 Channel 11 */

NMI_Handler:  1:  j 1b
    1b02:	a001                	j	1b02 <main+0x10e>
C:/Users/Yaner/Desktop/camera/libraries/sdk/Startup/startup_ch32v30x.S:237
HardFault_Handler:  1:  j 1b
    1b04:	a001                	j	1b04 <main+0x110>

00001b06 <Ecall_M_Mode_Handler>:
Ecall_M_Mode_Handler():
C:/Users/Yaner/Desktop/camera/libraries/sdk/Startup/startup_ch32v30x.S:238
Ecall_M_Mode_Handler:  1:  j 1b
    1b06:	a001                	j	1b06 <Ecall_M_Mode_Handler>

00001b08 <Ecall_U_Mode_Handler>:
Ecall_U_Mode_Handler():
C:/Users/Yaner/Desktop/camera/libraries/sdk/Startup/startup_ch32v30x.S:239
Ecall_U_Mode_Handler:  1:  j 1b
    1b08:	a001                	j	1b08 <Ecall_U_Mode_Handler>

00001b0a <Break_Point_Handler>:
Break_Point_Handler():
C:/Users/Yaner/Desktop/camera/libraries/sdk/Startup/startup_ch32v30x.S:240
Break_Point_Handler:  1:  j 1b
    1b0a:	a001                	j	1b0a <Break_Point_Handler>

00001b0c <SysTick_Handler>:
SysTick_Handler():
C:/Users/Yaner/Desktop/camera/libraries/sdk/Startup/startup_ch32v30x.S:241
SysTick_Handler:  1:  j 1b
    1b0c:	a001                	j	1b0c <SysTick_Handler>

00001b0e <SW_handler>:
SW_handler():
C:/Users/Yaner/Desktop/camera/libraries/sdk/Startup/startup_ch32v30x.S:242
SW_handler:  1:  j 1b
    1b0e:	a001                	j	1b0e <SW_handler>

00001b10 <WWDG_IRQHandler>:
WWDG_IRQHandler():
C:/Users/Yaner/Desktop/camera/libraries/sdk/Startup/startup_ch32v30x.S:243
WWDG_IRQHandler:  1:  j 1b
    1b10:	a001                	j	1b10 <WWDG_IRQHandler>

00001b12 <PVD_IRQHandler>:
PVD_IRQHandler():
C:/Users/Yaner/Desktop/camera/libraries/sdk/Startup/startup_ch32v30x.S:244
PVD_IRQHandler:  1:  j 1b
    1b12:	a001                	j	1b12 <PVD_IRQHandler>

00001b14 <TAMPER_IRQHandler>:
TAMPER_IRQHandler():
C:/Users/Yaner/Desktop/camera/libraries/sdk/Startup/startup_ch32v30x.S:245
TAMPER_IRQHandler:  1:  j 1b
    1b14:	a001                	j	1b14 <TAMPER_IRQHandler>

00001b16 <RTC_IRQHandler>:
RTC_IRQHandler():
C:/Users/Yaner/Desktop/camera/libraries/sdk/Startup/startup_ch32v30x.S:246
RTC_IRQHandler:  1:  j 1b
    1b16:	a001                	j	1b16 <RTC_IRQHandler>

00001b18 <FLASH_IRQHandler>:
FLASH_IRQHandler():
C:/Users/Yaner/Desktop/camera/libraries/sdk/Startup/startup_ch32v30x.S:247
FLASH_IRQHandler:  1:  j 1b
    1b18:	a001                	j	1b18 <FLASH_IRQHandler>

00001b1a <RCC_IRQHandler>:
RCC_IRQHandler():
C:/Users/Yaner/Desktop/camera/libraries/sdk/Startup/startup_ch32v30x.S:248
RCC_IRQHandler:  1:  j 1b
    1b1a:	a001                	j	1b1a <RCC_IRQHandler>
C:/Users/Yaner/Desktop/camera/libraries/sdk/Startup/startup_ch32v30x.S:249
EXTI0_IRQHandler:  1:  j 1b
    1b1c:	a001                	j	1b1c <RCC_IRQHandler+0x2>
C:/Users/Yaner/Desktop/camera/libraries/sdk/Startup/startup_ch32v30x.S:250
EXTI1_IRQHandler:  1:  j 1b
    1b1e:	a001                	j	1b1e <RCC_IRQHandler+0x4>
C:/Users/Yaner/Desktop/camera/libraries/sdk/Startup/startup_ch32v30x.S:251
EXTI2_IRQHandler:  1:  j 1b
    1b20:	a001                	j	1b20 <RCC_IRQHandler+0x6>
C:/Users/Yaner/Desktop/camera/libraries/sdk/Startup/startup_ch32v30x.S:252
EXTI3_IRQHandler:  1:  j 1b
    1b22:	a001                	j	1b22 <RCC_IRQHandler+0x8>
C:/Users/Yaner/Desktop/camera/libraries/sdk/Startup/startup_ch32v30x.S:253
EXTI4_IRQHandler:  1:  j 1b
    1b24:	a001                	j	1b24 <RCC_IRQHandler+0xa>

00001b26 <DMA1_Channel1_IRQHandler>:
DMA1_Channel1_IRQHandler():
C:/Users/Yaner/Desktop/camera/libraries/sdk/Startup/startup_ch32v30x.S:254
DMA1_Channel1_IRQHandler:  1:  j 1b
    1b26:	a001                	j	1b26 <DMA1_Channel1_IRQHandler>

00001b28 <DMA1_Channel2_IRQHandler>:
DMA1_Channel2_IRQHandler():
C:/Users/Yaner/Desktop/camera/libraries/sdk/Startup/startup_ch32v30x.S:255
DMA1_Channel2_IRQHandler:  1:  j 1b
    1b28:	a001                	j	1b28 <DMA1_Channel2_IRQHandler>

00001b2a <DMA1_Channel3_IRQHandler>:
DMA1_Channel3_IRQHandler():
C:/Users/Yaner/Desktop/camera/libraries/sdk/Startup/startup_ch32v30x.S:256
DMA1_Channel3_IRQHandler:  1:  j 1b
    1b2a:	a001                	j	1b2a <DMA1_Channel3_IRQHandler>

00001b2c <DMA1_Channel4_IRQHandler>:
DMA1_Channel4_IRQHandler():
C:/Users/Yaner/Desktop/camera/libraries/sdk/Startup/startup_ch32v30x.S:257
DMA1_Channel4_IRQHandler:  1:  j 1b
    1b2c:	a001                	j	1b2c <DMA1_Channel4_IRQHandler>

00001b2e <DMA1_Channel5_IRQHandler>:
DMA1_Channel5_IRQHandler():
C:/Users/Yaner/Desktop/camera/libraries/sdk/Startup/startup_ch32v30x.S:258
DMA1_Channel5_IRQHandler:  1:  j 1b
    1b2e:	a001                	j	1b2e <DMA1_Channel5_IRQHandler>

00001b30 <DMA1_Channel6_IRQHandler>:
DMA1_Channel6_IRQHandler():
C:/Users/Yaner/Desktop/camera/libraries/sdk/Startup/startup_ch32v30x.S:259
DMA1_Channel6_IRQHandler:  1:  j 1b
    1b30:	a001                	j	1b30 <DMA1_Channel6_IRQHandler>

00001b32 <DMA1_Channel7_IRQHandler>:
DMA1_Channel7_IRQHandler():
C:/Users/Yaner/Desktop/camera/libraries/sdk/Startup/startup_ch32v30x.S:260
DMA1_Channel7_IRQHandler:  1:  j 1b
    1b32:	a001                	j	1b32 <DMA1_Channel7_IRQHandler>

00001b34 <ADC1_2_IRQHandler>:
ADC1_2_IRQHandler():
C:/Users/Yaner/Desktop/camera/libraries/sdk/Startup/startup_ch32v30x.S:261
ADC1_2_IRQHandler:  1:  j 1b
    1b34:	a001                	j	1b34 <ADC1_2_IRQHandler>

00001b36 <USB_HP_CAN1_TX_IRQHandler>:
USB_HP_CAN1_TX_IRQHandler():
C:/Users/Yaner/Desktop/camera/libraries/sdk/Startup/startup_ch32v30x.S:262
USB_HP_CAN1_TX_IRQHandler:  1:  j 1b
    1b36:	a001                	j	1b36 <USB_HP_CAN1_TX_IRQHandler>

00001b38 <USB_LP_CAN1_RX0_IRQHandler>:
USB_LP_CAN1_RX0_IRQHandler():
C:/Users/Yaner/Desktop/camera/libraries/sdk/Startup/startup_ch32v30x.S:263
USB_LP_CAN1_RX0_IRQHandler:  1:  j 1b
    1b38:	a001                	j	1b38 <USB_LP_CAN1_RX0_IRQHandler>

00001b3a <CAN1_RX1_IRQHandler>:
CAN1_RX1_IRQHandler():
C:/Users/Yaner/Desktop/camera/libraries/sdk/Startup/startup_ch32v30x.S:264
CAN1_RX1_IRQHandler:  1:  j 1b
    1b3a:	a001                	j	1b3a <CAN1_RX1_IRQHandler>

00001b3c <CAN1_SCE_IRQHandler>:
CAN1_SCE_IRQHandler():
C:/Users/Yaner/Desktop/camera/libraries/sdk/Startup/startup_ch32v30x.S:265
CAN1_SCE_IRQHandler:  1:  j 1b
    1b3c:	a001                	j	1b3c <CAN1_SCE_IRQHandler>
C:/Users/Yaner/Desktop/camera/libraries/sdk/Startup/startup_ch32v30x.S:266
EXTI9_5_IRQHandler:  1:  j 1b
    1b3e:	a001                	j	1b3e <CAN1_SCE_IRQHandler+0x2>

00001b40 <TIM1_BRK_IRQHandler>:
TIM1_BRK_IRQHandler():
C:/Users/Yaner/Desktop/camera/libraries/sdk/Startup/startup_ch32v30x.S:267
TIM1_BRK_IRQHandler:  1:  j 1b
    1b40:	a001                	j	1b40 <TIM1_BRK_IRQHandler>
C:/Users/Yaner/Desktop/camera/libraries/sdk/Startup/startup_ch32v30x.S:268
TIM1_UP_IRQHandler:  1:  j 1b
    1b42:	a001                	j	1b42 <TIM1_BRK_IRQHandler+0x2>

00001b44 <TIM1_TRG_COM_IRQHandler>:
TIM1_TRG_COM_IRQHandler():
C:/Users/Yaner/Desktop/camera/libraries/sdk/Startup/startup_ch32v30x.S:269
TIM1_TRG_COM_IRQHandler:  1:  j 1b
    1b44:	a001                	j	1b44 <TIM1_TRG_COM_IRQHandler>

00001b46 <TIM1_CC_IRQHandler>:
TIM1_CC_IRQHandler():
C:/Users/Yaner/Desktop/camera/libraries/sdk/Startup/startup_ch32v30x.S:270
TIM1_CC_IRQHandler:  1:  j 1b
    1b46:	a001                	j	1b46 <TIM1_CC_IRQHandler>
C:/Users/Yaner/Desktop/camera/libraries/sdk/Startup/startup_ch32v30x.S:271
TIM2_IRQHandler:  1:  j 1b
    1b48:	a001                	j	1b48 <TIM1_CC_IRQHandler+0x2>
C:/Users/Yaner/Desktop/camera/libraries/sdk/Startup/startup_ch32v30x.S:272
TIM3_IRQHandler:  1:  j 1b
    1b4a:	a001                	j	1b4a <TIM1_CC_IRQHandler+0x4>
C:/Users/Yaner/Desktop/camera/libraries/sdk/Startup/startup_ch32v30x.S:273
TIM4_IRQHandler:  1:  j 1b
    1b4c:	a001                	j	1b4c <TIM1_CC_IRQHandler+0x6>

00001b4e <I2C1_EV_IRQHandler>:
I2C1_EV_IRQHandler():
C:/Users/Yaner/Desktop/camera/libraries/sdk/Startup/startup_ch32v30x.S:274
I2C1_EV_IRQHandler:  1:  j 1b
    1b4e:	a001                	j	1b4e <I2C1_EV_IRQHandler>

00001b50 <I2C1_ER_IRQHandler>:
I2C1_ER_IRQHandler():
C:/Users/Yaner/Desktop/camera/libraries/sdk/Startup/startup_ch32v30x.S:275
I2C1_ER_IRQHandler:  1:  j 1b
    1b50:	a001                	j	1b50 <I2C1_ER_IRQHandler>

00001b52 <I2C2_EV_IRQHandler>:
I2C2_EV_IRQHandler():
C:/Users/Yaner/Desktop/camera/libraries/sdk/Startup/startup_ch32v30x.S:276
I2C2_EV_IRQHandler:  1:  j 1b
    1b52:	a001                	j	1b52 <I2C2_EV_IRQHandler>

00001b54 <I2C2_ER_IRQHandler>:
I2C2_ER_IRQHandler():
C:/Users/Yaner/Desktop/camera/libraries/sdk/Startup/startup_ch32v30x.S:277
I2C2_ER_IRQHandler:  1:  j 1b
    1b54:	a001                	j	1b54 <I2C2_ER_IRQHandler>

00001b56 <SPI1_IRQHandler>:
SPI1_IRQHandler():
C:/Users/Yaner/Desktop/camera/libraries/sdk/Startup/startup_ch32v30x.S:278
SPI1_IRQHandler:  1:  j 1b
    1b56:	a001                	j	1b56 <SPI1_IRQHandler>

00001b58 <SPI2_IRQHandler>:
SPI2_IRQHandler():
C:/Users/Yaner/Desktop/camera/libraries/sdk/Startup/startup_ch32v30x.S:279
SPI2_IRQHandler:  1:  j 1b
    1b58:	a001                	j	1b58 <SPI2_IRQHandler>
C:/Users/Yaner/Desktop/camera/libraries/sdk/Startup/startup_ch32v30x.S:280
USART1_IRQHandler:  1:  j 1b
    1b5a:	a001                	j	1b5a <SPI2_IRQHandler+0x2>
C:/Users/Yaner/Desktop/camera/libraries/sdk/Startup/startup_ch32v30x.S:281
USART2_IRQHandler:  1:  j 1b
    1b5c:	a001                	j	1b5c <SPI2_IRQHandler+0x4>
C:/Users/Yaner/Desktop/camera/libraries/sdk/Startup/startup_ch32v30x.S:282
USART3_IRQHandler:  1:  j 1b
    1b5e:	a001                	j	1b5e <SPI2_IRQHandler+0x6>
C:/Users/Yaner/Desktop/camera/libraries/sdk/Startup/startup_ch32v30x.S:283
EXTI15_10_IRQHandler:  1:  j 1b
    1b60:	a001                	j	1b60 <SPI2_IRQHandler+0x8>

00001b62 <RTCAlarm_IRQHandler>:
RTCAlarm_IRQHandler():
C:/Users/Yaner/Desktop/camera/libraries/sdk/Startup/startup_ch32v30x.S:284
RTCAlarm_IRQHandler:  1:  j 1b
    1b62:	a001                	j	1b62 <RTCAlarm_IRQHandler>

00001b64 <USBWakeUp_IRQHandler>:
USBWakeUp_IRQHandler():
C:/Users/Yaner/Desktop/camera/libraries/sdk/Startup/startup_ch32v30x.S:285
USBWakeUp_IRQHandler:  1:  j 1b
    1b64:	a001                	j	1b64 <USBWakeUp_IRQHandler>

00001b66 <TIM8_BRK_IRQHandler>:
TIM8_BRK_IRQHandler():
C:/Users/Yaner/Desktop/camera/libraries/sdk/Startup/startup_ch32v30x.S:286
TIM8_BRK_IRQHandler:  1:  j 1b
    1b66:	a001                	j	1b66 <TIM8_BRK_IRQHandler>
C:/Users/Yaner/Desktop/camera/libraries/sdk/Startup/startup_ch32v30x.S:287
TIM8_UP_IRQHandler:  1:  j 1b
    1b68:	a001                	j	1b68 <TIM8_BRK_IRQHandler+0x2>

00001b6a <TIM8_TRG_COM_IRQHandler>:
TIM8_TRG_COM_IRQHandler():
C:/Users/Yaner/Desktop/camera/libraries/sdk/Startup/startup_ch32v30x.S:288
TIM8_TRG_COM_IRQHandler:  1:  j 1b
    1b6a:	a001                	j	1b6a <TIM8_TRG_COM_IRQHandler>

00001b6c <TIM8_CC_IRQHandler>:
TIM8_CC_IRQHandler():
C:/Users/Yaner/Desktop/camera/libraries/sdk/Startup/startup_ch32v30x.S:289
TIM8_CC_IRQHandler:  1:  j 1b
    1b6c:	a001                	j	1b6c <TIM8_CC_IRQHandler>

00001b6e <RNG_IRQHandler>:
RNG_IRQHandler():
C:/Users/Yaner/Desktop/camera/libraries/sdk/Startup/startup_ch32v30x.S:290
RNG_IRQHandler:  1:  j 1b
    1b6e:	a001                	j	1b6e <RNG_IRQHandler>

00001b70 <FSMC_IRQHandler>:
FSMC_IRQHandler():
C:/Users/Yaner/Desktop/camera/libraries/sdk/Startup/startup_ch32v30x.S:291
FSMC_IRQHandler:  1:  j 1b
    1b70:	a001                	j	1b70 <FSMC_IRQHandler>

00001b72 <SDIO_IRQHandler>:
SDIO_IRQHandler():
C:/Users/Yaner/Desktop/camera/libraries/sdk/Startup/startup_ch32v30x.S:292
SDIO_IRQHandler:  1:  j 1b
    1b72:	a001                	j	1b72 <SDIO_IRQHandler>
C:/Users/Yaner/Desktop/camera/libraries/sdk/Startup/startup_ch32v30x.S:293
TIM5_IRQHandler:  1:  j 1b
    1b74:	a001                	j	1b74 <SDIO_IRQHandler+0x2>

00001b76 <SPI3_IRQHandler>:
SPI3_IRQHandler():
C:/Users/Yaner/Desktop/camera/libraries/sdk/Startup/startup_ch32v30x.S:294
SPI3_IRQHandler:  1:  j 1b
    1b76:	a001                	j	1b76 <SPI3_IRQHandler>
C:/Users/Yaner/Desktop/camera/libraries/sdk/Startup/startup_ch32v30x.S:295
UART4_IRQHandler:  1:  j 1b
    1b78:	a001                	j	1b78 <SPI3_IRQHandler+0x2>
C:/Users/Yaner/Desktop/camera/libraries/sdk/Startup/startup_ch32v30x.S:296
UART5_IRQHandler:  1:  j 1b
    1b7a:	a001                	j	1b7a <SPI3_IRQHandler+0x4>
C:/Users/Yaner/Desktop/camera/libraries/sdk/Startup/startup_ch32v30x.S:297
TIM6_IRQHandler:  1:  j 1b
    1b7c:	a001                	j	1b7c <SPI3_IRQHandler+0x6>
C:/Users/Yaner/Desktop/camera/libraries/sdk/Startup/startup_ch32v30x.S:298
TIM7_IRQHandler:  1:  j 1b
    1b7e:	a001                	j	1b7e <SPI3_IRQHandler+0x8>

00001b80 <DMA2_Channel1_IRQHandler>:
DMA2_Channel1_IRQHandler():
C:/Users/Yaner/Desktop/camera/libraries/sdk/Startup/startup_ch32v30x.S:299
DMA2_Channel1_IRQHandler:  1:  j 1b
    1b80:	a001                	j	1b80 <DMA2_Channel1_IRQHandler>

00001b82 <DMA2_Channel2_IRQHandler>:
DMA2_Channel2_IRQHandler():
C:/Users/Yaner/Desktop/camera/libraries/sdk/Startup/startup_ch32v30x.S:300
DMA2_Channel2_IRQHandler:  1:  j 1b
    1b82:	a001                	j	1b82 <DMA2_Channel2_IRQHandler>

00001b84 <DMA2_Channel3_IRQHandler>:
DMA2_Channel3_IRQHandler():
C:/Users/Yaner/Desktop/camera/libraries/sdk/Startup/startup_ch32v30x.S:301
DMA2_Channel3_IRQHandler:  1:  j 1b
    1b84:	a001                	j	1b84 <DMA2_Channel3_IRQHandler>

00001b86 <DMA2_Channel4_IRQHandler>:
DMA2_Channel4_IRQHandler():
C:/Users/Yaner/Desktop/camera/libraries/sdk/Startup/startup_ch32v30x.S:302
DMA2_Channel4_IRQHandler:  1:  j 1b
    1b86:	a001                	j	1b86 <DMA2_Channel4_IRQHandler>

00001b88 <DMA2_Channel5_IRQHandler>:
DMA2_Channel5_IRQHandler():
C:/Users/Yaner/Desktop/camera/libraries/sdk/Startup/startup_ch32v30x.S:303
DMA2_Channel5_IRQHandler:  1:  j 1b
    1b88:	a001                	j	1b88 <DMA2_Channel5_IRQHandler>

00001b8a <ETH_IRQHandler>:
ETH_IRQHandler():
C:/Users/Yaner/Desktop/camera/libraries/sdk/Startup/startup_ch32v30x.S:304
ETH_IRQHandler:  1:  j 1b
    1b8a:	a001                	j	1b8a <ETH_IRQHandler>

00001b8c <ETH_WKUP_IRQHandler>:
ETH_WKUP_IRQHandler():
C:/Users/Yaner/Desktop/camera/libraries/sdk/Startup/startup_ch32v30x.S:305
ETH_WKUP_IRQHandler:  1:  j 1b
    1b8c:	a001                	j	1b8c <ETH_WKUP_IRQHandler>

00001b8e <CAN2_TX_IRQHandler>:
CAN2_TX_IRQHandler():
C:/Users/Yaner/Desktop/camera/libraries/sdk/Startup/startup_ch32v30x.S:306
CAN2_TX_IRQHandler:  1:  j 1b
    1b8e:	a001                	j	1b8e <CAN2_TX_IRQHandler>

00001b90 <CAN2_RX0_IRQHandler>:
CAN2_RX0_IRQHandler():
C:/Users/Yaner/Desktop/camera/libraries/sdk/Startup/startup_ch32v30x.S:307
CAN2_RX0_IRQHandler:  1:  j 1b
    1b90:	a001                	j	1b90 <CAN2_RX0_IRQHandler>

00001b92 <CAN2_RX1_IRQHandler>:
CAN2_RX1_IRQHandler():
C:/Users/Yaner/Desktop/camera/libraries/sdk/Startup/startup_ch32v30x.S:308
CAN2_RX1_IRQHandler:  1:  j 1b
    1b92:	a001                	j	1b92 <CAN2_RX1_IRQHandler>

00001b94 <CAN2_SCE_IRQHandler>:
CAN2_SCE_IRQHandler():
C:/Users/Yaner/Desktop/camera/libraries/sdk/Startup/startup_ch32v30x.S:309
CAN2_SCE_IRQHandler:  1:  j 1b
    1b94:	a001                	j	1b94 <CAN2_SCE_IRQHandler>
C:/Users/Yaner/Desktop/camera/libraries/sdk/Startup/startup_ch32v30x.S:310
OTG_FS_IRQHandler:  1:  j 1b
    1b96:	a001                	j	1b96 <CAN2_SCE_IRQHandler+0x2>

00001b98 <USBHSWakeup_IRQHandler>:
USBHSWakeup_IRQHandler():
C:/Users/Yaner/Desktop/camera/libraries/sdk/Startup/startup_ch32v30x.S:311
USBHSWakeup_IRQHandler:  1:  j 1b
    1b98:	a001                	j	1b98 <USBHSWakeup_IRQHandler>

00001b9a <USBHS_IRQHandler>:
USBHS_IRQHandler():
C:/Users/Yaner/Desktop/camera/libraries/sdk/Startup/startup_ch32v30x.S:312
USBHS_IRQHandler:  1:  j 1b
    1b9a:	a001                	j	1b9a <USBHS_IRQHandler>
C:/Users/Yaner/Desktop/camera/libraries/sdk/Startup/startup_ch32v30x.S:313
DVP_IRQHandler:  1:  j 1b
    1b9c:	a001                	j	1b9c <USBHS_IRQHandler+0x2>
C:/Users/Yaner/Desktop/camera/libraries/sdk/Startup/startup_ch32v30x.S:314
UART6_IRQHandler:  1:  j 1b
    1b9e:	a001                	j	1b9e <USBHS_IRQHandler+0x4>
C:/Users/Yaner/Desktop/camera/libraries/sdk/Startup/startup_ch32v30x.S:315
UART7_IRQHandler:  1:  j 1b
    1ba0:	a001                	j	1ba0 <USBHS_IRQHandler+0x6>
C:/Users/Yaner/Desktop/camera/libraries/sdk/Startup/startup_ch32v30x.S:316
UART8_IRQHandler:  1:  j 1b
    1ba2:	a001                	j	1ba2 <USBHS_IRQHandler+0x8>

00001ba4 <TIM9_BRK_IRQHandler>:
TIM9_BRK_IRQHandler():
C:/Users/Yaner/Desktop/camera/libraries/sdk/Startup/startup_ch32v30x.S:317
TIM9_BRK_IRQHandler:  1:  j 1b
    1ba4:	a001                	j	1ba4 <TIM9_BRK_IRQHandler>
C:/Users/Yaner/Desktop/camera/libraries/sdk/Startup/startup_ch32v30x.S:318
TIM9_UP_IRQHandler:  1:  j 1b
    1ba6:	a001                	j	1ba6 <TIM9_BRK_IRQHandler+0x2>

00001ba8 <TIM9_TRG_COM_IRQHandler>:
TIM9_TRG_COM_IRQHandler():
C:/Users/Yaner/Desktop/camera/libraries/sdk/Startup/startup_ch32v30x.S:319
TIM9_TRG_COM_IRQHandler:  1:  j 1b
    1ba8:	a001                	j	1ba8 <TIM9_TRG_COM_IRQHandler>

00001baa <TIM9_CC_IRQHandler>:
TIM9_CC_IRQHandler():
C:/Users/Yaner/Desktop/camera/libraries/sdk/Startup/startup_ch32v30x.S:320
TIM9_CC_IRQHandler:  1:  j 1b
    1baa:	a001                	j	1baa <TIM9_CC_IRQHandler>

00001bac <TIM10_BRK_IRQHandler>:
TIM10_BRK_IRQHandler():
C:/Users/Yaner/Desktop/camera/libraries/sdk/Startup/startup_ch32v30x.S:321
TIM10_BRK_IRQHandler:  1:  j 1b
    1bac:	a001                	j	1bac <TIM10_BRK_IRQHandler>
C:/Users/Yaner/Desktop/camera/libraries/sdk/Startup/startup_ch32v30x.S:322
TIM10_UP_IRQHandler:  1:  j 1b
    1bae:	a001                	j	1bae <TIM10_BRK_IRQHandler+0x2>

00001bb0 <TIM10_TRG_COM_IRQHandler>:
TIM10_TRG_COM_IRQHandler():
C:/Users/Yaner/Desktop/camera/libraries/sdk/Startup/startup_ch32v30x.S:323
TIM10_TRG_COM_IRQHandler:  1:  j 1b
    1bb0:	a001                	j	1bb0 <TIM10_TRG_COM_IRQHandler>

00001bb2 <TIM10_CC_IRQHandler>:
TIM10_CC_IRQHandler():
C:/Users/Yaner/Desktop/camera/libraries/sdk/Startup/startup_ch32v30x.S:324
TIM10_CC_IRQHandler:  1:  j 1b
    1bb2:	a001                	j	1bb2 <TIM10_CC_IRQHandler>

00001bb4 <DMA2_Channel6_IRQHandler>:
DMA2_Channel6_IRQHandler():
C:/Users/Yaner/Desktop/camera/libraries/sdk/Startup/startup_ch32v30x.S:325
DMA2_Channel6_IRQHandler:  1:  j 1b
    1bb4:	a001                	j	1bb4 <DMA2_Channel6_IRQHandler>

00001bb6 <DMA2_Channel7_IRQHandler>:
DMA2_Channel7_IRQHandler():
C:/Users/Yaner/Desktop/camera/libraries/sdk/Startup/startup_ch32v30x.S:326
DMA2_Channel7_IRQHandler:  1:  j 1b
    1bb6:	a001                	j	1bb6 <DMA2_Channel7_IRQHandler>

00001bb8 <DMA2_Channel8_IRQHandler>:
DMA2_Channel8_IRQHandler():
C:/Users/Yaner/Desktop/camera/libraries/sdk/Startup/startup_ch32v30x.S:327
DMA2_Channel8_IRQHandler:  1:  j 1b
    1bb8:	a001                	j	1bb8 <DMA2_Channel8_IRQHandler>

00001bba <DMA2_Channel9_IRQHandler>:
DMA2_Channel9_IRQHandler():
C:/Users/Yaner/Desktop/camera/libraries/sdk/Startup/startup_ch32v30x.S:328
DMA2_Channel9_IRQHandler:  1:  j 1b
    1bba:	a001                	j	1bba <DMA2_Channel9_IRQHandler>

00001bbc <DMA2_Channel10_IRQHandler>:
DMA2_Channel10_IRQHandler():
C:/Users/Yaner/Desktop/camera/libraries/sdk/Startup/startup_ch32v30x.S:329
DMA2_Channel10_IRQHandler:  1:  j 1b
    1bbc:	a001                	j	1bbc <DMA2_Channel10_IRQHandler>

00001bbe <DMA2_Channel11_IRQHandler>:
DMA2_Channel11_IRQHandler():
C:/Users/Yaner/Desktop/camera/libraries/sdk/Startup/startup_ch32v30x.S:330
DMA2_Channel11_IRQHandler:  1:  j 1b
    1bbe:	a001                	j	1bbe <DMA2_Channel11_IRQHandler>

00001bc0 <handle_reset>:
handle_reset():
C:/Users/Yaner/Desktop/camera/libraries/sdk/Startup/startup_ch32v30x.S:339
	.weak	handle_reset
	.align	1
handle_reset:
.option push 
.option	norelax 
    csrw mepc, t0
    1bc0:	34129073          	csrw	mepc,t0
C:/Users/Yaner/Desktop/camera/libraries/sdk/Startup/startup_ch32v30x.S:340
	la gp, __global_pointer$
    1bc4:	1ffff197          	auipc	gp,0x1ffff
    1bc8:	d3418193          	addi	gp,gp,-716 # 200008f8 <__global_pointer$>
C:/Users/Yaner/Desktop/camera/libraries/sdk/Startup/startup_ch32v30x.S:343
.option	pop 
1:
	la sp, _eusrstack 
    1bcc:	2000e117          	auipc	sp,0x2000e
    1bd0:	43410113          	addi	sp,sp,1076 # 20010000 <_eusrstack>
C:/Users/Yaner/Desktop/camera/libraries/sdk/Startup/startup_ch32v30x.S:346
2:
	/* Load data section from flash to RAM */
	la a0, _data_lma
    1bd4:	00003517          	auipc	a0,0x3
    1bd8:	41c50513          	addi	a0,a0,1052 # 4ff0 <_data_lma>
C:/Users/Yaner/Desktop/camera/libraries/sdk/Startup/startup_ch32v30x.S:347
	la a1, _data_vma
    1bdc:	1fffe597          	auipc	a1,0x1fffe
    1be0:	42458593          	addi	a1,a1,1060 # 20000000 <_data_vma>
C:/Users/Yaner/Desktop/camera/libraries/sdk/Startup/startup_ch32v30x.S:348
	la a2, _edata
    1be4:	82818613          	addi	a2,gp,-2008 # 20000120 <_edata>
C:/Users/Yaner/Desktop/camera/libraries/sdk/Startup/startup_ch32v30x.S:349
	bgeu a1, a2, 2f
    1be8:	00c5fa63          	bgeu	a1,a2,1bfc <handle_reset+0x3c>
C:/Users/Yaner/Desktop/camera/libraries/sdk/Startup/startup_ch32v30x.S:351
1:
	lw t0, (a0)
    1bec:	00052283          	lw	t0,0(a0)
C:/Users/Yaner/Desktop/camera/libraries/sdk/Startup/startup_ch32v30x.S:352
	sw t0, (a1)
    1bf0:	0055a023          	sw	t0,0(a1)
C:/Users/Yaner/Desktop/camera/libraries/sdk/Startup/startup_ch32v30x.S:353
	addi a0, a0, 4
    1bf4:	0511                	addi	a0,a0,4
C:/Users/Yaner/Desktop/camera/libraries/sdk/Startup/startup_ch32v30x.S:354
	addi a1, a1, 4
    1bf6:	0591                	addi	a1,a1,4
C:/Users/Yaner/Desktop/camera/libraries/sdk/Startup/startup_ch32v30x.S:355
	bltu a1, a2, 1b
    1bf8:	fec5eae3          	bltu	a1,a2,1bec <handle_reset+0x2c>
C:/Users/Yaner/Desktop/camera/libraries/sdk/Startup/startup_ch32v30x.S:358
2:
	/* Clear bss section */
	la a0, _sbss
    1bfc:	82818513          	addi	a0,gp,-2008 # 20000120 <_edata>
C:/Users/Yaner/Desktop/camera/libraries/sdk/Startup/startup_ch32v30x.S:359
	la a1, _ebss
    1c00:	8ac18593          	addi	a1,gp,-1876 # 200001a4 <_ebss>
C:/Users/Yaner/Desktop/camera/libraries/sdk/Startup/startup_ch32v30x.S:360
	bgeu a0, a1, 2f
    1c04:	00b57763          	bgeu	a0,a1,1c12 <handle_reset+0x52>
C:/Users/Yaner/Desktop/camera/libraries/sdk/Startup/startup_ch32v30x.S:362
1:
	sw zero, (a0)
    1c08:	00052023          	sw	zero,0(a0)
C:/Users/Yaner/Desktop/camera/libraries/sdk/Startup/startup_ch32v30x.S:363
	addi a0, a0, 4
    1c0c:	0511                	addi	a0,a0,4
C:/Users/Yaner/Desktop/camera/libraries/sdk/Startup/startup_ch32v30x.S:364
	bltu a0, a1, 1b
    1c0e:	feb56de3          	bltu	a0,a1,1c08 <handle_reset+0x48>
C:/Users/Yaner/Desktop/camera/libraries/sdk/Startup/startup_ch32v30x.S:366
2:
    li t0, 0x1f
    1c12:	42fd                	li	t0,31
C:/Users/Yaner/Desktop/camera/libraries/sdk/Startup/startup_ch32v30x.S:367
    csrw 0xbc0, t0
    1c14:	bc029073          	csrw	0xbc0,t0
C:/Users/Yaner/Desktop/camera/libraries/sdk/Startup/startup_ch32v30x.S:370

    /* Enable nested and hardware stack */
	li t0, 0x1f
    1c18:	42fd                	li	t0,31
C:/Users/Yaner/Desktop/camera/libraries/sdk/Startup/startup_ch32v30x.S:371
	csrw 0x804, t0
    1c1a:	80429073          	csrw	0x804,t0
C:/Users/Yaner/Desktop/camera/libraries/sdk/Startup/startup_ch32v30x.S:375

    /* Enable floating point and interrupt */

   	li t0, 0x7888
    1c1e:	000082b7          	lui	t0,0x8
    1c22:	88828293          	addi	t0,t0,-1912 # 7888 <_data_lma+0x2898>
C:/Users/Yaner/Desktop/camera/libraries/sdk/Startup/startup_ch32v30x.S:376
   	csrs mstatus, t0
    1c26:	3002a073          	csrs	mstatus,t0
C:/Users/Yaner/Desktop/camera/libraries/sdk/Startup/startup_ch32v30x.S:378

 	la t0, _vector_base
    1c2a:	ffffe297          	auipc	t0,0xffffe
    1c2e:	40e28293          	addi	t0,t0,1038 # 38 <_einit>
C:/Users/Yaner/Desktop/camera/libraries/sdk/Startup/startup_ch32v30x.S:379
    ori t0, t0, 3           
    1c32:	0032e293          	ori	t0,t0,3
C:/Users/Yaner/Desktop/camera/libraries/sdk/Startup/startup_ch32v30x.S:380
	csrw mtvec, t0
    1c36:	30529073          	csrw	mtvec,t0
C:/Users/Yaner/Desktop/camera/libraries/sdk/Startup/startup_ch32v30x.S:382

    jal  SystemInit
    1c3a:	014000ef          	jal	ra,1c4e <SystemInit>
C:/Users/Yaner/Desktop/camera/libraries/sdk/Startup/startup_ch32v30x.S:383
	la t0, main
    1c3e:	00000297          	auipc	t0,0x0
    1c42:	db628293          	addi	t0,t0,-586 # 19f4 <main>
C:/Users/Yaner/Desktop/camera/libraries/sdk/Startup/startup_ch32v30x.S:384
	csrw mepc, t0
    1c46:	34129073          	csrw	mepc,t0
C:/Users/Yaner/Desktop/camera/libraries/sdk/Startup/startup_ch32v30x.S:385
	mret
    1c4a:	30200073          	mret

00001c4e <SystemInit>:
SystemInit():
C:/Users/Yaner/Desktop/camera/libraries/sdk/Startup/system_ch32v30x.c:83
*                  the PLL and update the SystemCoreClock variable.
* Input          : None
* Return         : None
*******************************************************************************************/
void SystemInit (void)
{
    1c4e:	1141                	addi	sp,sp,-16
    1c50:	c606                	sw	ra,12(sp)
    1c52:	c422                	sw	s0,8(sp)
    1c54:	0800                	addi	s0,sp,16
C:/Users/Yaner/Desktop/camera/libraries/sdk/Startup/system_ch32v30x.c:84
  RCC->CTLR |= (uint32_t)0x00000001;
    1c56:	400217b7          	lui	a5,0x40021
    1c5a:	4398                	lw	a4,0(a5)
    1c5c:	400217b7          	lui	a5,0x40021
    1c60:	00176713          	ori	a4,a4,1
    1c64:	c398                	sw	a4,0(a5)
C:/Users/Yaner/Desktop/camera/libraries/sdk/Startup/system_ch32v30x.c:85
  RCC->CFGR0 &= (uint32_t)0xF8FF0000;
    1c66:	400217b7          	lui	a5,0x40021
    1c6a:	43d4                	lw	a3,4(a5)
    1c6c:	400217b7          	lui	a5,0x40021
    1c70:	f8ff0737          	lui	a4,0xf8ff0
    1c74:	8f75                	and	a4,a4,a3
    1c76:	c3d8                	sw	a4,4(a5)
C:/Users/Yaner/Desktop/camera/libraries/sdk/Startup/system_ch32v30x.c:86
  RCC->CTLR &= (uint32_t)0xFEF6FFFF;
    1c78:	400217b7          	lui	a5,0x40021
    1c7c:	4394                	lw	a3,0(a5)
    1c7e:	400217b7          	lui	a5,0x40021
    1c82:	fef70737          	lui	a4,0xfef70
    1c86:	177d                	addi	a4,a4,-1
    1c88:	8f75                	and	a4,a4,a3
    1c8a:	c398                	sw	a4,0(a5)
C:/Users/Yaner/Desktop/camera/libraries/sdk/Startup/system_ch32v30x.c:87
  RCC->CTLR &= (uint32_t)0xFFFBFFFF;
    1c8c:	400217b7          	lui	a5,0x40021
    1c90:	4394                	lw	a3,0(a5)
    1c92:	400217b7          	lui	a5,0x40021
    1c96:	fffc0737          	lui	a4,0xfffc0
    1c9a:	177d                	addi	a4,a4,-1
    1c9c:	8f75                	and	a4,a4,a3
    1c9e:	c398                	sw	a4,0(a5)
C:/Users/Yaner/Desktop/camera/libraries/sdk/Startup/system_ch32v30x.c:88
  RCC->CFGR0 &= (uint32_t)0xFF80FFFF;
    1ca0:	400217b7          	lui	a5,0x40021
    1ca4:	43d4                	lw	a3,4(a5)
    1ca6:	400217b7          	lui	a5,0x40021
    1caa:	ff810737          	lui	a4,0xff810
    1cae:	177d                	addi	a4,a4,-1
    1cb0:	8f75                	and	a4,a4,a3
    1cb2:	c3d8                	sw	a4,4(a5)
C:/Users/Yaner/Desktop/camera/libraries/sdk/Startup/system_ch32v30x.c:89
  RCC->INTR = 0x009F0000;    
    1cb4:	400217b7          	lui	a5,0x40021
    1cb8:	009f0737          	lui	a4,0x9f0
    1cbc:	c798                	sw	a4,8(a5)
C:/Users/Yaner/Desktop/camera/libraries/sdk/Startup/system_ch32v30x.c:90
  SetSysClock();
    1cbe:	2031                	jal	1cca <SetSysClock>
C:/Users/Yaner/Desktop/camera/libraries/sdk/Startup/system_ch32v30x.c:91
}
    1cc0:	0001                	nop
    1cc2:	40b2                	lw	ra,12(sp)
    1cc4:	4422                	lw	s0,8(sp)
    1cc6:	0141                	addi	sp,sp,16
    1cc8:	8082                	ret

00001cca <SetSysClock>:
SetSysClock():
C:/Users/Yaner/Desktop/camera/libraries/sdk/Startup/system_ch32v30x.c:168
* Description    : Configures the System clock frequency, HCLK, PCLK2 and PCLK1 prescalers. 
* Input          : None
* Return         : None
*******************************************************************************************/
static void SetSysClock(void)
{
    1cca:	1141                	addi	sp,sp,-16
    1ccc:	c606                	sw	ra,12(sp)
    1cce:	c422                	sw	s0,8(sp)
    1cd0:	0800                	addi	s0,sp,16
C:/Users/Yaner/Desktop/camera/libraries/sdk/Startup/system_ch32v30x.c:185
#elif defined SYSCLK_FREQ_96MHz
  SetSysClockTo96();
#elif defined SYSCLK_FREQ_120MHz
  SetSysClockTo120();
#elif defined SYSCLK_FREQ_144MHz
  SetSysClockTo144();
    1cd2:	2031                	jal	1cde <SetSysClockTo144>
C:/Users/Yaner/Desktop/camera/libraries/sdk/Startup/system_ch32v30x.c:193
#endif
 
 /* If none of the define above is enabled, the HSI is used as System clock
  * source (default after reset) 
	*/ 
}
    1cd4:	0001                	nop
    1cd6:	40b2                	lw	ra,12(sp)
    1cd8:	4422                	lw	s0,8(sp)
    1cda:	0141                	addi	sp,sp,16
    1cdc:	8082                	ret

00001cde <SetSysClockTo144>:
SetSysClockTo144():
C:/Users/Yaner/Desktop/camera/libraries/sdk/Startup/system_ch32v30x.c:745
* Description    : Sets System clock frequency to 144MHz and configure HCLK, PCLK2 and PCLK1 prescalers.
* Input          : None
* Return         : None
*******************************************************************************************/
static void SetSysClockTo144(void)
{
    1cde:	1101                	addi	sp,sp,-32
    1ce0:	ce22                	sw	s0,28(sp)
    1ce2:	1000                	addi	s0,sp,32
C:/Users/Yaner/Desktop/camera/libraries/sdk/Startup/system_ch32v30x.c:746
  __IO uint32_t StartUpCounter = 0, HSEStatus = 0;
    1ce4:	fe042623          	sw	zero,-20(s0)
    1ce8:	fe042423          	sw	zero,-24(s0)
C:/Users/Yaner/Desktop/camera/libraries/sdk/Startup/system_ch32v30x.c:748

  RCC->CTLR |= ((uint32_t)RCC_HSEON);
    1cec:	400217b7          	lui	a5,0x40021
    1cf0:	4394                	lw	a3,0(a5)
    1cf2:	400217b7          	lui	a5,0x40021
    1cf6:	6741                	lui	a4,0x10
    1cf8:	8f55                	or	a4,a4,a3
    1cfa:	c398                	sw	a4,0(a5)
C:/Users/Yaner/Desktop/camera/libraries/sdk/Startup/system_ch32v30x.c:753 (discriminator 2)

  /* Wait till HSE is ready and if Time out is reached exit */
  do
  {
    HSEStatus = RCC->CTLR & RCC_HSERDY;
    1cfc:	400217b7          	lui	a5,0x40021
    1d00:	4398                	lw	a4,0(a5)
    1d02:	000207b7          	lui	a5,0x20
    1d06:	8ff9                	and	a5,a5,a4
    1d08:	fef42423          	sw	a5,-24(s0)
C:/Users/Yaner/Desktop/camera/libraries/sdk/Startup/system_ch32v30x.c:754 (discriminator 2)
    StartUpCounter++;
    1d0c:	fec42783          	lw	a5,-20(s0)
    1d10:	0785                	addi	a5,a5,1
    1d12:	fef42623          	sw	a5,-20(s0)
C:/Users/Yaner/Desktop/camera/libraries/sdk/Startup/system_ch32v30x.c:755 (discriminator 2)
  } while((HSEStatus == 0) && (StartUpCounter != HSE_STARTUP_TIMEOUT));
    1d16:	fe842783          	lw	a5,-24(s0)
    1d1a:	e799                	bnez	a5,1d28 <SetSysClockTo144+0x4a>
C:/Users/Yaner/Desktop/camera/libraries/sdk/Startup/system_ch32v30x.c:755 (discriminator 1)
    1d1c:	fec42703          	lw	a4,-20(s0)
    1d20:	50000793          	li	a5,1280
    1d24:	fcf71ce3          	bne	a4,a5,1cfc <SetSysClockTo144+0x1e>
C:/Users/Yaner/Desktop/camera/libraries/sdk/Startup/system_ch32v30x.c:757

  if ((RCC->CTLR & RCC_HSERDY) != RESET)
    1d28:	400217b7          	lui	a5,0x40021
    1d2c:	4398                	lw	a4,0(a5)
    1d2e:	000207b7          	lui	a5,0x20
    1d32:	8ff9                	and	a5,a5,a4
    1d34:	c789                	beqz	a5,1d3e <SetSysClockTo144+0x60>
C:/Users/Yaner/Desktop/camera/libraries/sdk/Startup/system_ch32v30x.c:759
  {
    HSEStatus = (uint32_t)0x01;
    1d36:	4785                	li	a5,1
    1d38:	fef42423          	sw	a5,-24(s0)
    1d3c:	a019                	j	1d42 <SetSysClockTo144+0x64>
C:/Users/Yaner/Desktop/camera/libraries/sdk/Startup/system_ch32v30x.c:763
  }
  else
  {
    HSEStatus = (uint32_t)0x00;
    1d3e:	fe042423          	sw	zero,-24(s0)
C:/Users/Yaner/Desktop/camera/libraries/sdk/Startup/system_ch32v30x.c:766
  }

  if (HSEStatus == (uint32_t)0x01)
    1d42:	fe842703          	lw	a4,-24(s0)
    1d46:	4785                	li	a5,1
    1d48:	0ef71863          	bne	a4,a5,1e38 <SetSysClockTo144+0x15a>
C:/Users/Yaner/Desktop/camera/libraries/sdk/Startup/system_ch32v30x.c:769
  {
    /* Enable Prefetch Buffer */
    FLASH->ACTLR |= FLASH_ACTLR_PRFTBE;
    1d4c:	400227b7          	lui	a5,0x40022
    1d50:	4398                	lw	a4,0(a5)
    1d52:	400227b7          	lui	a5,0x40022
    1d56:	01076713          	ori	a4,a4,16
    1d5a:	c398                	sw	a4,0(a5)
C:/Users/Yaner/Desktop/camera/libraries/sdk/Startup/system_ch32v30x.c:772

    /* Flash 2 wait state */
    FLASH->ACTLR &= (uint32_t)((uint32_t)~FLASH_ACTLR_LATENCY);
    1d5c:	400227b7          	lui	a5,0x40022
    1d60:	4398                	lw	a4,0(a5)
    1d62:	400227b7          	lui	a5,0x40022
    1d66:	9b71                	andi	a4,a4,-4
    1d68:	c398                	sw	a4,0(a5)
C:/Users/Yaner/Desktop/camera/libraries/sdk/Startup/system_ch32v30x.c:773
    FLASH->ACTLR |= (uint32_t)FLASH_ACTLR_LATENCY_2;
    1d6a:	400227b7          	lui	a5,0x40022
    1d6e:	4398                	lw	a4,0(a5)
    1d70:	400227b7          	lui	a5,0x40022
    1d74:	00276713          	ori	a4,a4,2
    1d78:	c398                	sw	a4,0(a5)
C:/Users/Yaner/Desktop/camera/libraries/sdk/Startup/system_ch32v30x.c:776

    /* HCLK = SYSCLK */
    RCC->CFGR0 |= (uint32_t)RCC_HPRE_DIV1;
    1d7a:	40021737          	lui	a4,0x40021
    1d7e:	400217b7          	lui	a5,0x40021
    1d82:	4358                	lw	a4,4(a4)
    1d84:	c3d8                	sw	a4,4(a5)
C:/Users/Yaner/Desktop/camera/libraries/sdk/Startup/system_ch32v30x.c:778
    /* PCLK2 = HCLK */
    RCC->CFGR0 |= (uint32_t)RCC_PPRE2_DIV1;
    1d86:	40021737          	lui	a4,0x40021
    1d8a:	400217b7          	lui	a5,0x40021
    1d8e:	4358                	lw	a4,4(a4)
    1d90:	c3d8                	sw	a4,4(a5)
C:/Users/Yaner/Desktop/camera/libraries/sdk/Startup/system_ch32v30x.c:780
    /* PCLK1 = HCLK */
    RCC->CFGR0 |= (uint32_t)RCC_PPRE1_DIV1;
    1d92:	40021737          	lui	a4,0x40021
    1d96:	400217b7          	lui	a5,0x40021
    1d9a:	4358                	lw	a4,4(a4)
    1d9c:	c3d8                	sw	a4,4(a5)
C:/Users/Yaner/Desktop/camera/libraries/sdk/Startup/system_ch32v30x.c:783

    /*  PLL configuration: PLLCLK = HSE * 18 = 144 MHz */
    RCC->CFGR0 &= (uint32_t)((uint32_t)~(RCC_PLLSRC | RCC_PLLXTPRE |
    1d9e:	400217b7          	lui	a5,0x40021
    1da2:	43d4                	lw	a3,4(a5)
    1da4:	400217b7          	lui	a5,0x40021
    1da8:	ffc10737          	lui	a4,0xffc10
    1dac:	177d                	addi	a4,a4,-1
    1dae:	8f75                	and	a4,a4,a3
    1db0:	c3d8                	sw	a4,4(a5)
C:/Users/Yaner/Desktop/camera/libraries/sdk/Startup/system_ch32v30x.c:786
                                        RCC_PLLMULL));

    if(((*(uint32_t*)0x1FFFF70C) & (1<<14)) != (1<<14)){
    1db2:	1ffff7b7          	lui	a5,0x1ffff
    1db6:	70c78793          	addi	a5,a5,1804 # 1ffff70c <_data_lma+0x1fffa71c>
    1dba:	4398                	lw	a4,0(a5)
    1dbc:	6791                	lui	a5,0x4
    1dbe:	8ff9                	and	a5,a5,a4
    1dc0:	eb99                	bnez	a5,1dd6 <SetSysClockTo144+0xf8>
C:/Users/Yaner/Desktop/camera/libraries/sdk/Startup/system_ch32v30x.c:787
        RCC->CFGR0 |= (uint32_t)(RCC_PLLSRC_HSE | RCC_PLLXTPRE_HSE | RCC_PLLMULL18);
    1dc2:	400217b7          	lui	a5,0x40021
    1dc6:	43d4                	lw	a3,4(a5)
    1dc8:	400217b7          	lui	a5,0x40021
    1dcc:	003d0737          	lui	a4,0x3d0
    1dd0:	8f55                	or	a4,a4,a3
    1dd2:	c3d8                	sw	a4,4(a5)
    1dd4:	a809                	j	1de6 <SetSysClockTo144+0x108>
C:/Users/Yaner/Desktop/camera/libraries/sdk/Startup/system_ch32v30x.c:790
    }
    else{
        RCC->CFGR0 |= (uint32_t)(RCC_PLLSRC_HSE | RCC_PLLXTPRE_HSE | RCC_PLLMULL18_EXTEN);
    1dd6:	400217b7          	lui	a5,0x40021
    1dda:	43d4                	lw	a3,4(a5)
    1ddc:	400217b7          	lui	a5,0x40021
    1de0:	6741                	lui	a4,0x10
    1de2:	8f55                	or	a4,a4,a3
    1de4:	c3d8                	sw	a4,4(a5)
C:/Users/Yaner/Desktop/camera/libraries/sdk/Startup/system_ch32v30x.c:794
    }

    /* Enable PLL */
    RCC->CTLR |= RCC_PLLON;
    1de6:	400217b7          	lui	a5,0x40021
    1dea:	4394                	lw	a3,0(a5)
    1dec:	400217b7          	lui	a5,0x40021
    1df0:	01000737          	lui	a4,0x1000
    1df4:	8f55                	or	a4,a4,a3
    1df6:	c398                	sw	a4,0(a5)
C:/Users/Yaner/Desktop/camera/libraries/sdk/Startup/system_ch32v30x.c:796
    /* Wait till PLL is ready */
    while((RCC->CTLR & RCC_PLLRDY) == 0)
    1df8:	0001                	nop
C:/Users/Yaner/Desktop/camera/libraries/sdk/Startup/system_ch32v30x.c:796 (discriminator 1)
    1dfa:	400217b7          	lui	a5,0x40021
    1dfe:	4398                	lw	a4,0(a5)
    1e00:	020007b7          	lui	a5,0x2000
    1e04:	8ff9                	and	a5,a5,a4
    1e06:	dbf5                	beqz	a5,1dfa <SetSysClockTo144+0x11c>
C:/Users/Yaner/Desktop/camera/libraries/sdk/Startup/system_ch32v30x.c:800
    {
    }
    /* Select PLL as system clock source */
    RCC->CFGR0 &= (uint32_t)((uint32_t)~(RCC_SW));
    1e08:	400217b7          	lui	a5,0x40021
    1e0c:	43d8                	lw	a4,4(a5)
    1e0e:	400217b7          	lui	a5,0x40021
    1e12:	9b71                	andi	a4,a4,-4
    1e14:	c3d8                	sw	a4,4(a5)
C:/Users/Yaner/Desktop/camera/libraries/sdk/Startup/system_ch32v30x.c:801
    RCC->CFGR0 |= (uint32_t)RCC_SW_PLL;
    1e16:	400217b7          	lui	a5,0x40021
    1e1a:	43d8                	lw	a4,4(a5)
    1e1c:	400217b7          	lui	a5,0x40021
    1e20:	00276713          	ori	a4,a4,2
    1e24:	c3d8                	sw	a4,4(a5)
C:/Users/Yaner/Desktop/camera/libraries/sdk/Startup/system_ch32v30x.c:803
    /* Wait till PLL is used as system clock source */
    while ((RCC->CFGR0 & (uint32_t)RCC_SWS) != (uint32_t)0x08)
    1e26:	0001                	nop
C:/Users/Yaner/Desktop/camera/libraries/sdk/Startup/system_ch32v30x.c:803 (discriminator 1)
    1e28:	400217b7          	lui	a5,0x40021
    1e2c:	43dc                	lw	a5,4(a5)
    1e2e:	00c7f713          	andi	a4,a5,12
    1e32:	47a1                	li	a5,8
    1e34:	fef71ae3          	bne	a4,a5,1e28 <SetSysClockTo144+0x14a>
C:/Users/Yaner/Desktop/camera/libraries/sdk/Startup/system_ch32v30x.c:814
        /*
         * If HSE fails to start-up, the application will have wrong clock
     * configuration. User can add here some code to deal with this error
         */
  }
}
    1e38:	0001                	nop
    1e3a:	4472                	lw	s0,28(sp)
    1e3c:	6105                	addi	sp,sp,32
    1e3e:	8082                	ret

00001e40 <EXTI_GetITStatus>:
EXTI_GetITStatus():
C:/Users/Yaner/Desktop/camera/libraries/sdk/Peripheral/ch32v30x_exti.c:131
* Description    : Checks whether the specified EXTI line is asserted or not.
* Input          : EXTI_Line: specifies the EXTI lines to be enabled or disabled.
* Return         : The new state of EXTI_Line (SET or RESET).
*********************************************************************************/	
ITStatus EXTI_GetITStatus(uint32_t EXTI_Line)
{
    1e40:	7179                	addi	sp,sp,-48
    1e42:	d622                	sw	s0,44(sp)
    1e44:	1800                	addi	s0,sp,48
    1e46:	fca42e23          	sw	a0,-36(s0)
C:/Users/Yaner/Desktop/camera/libraries/sdk/Peripheral/ch32v30x_exti.c:132
  ITStatus bitstatus = RESET;
    1e4a:	fe042623          	sw	zero,-20(s0)
C:/Users/Yaner/Desktop/camera/libraries/sdk/Peripheral/ch32v30x_exti.c:133
  uint32_t enablestatus = 0;
    1e4e:	fe042423          	sw	zero,-24(s0)
C:/Users/Yaner/Desktop/camera/libraries/sdk/Peripheral/ch32v30x_exti.c:135
  
  enablestatus =  EXTI->INTENR & EXTI_Line;
    1e52:	400107b7          	lui	a5,0x40010
    1e56:	40078793          	addi	a5,a5,1024 # 40010400 <_eusrstack+0x20000400>
    1e5a:	439c                	lw	a5,0(a5)
    1e5c:	fdc42703          	lw	a4,-36(s0)
    1e60:	8ff9                	and	a5,a5,a4
    1e62:	fef42423          	sw	a5,-24(s0)
C:/Users/Yaner/Desktop/camera/libraries/sdk/Peripheral/ch32v30x_exti.c:136
  if (((EXTI->INTFR & EXTI_Line) != (uint32_t)RESET) && (enablestatus != (uint32_t)RESET))
    1e66:	400107b7          	lui	a5,0x40010
    1e6a:	40078793          	addi	a5,a5,1024 # 40010400 <_eusrstack+0x20000400>
    1e6e:	4bd8                	lw	a4,20(a5)
    1e70:	fdc42783          	lw	a5,-36(s0)
    1e74:	8ff9                	and	a5,a5,a4
    1e76:	cb81                	beqz	a5,1e86 <EXTI_GetITStatus+0x46>
C:/Users/Yaner/Desktop/camera/libraries/sdk/Peripheral/ch32v30x_exti.c:136 (discriminator 1)
    1e78:	fe842783          	lw	a5,-24(s0)
    1e7c:	c789                	beqz	a5,1e86 <EXTI_GetITStatus+0x46>
C:/Users/Yaner/Desktop/camera/libraries/sdk/Peripheral/ch32v30x_exti.c:138
  {
    bitstatus = SET;
    1e7e:	4785                	li	a5,1
    1e80:	fef42623          	sw	a5,-20(s0)
    1e84:	a019                	j	1e8a <EXTI_GetITStatus+0x4a>
C:/Users/Yaner/Desktop/camera/libraries/sdk/Peripheral/ch32v30x_exti.c:142
  }
  else
  {
    bitstatus = RESET;
    1e86:	fe042623          	sw	zero,-20(s0)
C:/Users/Yaner/Desktop/camera/libraries/sdk/Peripheral/ch32v30x_exti.c:144
  }
  return bitstatus;
    1e8a:	fec42783          	lw	a5,-20(s0)
C:/Users/Yaner/Desktop/camera/libraries/sdk/Peripheral/ch32v30x_exti.c:145
}
    1e8e:	853e                	mv	a0,a5
    1e90:	5432                	lw	s0,44(sp)
    1e92:	6145                	addi	sp,sp,48
    1e94:	8082                	ret

00001e96 <EXTI_ClearITPendingBit>:
EXTI_ClearITPendingBit():
C:/Users/Yaner/Desktop/camera/libraries/sdk/Peripheral/ch32v30x_exti.c:154
* Description    : Clears the EXTI's line pending bits.
* Input          : EXTI_Line: specifies the EXTI lines to be enabled or disabled.
* Return         : None
*********************************************************************************/
void EXTI_ClearITPendingBit(uint32_t EXTI_Line)
{  
    1e96:	1101                	addi	sp,sp,-32
    1e98:	ce22                	sw	s0,28(sp)
    1e9a:	1000                	addi	s0,sp,32
    1e9c:	fea42623          	sw	a0,-20(s0)
C:/Users/Yaner/Desktop/camera/libraries/sdk/Peripheral/ch32v30x_exti.c:155
  EXTI->INTFR = EXTI_Line;
    1ea0:	400107b7          	lui	a5,0x40010
    1ea4:	40078793          	addi	a5,a5,1024 # 40010400 <_eusrstack+0x20000400>
    1ea8:	fec42703          	lw	a4,-20(s0)
    1eac:	cbd8                	sw	a4,20(a5)
C:/Users/Yaner/Desktop/camera/libraries/sdk/Peripheral/ch32v30x_exti.c:156
}
    1eae:	0001                	nop
    1eb0:	4472                	lw	s0,28(sp)
    1eb2:	6105                	addi	sp,sp,32
    1eb4:	8082                	ret

00001eb6 <GPIO_Init>:
GPIO_Init():
C:/Users/Yaner/Desktop/camera/libraries/sdk/Peripheral/ch32v30x_gpio.c:88
* Input          : GPIO_InitStruct: pointer to a GPIO_InitTypeDef structure that
*      contains the configuration information for the specified GPIO peripheral.
* Return         : None
*******************************************************************************/
void GPIO_Init(GPIO_TypeDef* GPIOx, GPIO_InitTypeDef* GPIO_InitStruct)
{
    1eb6:	7139                	addi	sp,sp,-64
    1eb8:	de22                	sw	s0,60(sp)
    1eba:	0080                	addi	s0,sp,64
    1ebc:	fca42623          	sw	a0,-52(s0)
    1ec0:	fcb42423          	sw	a1,-56(s0)
C:/Users/Yaner/Desktop/camera/libraries/sdk/Peripheral/ch32v30x_gpio.c:89
  uint32_t currentmode = 0x00, currentpin = 0x00, pinpos = 0x00, pos = 0x00;
    1ec4:	fe042623          	sw	zero,-20(s0)
    1ec8:	fe042023          	sw	zero,-32(s0)
    1ecc:	fe042423          	sw	zero,-24(s0)
    1ed0:	fc042e23          	sw	zero,-36(s0)
C:/Users/Yaner/Desktop/camera/libraries/sdk/Peripheral/ch32v30x_gpio.c:90
  uint32_t tmpreg = 0x00, pinmask = 0x00;
    1ed4:	fe042223          	sw	zero,-28(s0)
    1ed8:	fc042c23          	sw	zero,-40(s0)
C:/Users/Yaner/Desktop/camera/libraries/sdk/Peripheral/ch32v30x_gpio.c:92

  currentmode = ((uint32_t)GPIO_InitStruct->GPIO_Mode) & ((uint32_t)0x0F);
    1edc:	fc842783          	lw	a5,-56(s0)
    1ee0:	479c                	lw	a5,8(a5)
    1ee2:	8bbd                	andi	a5,a5,15
    1ee4:	fef42623          	sw	a5,-20(s0)
C:/Users/Yaner/Desktop/camera/libraries/sdk/Peripheral/ch32v30x_gpio.c:94
	
  if ((((uint32_t)GPIO_InitStruct->GPIO_Mode) & ((uint32_t)0x10)) != 0x00)
    1ee8:	fc842783          	lw	a5,-56(s0)
    1eec:	479c                	lw	a5,8(a5)
    1eee:	8bc1                	andi	a5,a5,16
    1ef0:	cb89                	beqz	a5,1f02 <GPIO_Init+0x4c>
C:/Users/Yaner/Desktop/camera/libraries/sdk/Peripheral/ch32v30x_gpio.c:96
  { 
    currentmode |= (uint32_t)GPIO_InitStruct->GPIO_Speed;
    1ef2:	fc842783          	lw	a5,-56(s0)
    1ef6:	43dc                	lw	a5,4(a5)
    1ef8:	fec42703          	lw	a4,-20(s0)
    1efc:	8fd9                	or	a5,a5,a4
    1efe:	fef42623          	sw	a5,-20(s0)
C:/Users/Yaner/Desktop/camera/libraries/sdk/Peripheral/ch32v30x_gpio.c:99
  }

  if (((uint32_t)GPIO_InitStruct->GPIO_Pin & ((uint32_t)0x00FF)) != 0x00)
    1f02:	fc842783          	lw	a5,-56(s0)
    1f06:	0007d783          	lhu	a5,0(a5)
    1f0a:	0ff7f793          	andi	a5,a5,255
    1f0e:	cff1                	beqz	a5,1fea <GPIO_Init+0x134>
C:/Users/Yaner/Desktop/camera/libraries/sdk/Peripheral/ch32v30x_gpio.c:101
  {
    tmpreg = GPIOx->CFGLR;
    1f10:	fcc42783          	lw	a5,-52(s0)
    1f14:	439c                	lw	a5,0(a5)
    1f16:	fef42223          	sw	a5,-28(s0)
C:/Users/Yaner/Desktop/camera/libraries/sdk/Peripheral/ch32v30x_gpio.c:103
		
    for (pinpos = 0x00; pinpos < 0x08; pinpos++)
    1f1a:	fe042423          	sw	zero,-24(s0)
    1f1e:	a865                	j	1fd6 <GPIO_Init+0x120>
C:/Users/Yaner/Desktop/camera/libraries/sdk/Peripheral/ch32v30x_gpio.c:105
    {
      pos = ((uint32_t)0x01) << pinpos;
    1f20:	fe842783          	lw	a5,-24(s0)
    1f24:	4705                	li	a4,1
    1f26:	00f717b3          	sll	a5,a4,a5
    1f2a:	fcf42e23          	sw	a5,-36(s0)
C:/Users/Yaner/Desktop/camera/libraries/sdk/Peripheral/ch32v30x_gpio.c:106
      currentpin = (GPIO_InitStruct->GPIO_Pin) & pos;
    1f2e:	fc842783          	lw	a5,-56(s0)
    1f32:	0007d783          	lhu	a5,0(a5)
    1f36:	873e                	mv	a4,a5
    1f38:	fdc42783          	lw	a5,-36(s0)
    1f3c:	8ff9                	and	a5,a5,a4
    1f3e:	fef42023          	sw	a5,-32(s0)
C:/Users/Yaner/Desktop/camera/libraries/sdk/Peripheral/ch32v30x_gpio.c:108
			
      if (currentpin == pos)
    1f42:	fe042703          	lw	a4,-32(s0)
    1f46:	fdc42783          	lw	a5,-36(s0)
    1f4a:	08f71163          	bne	a4,a5,1fcc <GPIO_Init+0x116>
C:/Users/Yaner/Desktop/camera/libraries/sdk/Peripheral/ch32v30x_gpio.c:110
      {
        pos = pinpos << 2;
    1f4e:	fe842783          	lw	a5,-24(s0)
    1f52:	078a                	slli	a5,a5,0x2
    1f54:	fcf42e23          	sw	a5,-36(s0)
C:/Users/Yaner/Desktop/camera/libraries/sdk/Peripheral/ch32v30x_gpio.c:111
        pinmask = ((uint32_t)0x0F) << pos;
    1f58:	fdc42783          	lw	a5,-36(s0)
    1f5c:	473d                	li	a4,15
    1f5e:	00f717b3          	sll	a5,a4,a5
    1f62:	fcf42c23          	sw	a5,-40(s0)
C:/Users/Yaner/Desktop/camera/libraries/sdk/Peripheral/ch32v30x_gpio.c:112
        tmpreg &= ~pinmask;
    1f66:	fd842783          	lw	a5,-40(s0)
    1f6a:	fff7c793          	not	a5,a5
    1f6e:	fe442703          	lw	a4,-28(s0)
    1f72:	8ff9                	and	a5,a5,a4
    1f74:	fef42223          	sw	a5,-28(s0)
C:/Users/Yaner/Desktop/camera/libraries/sdk/Peripheral/ch32v30x_gpio.c:113
        tmpreg |= (currentmode << pos);
    1f78:	fdc42783          	lw	a5,-36(s0)
    1f7c:	fec42703          	lw	a4,-20(s0)
    1f80:	00f717b3          	sll	a5,a4,a5
    1f84:	fe442703          	lw	a4,-28(s0)
    1f88:	8fd9                	or	a5,a5,a4
    1f8a:	fef42223          	sw	a5,-28(s0)
C:/Users/Yaner/Desktop/camera/libraries/sdk/Peripheral/ch32v30x_gpio.c:115

        if (GPIO_InitStruct->GPIO_Mode == GPIO_Mode_IPD)
    1f8e:	fc842783          	lw	a5,-56(s0)
    1f92:	4798                	lw	a4,8(a5)
    1f94:	02800793          	li	a5,40
    1f98:	00f71b63          	bne	a4,a5,1fae <GPIO_Init+0xf8>
C:/Users/Yaner/Desktop/camera/libraries/sdk/Peripheral/ch32v30x_gpio.c:117
        {
          GPIOx->BCR = (((uint32_t)0x01) << pinpos);
    1f9c:	fe842783          	lw	a5,-24(s0)
    1fa0:	4705                	li	a4,1
    1fa2:	00f71733          	sll	a4,a4,a5
    1fa6:	fcc42783          	lw	a5,-52(s0)
    1faa:	cbd8                	sw	a4,20(a5)
    1fac:	a005                	j	1fcc <GPIO_Init+0x116>
C:/Users/Yaner/Desktop/camera/libraries/sdk/Peripheral/ch32v30x_gpio.c:121
        }
        else
        {
          if (GPIO_InitStruct->GPIO_Mode == GPIO_Mode_IPU)
    1fae:	fc842783          	lw	a5,-56(s0)
    1fb2:	4798                	lw	a4,8(a5)
    1fb4:	04800793          	li	a5,72
    1fb8:	00f71a63          	bne	a4,a5,1fcc <GPIO_Init+0x116>
C:/Users/Yaner/Desktop/camera/libraries/sdk/Peripheral/ch32v30x_gpio.c:123
          {
            GPIOx->BSHR = (((uint32_t)0x01) << pinpos);
    1fbc:	fe842783          	lw	a5,-24(s0)
    1fc0:	4705                	li	a4,1
    1fc2:	00f71733          	sll	a4,a4,a5
    1fc6:	fcc42783          	lw	a5,-52(s0)
    1fca:	cb98                	sw	a4,16(a5)
C:/Users/Yaner/Desktop/camera/libraries/sdk/Peripheral/ch32v30x_gpio.c:103 (discriminator 2)
    for (pinpos = 0x00; pinpos < 0x08; pinpos++)
    1fcc:	fe842783          	lw	a5,-24(s0)
    1fd0:	0785                	addi	a5,a5,1
    1fd2:	fef42423          	sw	a5,-24(s0)
C:/Users/Yaner/Desktop/camera/libraries/sdk/Peripheral/ch32v30x_gpio.c:103 (discriminator 1)
    1fd6:	fe842703          	lw	a4,-24(s0)
    1fda:	479d                	li	a5,7
    1fdc:	f4e7f2e3          	bgeu	a5,a4,1f20 <GPIO_Init+0x6a>
C:/Users/Yaner/Desktop/camera/libraries/sdk/Peripheral/ch32v30x_gpio.c:128
          }
        }
      }
    }
    GPIOx->CFGLR = tmpreg;
    1fe0:	fcc42783          	lw	a5,-52(s0)
    1fe4:	fe442703          	lw	a4,-28(s0)
    1fe8:	c398                	sw	a4,0(a5)
C:/Users/Yaner/Desktop/camera/libraries/sdk/Peripheral/ch32v30x_gpio.c:131
  }

  if (GPIO_InitStruct->GPIO_Pin > 0x00FF)
    1fea:	fc842783          	lw	a5,-56(s0)
    1fee:	0007d703          	lhu	a4,0(a5)
    1ff2:	0ff00793          	li	a5,255
    1ff6:	0ee7f163          	bgeu	a5,a4,20d8 <GPIO_Init+0x222>
C:/Users/Yaner/Desktop/camera/libraries/sdk/Peripheral/ch32v30x_gpio.c:133
  {
    tmpreg = GPIOx->CFGHR;
    1ffa:	fcc42783          	lw	a5,-52(s0)
    1ffe:	43dc                	lw	a5,4(a5)
    2000:	fef42223          	sw	a5,-28(s0)
C:/Users/Yaner/Desktop/camera/libraries/sdk/Peripheral/ch32v30x_gpio.c:135
		
    for (pinpos = 0x00; pinpos < 0x08; pinpos++)
    2004:	fe042423          	sw	zero,-24(s0)
    2008:	a875                	j	20c4 <GPIO_Init+0x20e>
C:/Users/Yaner/Desktop/camera/libraries/sdk/Peripheral/ch32v30x_gpio.c:137
    {
      pos = (((uint32_t)0x01) << (pinpos + 0x08));
    200a:	fe842783          	lw	a5,-24(s0)
    200e:	07a1                	addi	a5,a5,8
    2010:	4705                	li	a4,1
    2012:	00f717b3          	sll	a5,a4,a5
    2016:	fcf42e23          	sw	a5,-36(s0)
C:/Users/Yaner/Desktop/camera/libraries/sdk/Peripheral/ch32v30x_gpio.c:138
      currentpin = ((GPIO_InitStruct->GPIO_Pin) & pos);
    201a:	fc842783          	lw	a5,-56(s0)
    201e:	0007d783          	lhu	a5,0(a5)
    2022:	873e                	mv	a4,a5
    2024:	fdc42783          	lw	a5,-36(s0)
    2028:	8ff9                	and	a5,a5,a4
    202a:	fef42023          	sw	a5,-32(s0)
C:/Users/Yaner/Desktop/camera/libraries/sdk/Peripheral/ch32v30x_gpio.c:140
			
      if (currentpin == pos)
    202e:	fe042703          	lw	a4,-32(s0)
    2032:	fdc42783          	lw	a5,-36(s0)
    2036:	08f71263          	bne	a4,a5,20ba <GPIO_Init+0x204>
C:/Users/Yaner/Desktop/camera/libraries/sdk/Peripheral/ch32v30x_gpio.c:142
      {
        pos = pinpos << 2;
    203a:	fe842783          	lw	a5,-24(s0)
    203e:	078a                	slli	a5,a5,0x2
    2040:	fcf42e23          	sw	a5,-36(s0)
C:/Users/Yaner/Desktop/camera/libraries/sdk/Peripheral/ch32v30x_gpio.c:143
        pinmask = ((uint32_t)0x0F) << pos;
    2044:	fdc42783          	lw	a5,-36(s0)
    2048:	473d                	li	a4,15
    204a:	00f717b3          	sll	a5,a4,a5
    204e:	fcf42c23          	sw	a5,-40(s0)
C:/Users/Yaner/Desktop/camera/libraries/sdk/Peripheral/ch32v30x_gpio.c:144
        tmpreg &= ~pinmask;
    2052:	fd842783          	lw	a5,-40(s0)
    2056:	fff7c793          	not	a5,a5
    205a:	fe442703          	lw	a4,-28(s0)
    205e:	8ff9                	and	a5,a5,a4
    2060:	fef42223          	sw	a5,-28(s0)
C:/Users/Yaner/Desktop/camera/libraries/sdk/Peripheral/ch32v30x_gpio.c:145
        tmpreg |= (currentmode << pos);
    2064:	fdc42783          	lw	a5,-36(s0)
    2068:	fec42703          	lw	a4,-20(s0)
    206c:	00f717b3          	sll	a5,a4,a5
    2070:	fe442703          	lw	a4,-28(s0)
    2074:	8fd9                	or	a5,a5,a4
    2076:	fef42223          	sw	a5,-28(s0)
C:/Users/Yaner/Desktop/camera/libraries/sdk/Peripheral/ch32v30x_gpio.c:147

        if (GPIO_InitStruct->GPIO_Mode == GPIO_Mode_IPD)
    207a:	fc842783          	lw	a5,-56(s0)
    207e:	4798                	lw	a4,8(a5)
    2080:	02800793          	li	a5,40
    2084:	00f71b63          	bne	a4,a5,209a <GPIO_Init+0x1e4>
C:/Users/Yaner/Desktop/camera/libraries/sdk/Peripheral/ch32v30x_gpio.c:149
        {
          GPIOx->BCR = (((uint32_t)0x01) << (pinpos + 0x08));
    2088:	fe842783          	lw	a5,-24(s0)
    208c:	07a1                	addi	a5,a5,8
    208e:	4705                	li	a4,1
    2090:	00f71733          	sll	a4,a4,a5
    2094:	fcc42783          	lw	a5,-52(s0)
    2098:	cbd8                	sw	a4,20(a5)
C:/Users/Yaner/Desktop/camera/libraries/sdk/Peripheral/ch32v30x_gpio.c:152
        }

        if (GPIO_InitStruct->GPIO_Mode == GPIO_Mode_IPU)
    209a:	fc842783          	lw	a5,-56(s0)
    209e:	4798                	lw	a4,8(a5)
    20a0:	04800793          	li	a5,72
    20a4:	00f71b63          	bne	a4,a5,20ba <GPIO_Init+0x204>
C:/Users/Yaner/Desktop/camera/libraries/sdk/Peripheral/ch32v30x_gpio.c:154
        {
          GPIOx->BSHR = (((uint32_t)0x01) << (pinpos + 0x08));
    20a8:	fe842783          	lw	a5,-24(s0)
    20ac:	07a1                	addi	a5,a5,8
    20ae:	4705                	li	a4,1
    20b0:	00f71733          	sll	a4,a4,a5
    20b4:	fcc42783          	lw	a5,-52(s0)
    20b8:	cb98                	sw	a4,16(a5)
C:/Users/Yaner/Desktop/camera/libraries/sdk/Peripheral/ch32v30x_gpio.c:135 (discriminator 2)
    for (pinpos = 0x00; pinpos < 0x08; pinpos++)
    20ba:	fe842783          	lw	a5,-24(s0)
    20be:	0785                	addi	a5,a5,1
    20c0:	fef42423          	sw	a5,-24(s0)
C:/Users/Yaner/Desktop/camera/libraries/sdk/Peripheral/ch32v30x_gpio.c:135 (discriminator 1)
    20c4:	fe842703          	lw	a4,-24(s0)
    20c8:	479d                	li	a5,7
    20ca:	f4e7f0e3          	bgeu	a5,a4,200a <GPIO_Init+0x154>
C:/Users/Yaner/Desktop/camera/libraries/sdk/Peripheral/ch32v30x_gpio.c:158
        }
      }
    }
    GPIOx->CFGHR = tmpreg;
    20ce:	fcc42783          	lw	a5,-52(s0)
    20d2:	fe442703          	lw	a4,-28(s0)
    20d6:	c3d8                	sw	a4,4(a5)
C:/Users/Yaner/Desktop/camera/libraries/sdk/Peripheral/ch32v30x_gpio.c:160
  }
}
    20d8:	0001                	nop
    20da:	5472                	lw	s0,60(sp)
    20dc:	6121                	addi	sp,sp,64
    20de:	8082                	ret

000020e0 <GPIO_WriteBit>:
GPIO_WriteBit():
C:/Users/Yaner/Desktop/camera/libraries/sdk/Peripheral/ch32v30x_gpio.c:282
*                    Bit_SetL: to clear the port pin.
*                    Bit_SetH: to set the port pin.                  
* Return         : None
*******************************************************************************/
void GPIO_WriteBit(GPIO_TypeDef* GPIOx, uint16_t GPIO_Pin, BitAction BitVal)
{
    20e0:	1101                	addi	sp,sp,-32
    20e2:	ce22                	sw	s0,28(sp)
    20e4:	1000                	addi	s0,sp,32
    20e6:	fea42623          	sw	a0,-20(s0)
    20ea:	87ae                	mv	a5,a1
    20ec:	fec42223          	sw	a2,-28(s0)
    20f0:	fef41523          	sh	a5,-22(s0)
C:/Users/Yaner/Desktop/camera/libraries/sdk/Peripheral/ch32v30x_gpio.c:283
  if (BitVal != Bit_RESET)
    20f4:	fe442783          	lw	a5,-28(s0)
    20f8:	c799                	beqz	a5,2106 <GPIO_WriteBit+0x26>
C:/Users/Yaner/Desktop/camera/libraries/sdk/Peripheral/ch32v30x_gpio.c:285
  {
    GPIOx->BSHR = GPIO_Pin;
    20fa:	fea45703          	lhu	a4,-22(s0)
    20fe:	fec42783          	lw	a5,-20(s0)
    2102:	cb98                	sw	a4,16(a5)
C:/Users/Yaner/Desktop/camera/libraries/sdk/Peripheral/ch32v30x_gpio.c:291
  }
  else
  {
    GPIOx->BCR = GPIO_Pin;
  }
}
    2104:	a031                	j	2110 <GPIO_WriteBit+0x30>
C:/Users/Yaner/Desktop/camera/libraries/sdk/Peripheral/ch32v30x_gpio.c:289
    GPIOx->BCR = GPIO_Pin;
    2106:	fea45703          	lhu	a4,-22(s0)
    210a:	fec42783          	lw	a5,-20(s0)
    210e:	cbd8                	sw	a4,20(a5)
C:/Users/Yaner/Desktop/camera/libraries/sdk/Peripheral/ch32v30x_gpio.c:291
}
    2110:	0001                	nop
    2112:	4472                	lw	s0,28(sp)
    2114:	6105                	addi	sp,sp,32
    2116:	8082                	ret

00002118 <GPIO_PinRemapConfig>:
GPIO_PinRemapConfig():
C:/Users/Yaner/Desktop/camera/libraries/sdk/Peripheral/ch32v30x_gpio.c:402
*      only for High density Value line devices)     
*                  NewState: ENABLE or DISABLE.             
* Return         : None
*******************************************************************************/
void GPIO_PinRemapConfig(uint32_t GPIO_Remap, FunctionalState NewState)
{
    2118:	7179                	addi	sp,sp,-48
    211a:	d622                	sw	s0,44(sp)
    211c:	1800                	addi	s0,sp,48
    211e:	fca42e23          	sw	a0,-36(s0)
    2122:	fcb42c23          	sw	a1,-40(s0)
C:/Users/Yaner/Desktop/camera/libraries/sdk/Peripheral/ch32v30x_gpio.c:403
  uint32_t tmp = 0x00, tmp1 = 0x00, tmpreg = 0x00, tmpmask = 0x00;
    2126:	fe042423          	sw	zero,-24(s0)
    212a:	fe042223          	sw	zero,-28(s0)
    212e:	fe042623          	sw	zero,-20(s0)
    2132:	fe042023          	sw	zero,-32(s0)
C:/Users/Yaner/Desktop/camera/libraries/sdk/Peripheral/ch32v30x_gpio.c:405

  if((GPIO_Remap & 0x80000000) == 0x80000000)
    2136:	fdc42783          	lw	a5,-36(s0)
    213a:	0007d863          	bgez	a5,214a <GPIO_PinRemapConfig+0x32>
C:/Users/Yaner/Desktop/camera/libraries/sdk/Peripheral/ch32v30x_gpio.c:407
  {
    tmpreg = AFIO->PCFR2;
    213e:	400107b7          	lui	a5,0x40010
    2142:	4fdc                	lw	a5,28(a5)
    2144:	fef42623          	sw	a5,-20(s0)
    2148:	a031                	j	2154 <GPIO_PinRemapConfig+0x3c>
C:/Users/Yaner/Desktop/camera/libraries/sdk/Peripheral/ch32v30x_gpio.c:411
  }
  else
  {
    tmpreg = AFIO->PCFR1;
    214a:	400107b7          	lui	a5,0x40010
    214e:	43dc                	lw	a5,4(a5)
    2150:	fef42623          	sw	a5,-20(s0)
C:/Users/Yaner/Desktop/camera/libraries/sdk/Peripheral/ch32v30x_gpio.c:414
  }

  tmpmask = (GPIO_Remap & DBGAFR_POSITION_MASK) >> 0x10;
    2154:	fdc42783          	lw	a5,-36(s0)
    2158:	83c1                	srli	a5,a5,0x10
    215a:	8bbd                	andi	a5,a5,15
    215c:	fef42023          	sw	a5,-32(s0)
C:/Users/Yaner/Desktop/camera/libraries/sdk/Peripheral/ch32v30x_gpio.c:415
  tmp = GPIO_Remap & LSB_MASK;
    2160:	fdc42703          	lw	a4,-36(s0)
    2164:	67c1                	lui	a5,0x10
    2166:	17fd                	addi	a5,a5,-1
    2168:	8ff9                	and	a5,a5,a4
    216a:	fef42423          	sw	a5,-24(s0)
C:/Users/Yaner/Desktop/camera/libraries/sdk/Peripheral/ch32v30x_gpio.c:417

  if ((GPIO_Remap & (DBGAFR_LOCATION_MASK | DBGAFR_NUMBITS_MASK)) == (DBGAFR_LOCATION_MASK | DBGAFR_NUMBITS_MASK))
    216e:	fdc42703          	lw	a4,-36(s0)
    2172:	003007b7          	lui	a5,0x300
    2176:	8f7d                	and	a4,a4,a5
    2178:	003007b7          	lui	a5,0x300
    217c:	02f71563          	bne	a4,a5,21a6 <GPIO_PinRemapConfig+0x8e>
C:/Users/Yaner/Desktop/camera/libraries/sdk/Peripheral/ch32v30x_gpio.c:419
  {
    tmpreg &= DBGAFR_SWJCFG_MASK;
    2180:	fec42703          	lw	a4,-20(s0)
    2184:	f10007b7          	lui	a5,0xf1000
    2188:	17fd                	addi	a5,a5,-1
    218a:	8ff9                	and	a5,a5,a4
    218c:	fef42623          	sw	a5,-20(s0)
C:/Users/Yaner/Desktop/camera/libraries/sdk/Peripheral/ch32v30x_gpio.c:420
    AFIO->PCFR1 &= DBGAFR_SWJCFG_MASK;
    2190:	400107b7          	lui	a5,0x40010
    2194:	43d4                	lw	a3,4(a5)
    2196:	400107b7          	lui	a5,0x40010
    219a:	f1000737          	lui	a4,0xf1000
    219e:	177d                	addi	a4,a4,-1
    21a0:	8f75                	and	a4,a4,a3
    21a2:	c3d8                	sw	a4,4(a5)
    21a4:	a0ad                	j	220e <GPIO_PinRemapConfig+0xf6>
C:/Users/Yaner/Desktop/camera/libraries/sdk/Peripheral/ch32v30x_gpio.c:422
  }
  else if ((GPIO_Remap & DBGAFR_NUMBITS_MASK) == DBGAFR_NUMBITS_MASK)
    21a6:	fdc42703          	lw	a4,-36(s0)
    21aa:	001007b7          	lui	a5,0x100
    21ae:	8ff9                	and	a5,a5,a4
    21b0:	cb8d                	beqz	a5,21e2 <GPIO_PinRemapConfig+0xca>
C:/Users/Yaner/Desktop/camera/libraries/sdk/Peripheral/ch32v30x_gpio.c:424
  {
    tmp1 = ((uint32_t)0x03) << tmpmask;
    21b2:	fe042783          	lw	a5,-32(s0)
    21b6:	470d                	li	a4,3
    21b8:	00f717b3          	sll	a5,a4,a5
    21bc:	fef42223          	sw	a5,-28(s0)
C:/Users/Yaner/Desktop/camera/libraries/sdk/Peripheral/ch32v30x_gpio.c:425
    tmpreg &= ~tmp1;
    21c0:	fe442783          	lw	a5,-28(s0)
    21c4:	fff7c793          	not	a5,a5
    21c8:	fec42703          	lw	a4,-20(s0)
    21cc:	8ff9                	and	a5,a5,a4
    21ce:	fef42623          	sw	a5,-20(s0)
C:/Users/Yaner/Desktop/camera/libraries/sdk/Peripheral/ch32v30x_gpio.c:426
    tmpreg |= ~DBGAFR_SWJCFG_MASK;
    21d2:	fec42703          	lw	a4,-20(s0)
    21d6:	0f0007b7          	lui	a5,0xf000
    21da:	8fd9                	or	a5,a5,a4
    21dc:	fef42623          	sw	a5,-20(s0)
    21e0:	a03d                	j	220e <GPIO_PinRemapConfig+0xf6>
C:/Users/Yaner/Desktop/camera/libraries/sdk/Peripheral/ch32v30x_gpio.c:430
  }
  else
  {
    tmpreg &= ~(tmp << ((GPIO_Remap >> 0x15)*0x10));
    21e2:	fdc42783          	lw	a5,-36(s0)
    21e6:	83d5                	srli	a5,a5,0x15
    21e8:	0792                	slli	a5,a5,0x4
    21ea:	fe842703          	lw	a4,-24(s0)
    21ee:	00f717b3          	sll	a5,a4,a5
    21f2:	fff7c793          	not	a5,a5
    21f6:	fec42703          	lw	a4,-20(s0)
    21fa:	8ff9                	and	a5,a5,a4
    21fc:	fef42623          	sw	a5,-20(s0)
C:/Users/Yaner/Desktop/camera/libraries/sdk/Peripheral/ch32v30x_gpio.c:431
    tmpreg |= ~DBGAFR_SWJCFG_MASK;
    2200:	fec42703          	lw	a4,-20(s0)
    2204:	0f0007b7          	lui	a5,0xf000
    2208:	8fd9                	or	a5,a5,a4
    220a:	fef42623          	sw	a5,-20(s0)
C:/Users/Yaner/Desktop/camera/libraries/sdk/Peripheral/ch32v30x_gpio.c:434
  }

  if (NewState != DISABLE)
    220e:	fd842783          	lw	a5,-40(s0)
    2212:	cf91                	beqz	a5,222e <GPIO_PinRemapConfig+0x116>
C:/Users/Yaner/Desktop/camera/libraries/sdk/Peripheral/ch32v30x_gpio.c:436
  {
    tmpreg |= (tmp << ((GPIO_Remap >> 0x15)*0x10));
    2214:	fdc42783          	lw	a5,-36(s0)
    2218:	83d5                	srli	a5,a5,0x15
    221a:	0792                	slli	a5,a5,0x4
    221c:	fe842703          	lw	a4,-24(s0)
    2220:	00f717b3          	sll	a5,a4,a5
    2224:	fec42703          	lw	a4,-20(s0)
    2228:	8fd9                	or	a5,a5,a4
    222a:	fef42623          	sw	a5,-20(s0)
C:/Users/Yaner/Desktop/camera/libraries/sdk/Peripheral/ch32v30x_gpio.c:439
  }

  if((GPIO_Remap & 0x80000000) == 0x80000000)
    222e:	fdc42783          	lw	a5,-36(s0)
    2232:	0007d863          	bgez	a5,2242 <GPIO_PinRemapConfig+0x12a>
C:/Users/Yaner/Desktop/camera/libraries/sdk/Peripheral/ch32v30x_gpio.c:441
  {
    AFIO->PCFR2 = tmpreg;
    2236:	400107b7          	lui	a5,0x40010
    223a:	fec42703          	lw	a4,-20(s0)
    223e:	cfd8                	sw	a4,28(a5)
C:/Users/Yaner/Desktop/camera/libraries/sdk/Peripheral/ch32v30x_gpio.c:447
  }
  else
  {
    AFIO->PCFR1 = tmpreg;
  }  
}
    2240:	a031                	j	224c <GPIO_PinRemapConfig+0x134>
C:/Users/Yaner/Desktop/camera/libraries/sdk/Peripheral/ch32v30x_gpio.c:445
    AFIO->PCFR1 = tmpreg;
    2242:	400107b7          	lui	a5,0x40010
    2246:	fec42703          	lw	a4,-20(s0)
    224a:	c3d8                	sw	a4,4(a5)
C:/Users/Yaner/Desktop/camera/libraries/sdk/Peripheral/ch32v30x_gpio.c:447
}
    224c:	0001                	nop
    224e:	5432                	lw	s0,44(sp)
    2250:	6145                	addi	sp,sp,48
    2252:	8082                	ret

00002254 <RCC_GetClocksFreq>:
RCC_GetClocksFreq():
C:/Users/Yaner/Desktop/camera/libraries/sdk/Peripheral/ch32v30x_rcc.c:489
* Input          : RCC_Clocks: pointer to a RCC_ClocksTypeDef structure which will hold
*      the clocks frequencies.
* Return         : None
********************************************************************************/
void RCC_GetClocksFreq(RCC_ClocksTypeDef* RCC_Clocks)
{
    2254:	7139                	addi	sp,sp,-64
    2256:	de22                	sw	s0,60(sp)
    2258:	0080                	addi	s0,sp,64
    225a:	fca42623          	sw	a0,-52(s0)
C:/Users/Yaner/Desktop/camera/libraries/sdk/Peripheral/ch32v30x_rcc.c:490
    uint32_t tmp = 0, pllmull = 0, pllsource = 0, presc = 0, Pll_6_5 = 0;
    225e:	fe042223          	sw	zero,-28(s0)
    2262:	fe042623          	sw	zero,-20(s0)
    2266:	fe042023          	sw	zero,-32(s0)
    226a:	fc042e23          	sw	zero,-36(s0)
    226e:	fe042423          	sw	zero,-24(s0)
C:/Users/Yaner/Desktop/camera/libraries/sdk/Peripheral/ch32v30x_rcc.c:492

    tmp = RCC->CFGR0 & CFGR0_SWS_Mask;
    2272:	400217b7          	lui	a5,0x40021
    2276:	43dc                	lw	a5,4(a5)
    2278:	8bb1                	andi	a5,a5,12
    227a:	fef42223          	sw	a5,-28(s0)
    227e:	fe442703          	lw	a4,-28(s0)
    2282:	4791                	li	a5,4
    2284:	02f70363          	beq	a4,a5,22aa <RCC_GetClocksFreq+0x56>
    2288:	fe442703          	lw	a4,-28(s0)
    228c:	47a1                	li	a5,8
    228e:	02f70663          	beq	a4,a5,22ba <RCC_GetClocksFreq+0x66>
    2292:	fe442783          	lw	a5,-28(s0)
    2296:	14079963          	bnez	a5,23e8 <RCC_GetClocksFreq+0x194>
C:/Users/Yaner/Desktop/camera/libraries/sdk/Peripheral/ch32v30x_rcc.c:497

    switch (tmp)
    {
      case 0x00:
        RCC_Clocks->SYSCLK_Frequency = HSI_VALUE;
    229a:	fcc42783          	lw	a5,-52(s0)
    229e:	007a1737          	lui	a4,0x7a1
    22a2:	20070713          	addi	a4,a4,512 # 7a1200 <_data_lma+0x79c210>
    22a6:	c398                	sw	a4,0(a5)
C:/Users/Yaner/Desktop/camera/libraries/sdk/Peripheral/ch32v30x_rcc.c:498
        break;
    22a8:	aa89                	j	23fa <RCC_GetClocksFreq+0x1a6>
C:/Users/Yaner/Desktop/camera/libraries/sdk/Peripheral/ch32v30x_rcc.c:501

      case 0x04:
        RCC_Clocks->SYSCLK_Frequency = HSE_VALUE;
    22aa:	fcc42783          	lw	a5,-52(s0)
    22ae:	007a1737          	lui	a4,0x7a1
    22b2:	20070713          	addi	a4,a4,512 # 7a1200 <_data_lma+0x79c210>
    22b6:	c398                	sw	a4,0(a5)
C:/Users/Yaner/Desktop/camera/libraries/sdk/Peripheral/ch32v30x_rcc.c:502
        break;
    22b8:	a289                	j	23fa <RCC_GetClocksFreq+0x1a6>
C:/Users/Yaner/Desktop/camera/libraries/sdk/Peripheral/ch32v30x_rcc.c:505

      case 0x08:
        pllmull = RCC->CFGR0 & CFGR0_PLLMull_Mask;
    22ba:	400217b7          	lui	a5,0x40021
    22be:	43d8                	lw	a4,4(a5)
    22c0:	003c07b7          	lui	a5,0x3c0
    22c4:	8ff9                	and	a5,a5,a4
    22c6:	fef42623          	sw	a5,-20(s0)
C:/Users/Yaner/Desktop/camera/libraries/sdk/Peripheral/ch32v30x_rcc.c:506
        pllsource = RCC->CFGR0 & CFGR0_PLLSRC_Mask;
    22ca:	400217b7          	lui	a5,0x40021
    22ce:	43d8                	lw	a4,4(a5)
    22d0:	67c1                	lui	a5,0x10
    22d2:	8ff9                	and	a5,a5,a4
    22d4:	fef42023          	sw	a5,-32(s0)
C:/Users/Yaner/Desktop/camera/libraries/sdk/Peripheral/ch32v30x_rcc.c:508

        pllmull = ( pllmull >> 18) + 2;
    22d8:	fec42783          	lw	a5,-20(s0)
    22dc:	83c9                	srli	a5,a5,0x12
    22de:	0789                	addi	a5,a5,2
    22e0:	fef42623          	sw	a5,-20(s0)
C:/Users/Yaner/Desktop/camera/libraries/sdk/Peripheral/ch32v30x_rcc.c:510

        if(((*(uint32_t*)0x1FFFF70C) & (1<<14)) != (1<<14)){ /* for other CH32V30x */
    22e4:	1ffff7b7          	lui	a5,0x1ffff
    22e8:	70c78793          	addi	a5,a5,1804 # 1ffff70c <_data_lma+0x1fffa71c>
    22ec:	4398                	lw	a4,0(a5)
    22ee:	6791                	lui	a5,0x4
    22f0:	8ff9                	and	a5,a5,a4
    22f2:	eb91                	bnez	a5,2306 <RCC_GetClocksFreq+0xb2>
C:/Users/Yaner/Desktop/camera/libraries/sdk/Peripheral/ch32v30x_rcc.c:511
            if(pllmull == 17) pllmull = 18;
    22f4:	fec42703          	lw	a4,-20(s0)
    22f8:	47c5                	li	a5,17
    22fa:	04f71963          	bne	a4,a5,234c <RCC_GetClocksFreq+0xf8>
C:/Users/Yaner/Desktop/camera/libraries/sdk/Peripheral/ch32v30x_rcc.c:511 (discriminator 1)
    22fe:	47c9                	li	a5,18
    2300:	fef42623          	sw	a5,-20(s0)
    2304:	a0a1                	j	234c <RCC_GetClocksFreq+0xf8>
C:/Users/Yaner/Desktop/camera/libraries/sdk/Peripheral/ch32v30x_rcc.c:514
        }
        else{  /* for CH32V307 */
            if(pllmull == 2) pllmull = 18;
    2306:	fec42703          	lw	a4,-20(s0)
    230a:	4789                	li	a5,2
    230c:	00f71563          	bne	a4,a5,2316 <RCC_GetClocksFreq+0xc2>
C:/Users/Yaner/Desktop/camera/libraries/sdk/Peripheral/ch32v30x_rcc.c:514 (discriminator 1)
    2310:	47c9                	li	a5,18
    2312:	fef42623          	sw	a5,-20(s0)
C:/Users/Yaner/Desktop/camera/libraries/sdk/Peripheral/ch32v30x_rcc.c:515
            if(pllmull == 15){
    2316:	fec42703          	lw	a4,-20(s0)
    231a:	47bd                	li	a5,15
    231c:	00f71863          	bne	a4,a5,232c <RCC_GetClocksFreq+0xd8>
C:/Users/Yaner/Desktop/camera/libraries/sdk/Peripheral/ch32v30x_rcc.c:516
                pllmull = 13;  /* *6.5 */
    2320:	47b5                	li	a5,13
    2322:	fef42623          	sw	a5,-20(s0)
C:/Users/Yaner/Desktop/camera/libraries/sdk/Peripheral/ch32v30x_rcc.c:517
                Pll_6_5 = 1;
    2326:	4785                	li	a5,1
    2328:	fef42423          	sw	a5,-24(s0)
C:/Users/Yaner/Desktop/camera/libraries/sdk/Peripheral/ch32v30x_rcc.c:519
            }
            if(pllmull == 16) pllmull = 15;
    232c:	fec42703          	lw	a4,-20(s0)
    2330:	47c1                	li	a5,16
    2332:	00f71563          	bne	a4,a5,233c <RCC_GetClocksFreq+0xe8>
C:/Users/Yaner/Desktop/camera/libraries/sdk/Peripheral/ch32v30x_rcc.c:519 (discriminator 1)
    2336:	47bd                	li	a5,15
    2338:	fef42623          	sw	a5,-20(s0)
C:/Users/Yaner/Desktop/camera/libraries/sdk/Peripheral/ch32v30x_rcc.c:520
            if(pllmull == 17) pllmull = 16;
    233c:	fec42703          	lw	a4,-20(s0)
    2340:	47c5                	li	a5,17
    2342:	00f71563          	bne	a4,a5,234c <RCC_GetClocksFreq+0xf8>
C:/Users/Yaner/Desktop/camera/libraries/sdk/Peripheral/ch32v30x_rcc.c:520 (discriminator 1)
    2346:	47c1                	li	a5,16
    2348:	fef42623          	sw	a5,-20(s0)
C:/Users/Yaner/Desktop/camera/libraries/sdk/Peripheral/ch32v30x_rcc.c:524
        }


        if (pllsource == 0x00)
    234c:	fe042783          	lw	a5,-32(s0)
    2350:	e3a1                	bnez	a5,2390 <RCC_GetClocksFreq+0x13c>
C:/Users/Yaner/Desktop/camera/libraries/sdk/Peripheral/ch32v30x_rcc.c:526
        {
                  if(EXTEN->EXTEN_CTR & EXTEN_PLL_HSI_PRE){
    2352:	400247b7          	lui	a5,0x40024
    2356:	80078793          	addi	a5,a5,-2048 # 40023800 <_eusrstack+0x20013800>
    235a:	439c                	lw	a5,0(a5)
    235c:	8bc1                	andi	a5,a5,16
    235e:	cf89                	beqz	a5,2378 <RCC_GetClocksFreq+0x124>
C:/Users/Yaner/Desktop/camera/libraries/sdk/Peripheral/ch32v30x_rcc.c:527
                   RCC_Clocks->SYSCLK_Frequency = (HSI_VALUE) * pllmull;
    2360:	fec42703          	lw	a4,-20(s0)
    2364:	007a17b7          	lui	a5,0x7a1
    2368:	20078793          	addi	a5,a5,512 # 7a1200 <_data_lma+0x79c210>
    236c:	02f70733          	mul	a4,a4,a5
    2370:	fcc42783          	lw	a5,-52(s0)
    2374:	c398                	sw	a4,0(a5)
    2376:	a899                	j	23cc <RCC_GetClocksFreq+0x178>
C:/Users/Yaner/Desktop/camera/libraries/sdk/Peripheral/ch32v30x_rcc.c:530
                  }
                  else{
                   RCC_Clocks->SYSCLK_Frequency = (HSI_VALUE >>1) * pllmull;
    2378:	fec42703          	lw	a4,-20(s0)
    237c:	003d17b7          	lui	a5,0x3d1
    2380:	90078793          	addi	a5,a5,-1792 # 3d0900 <_data_lma+0x3cb910>
    2384:	02f70733          	mul	a4,a4,a5
    2388:	fcc42783          	lw	a5,-52(s0)
    238c:	c398                	sw	a4,0(a5)
    238e:	a83d                	j	23cc <RCC_GetClocksFreq+0x178>
C:/Users/Yaner/Desktop/camera/libraries/sdk/Peripheral/ch32v30x_rcc.c:535
                  }
        }
        else
        {
          if ((RCC->CFGR0 & CFGR0_PLLXTPRE_Mask) != (uint32_t)RESET)
    2390:	400217b7          	lui	a5,0x40021
    2394:	43d8                	lw	a4,4(a5)
    2396:	000207b7          	lui	a5,0x20
    239a:	8ff9                	and	a5,a5,a4
    239c:	cf89                	beqz	a5,23b6 <RCC_GetClocksFreq+0x162>
C:/Users/Yaner/Desktop/camera/libraries/sdk/Peripheral/ch32v30x_rcc.c:537
          {
            RCC_Clocks->SYSCLK_Frequency = (HSE_VALUE >> 1) * pllmull;
    239e:	fec42703          	lw	a4,-20(s0)
    23a2:	003d17b7          	lui	a5,0x3d1
    23a6:	90078793          	addi	a5,a5,-1792 # 3d0900 <_data_lma+0x3cb910>
    23aa:	02f70733          	mul	a4,a4,a5
    23ae:	fcc42783          	lw	a5,-52(s0)
    23b2:	c398                	sw	a4,0(a5)
    23b4:	a821                	j	23cc <RCC_GetClocksFreq+0x178>
C:/Users/Yaner/Desktop/camera/libraries/sdk/Peripheral/ch32v30x_rcc.c:541
          }
          else
          {
            RCC_Clocks->SYSCLK_Frequency = HSE_VALUE * pllmull;
    23b6:	fec42703          	lw	a4,-20(s0)
    23ba:	007a17b7          	lui	a5,0x7a1
    23be:	20078793          	addi	a5,a5,512 # 7a1200 <_data_lma+0x79c210>
    23c2:	02f70733          	mul	a4,a4,a5
    23c6:	fcc42783          	lw	a5,-52(s0)
    23ca:	c398                	sw	a4,0(a5)
C:/Users/Yaner/Desktop/camera/libraries/sdk/Peripheral/ch32v30x_rcc.c:545
          }
        }

        if(Pll_6_5 == 1) RCC_Clocks->SYSCLK_Frequency = (RCC_Clocks->SYSCLK_Frequency / 2);
    23cc:	fe842703          	lw	a4,-24(s0)
    23d0:	4785                	li	a5,1
    23d2:	02f71363          	bne	a4,a5,23f8 <RCC_GetClocksFreq+0x1a4>
C:/Users/Yaner/Desktop/camera/libraries/sdk/Peripheral/ch32v30x_rcc.c:545 (discriminator 1)
    23d6:	fcc42783          	lw	a5,-52(s0)
    23da:	439c                	lw	a5,0(a5)
    23dc:	0017d713          	srli	a4,a5,0x1
    23e0:	fcc42783          	lw	a5,-52(s0)
    23e4:	c398                	sw	a4,0(a5)
C:/Users/Yaner/Desktop/camera/libraries/sdk/Peripheral/ch32v30x_rcc.c:547 (discriminator 1)

        break;
    23e6:	a809                	j	23f8 <RCC_GetClocksFreq+0x1a4>
C:/Users/Yaner/Desktop/camera/libraries/sdk/Peripheral/ch32v30x_rcc.c:550

      default:
        RCC_Clocks->SYSCLK_Frequency = HSI_VALUE;
    23e8:	fcc42783          	lw	a5,-52(s0)
    23ec:	007a1737          	lui	a4,0x7a1
    23f0:	20070713          	addi	a4,a4,512 # 7a1200 <_data_lma+0x79c210>
    23f4:	c398                	sw	a4,0(a5)
C:/Users/Yaner/Desktop/camera/libraries/sdk/Peripheral/ch32v30x_rcc.c:551
        break;
    23f6:	a011                	j	23fa <RCC_GetClocksFreq+0x1a6>
C:/Users/Yaner/Desktop/camera/libraries/sdk/Peripheral/ch32v30x_rcc.c:547
        break;
    23f8:	0001                	nop
C:/Users/Yaner/Desktop/camera/libraries/sdk/Peripheral/ch32v30x_rcc.c:554
    }

    tmp = RCC->CFGR0 & CFGR0_HPRE_Set_Mask;
    23fa:	400217b7          	lui	a5,0x40021
    23fe:	43dc                	lw	a5,4(a5)
    2400:	0f07f793          	andi	a5,a5,240
    2404:	fef42223          	sw	a5,-28(s0)
C:/Users/Yaner/Desktop/camera/libraries/sdk/Peripheral/ch32v30x_rcc.c:555
    tmp = tmp >> 4;
    2408:	fe442783          	lw	a5,-28(s0)
    240c:	8391                	srli	a5,a5,0x4
    240e:	fef42223          	sw	a5,-28(s0)
C:/Users/Yaner/Desktop/camera/libraries/sdk/Peripheral/ch32v30x_rcc.c:556
    presc = APBAHBPrescTable[tmp];
    2412:	200007b7          	lui	a5,0x20000
    2416:	04478713          	addi	a4,a5,68 # 20000044 <APBAHBPrescTable>
    241a:	fe442783          	lw	a5,-28(s0)
    241e:	97ba                	add	a5,a5,a4
    2420:	0007c783          	lbu	a5,0(a5)
    2424:	0ff7f793          	andi	a5,a5,255
    2428:	fcf42e23          	sw	a5,-36(s0)
C:/Users/Yaner/Desktop/camera/libraries/sdk/Peripheral/ch32v30x_rcc.c:557
    RCC_Clocks->HCLK_Frequency = RCC_Clocks->SYSCLK_Frequency >> presc;
    242c:	fcc42783          	lw	a5,-52(s0)
    2430:	4398                	lw	a4,0(a5)
    2432:	fdc42783          	lw	a5,-36(s0)
    2436:	00f75733          	srl	a4,a4,a5
    243a:	fcc42783          	lw	a5,-52(s0)
    243e:	c3d8                	sw	a4,4(a5)
C:/Users/Yaner/Desktop/camera/libraries/sdk/Peripheral/ch32v30x_rcc.c:558
    tmp = RCC->CFGR0 & CFGR0_PPRE1_Set_Mask;
    2440:	400217b7          	lui	a5,0x40021
    2444:	43dc                	lw	a5,4(a5)
    2446:	7007f793          	andi	a5,a5,1792
    244a:	fef42223          	sw	a5,-28(s0)
C:/Users/Yaner/Desktop/camera/libraries/sdk/Peripheral/ch32v30x_rcc.c:559
    tmp = tmp >> 8;
    244e:	fe442783          	lw	a5,-28(s0)
    2452:	83a1                	srli	a5,a5,0x8
    2454:	fef42223          	sw	a5,-28(s0)
C:/Users/Yaner/Desktop/camera/libraries/sdk/Peripheral/ch32v30x_rcc.c:560
    presc = APBAHBPrescTable[tmp];
    2458:	200007b7          	lui	a5,0x20000
    245c:	04478713          	addi	a4,a5,68 # 20000044 <APBAHBPrescTable>
    2460:	fe442783          	lw	a5,-28(s0)
    2464:	97ba                	add	a5,a5,a4
    2466:	0007c783          	lbu	a5,0(a5)
    246a:	0ff7f793          	andi	a5,a5,255
    246e:	fcf42e23          	sw	a5,-36(s0)
C:/Users/Yaner/Desktop/camera/libraries/sdk/Peripheral/ch32v30x_rcc.c:561
    RCC_Clocks->PCLK1_Frequency = RCC_Clocks->HCLK_Frequency >> presc;
    2472:	fcc42783          	lw	a5,-52(s0)
    2476:	43d8                	lw	a4,4(a5)
    2478:	fdc42783          	lw	a5,-36(s0)
    247c:	00f75733          	srl	a4,a4,a5
    2480:	fcc42783          	lw	a5,-52(s0)
    2484:	c798                	sw	a4,8(a5)
C:/Users/Yaner/Desktop/camera/libraries/sdk/Peripheral/ch32v30x_rcc.c:562
    tmp = RCC->CFGR0 & CFGR0_PPRE2_Set_Mask;
    2486:	400217b7          	lui	a5,0x40021
    248a:	43d8                	lw	a4,4(a5)
    248c:	6791                	lui	a5,0x4
    248e:	80078793          	addi	a5,a5,-2048 # 3800 <OTG_FS_IRQHandler+0xb58>
    2492:	8ff9                	and	a5,a5,a4
    2494:	fef42223          	sw	a5,-28(s0)
C:/Users/Yaner/Desktop/camera/libraries/sdk/Peripheral/ch32v30x_rcc.c:563
    tmp = tmp >> 11;
    2498:	fe442783          	lw	a5,-28(s0)
    249c:	83ad                	srli	a5,a5,0xb
    249e:	fef42223          	sw	a5,-28(s0)
C:/Users/Yaner/Desktop/camera/libraries/sdk/Peripheral/ch32v30x_rcc.c:564
    presc = APBAHBPrescTable[tmp];
    24a2:	200007b7          	lui	a5,0x20000
    24a6:	04478713          	addi	a4,a5,68 # 20000044 <APBAHBPrescTable>
    24aa:	fe442783          	lw	a5,-28(s0)
    24ae:	97ba                	add	a5,a5,a4
    24b0:	0007c783          	lbu	a5,0(a5)
    24b4:	0ff7f793          	andi	a5,a5,255
    24b8:	fcf42e23          	sw	a5,-36(s0)
C:/Users/Yaner/Desktop/camera/libraries/sdk/Peripheral/ch32v30x_rcc.c:565
    RCC_Clocks->PCLK2_Frequency = RCC_Clocks->HCLK_Frequency >> presc;
    24bc:	fcc42783          	lw	a5,-52(s0)
    24c0:	43d8                	lw	a4,4(a5)
    24c2:	fdc42783          	lw	a5,-36(s0)
    24c6:	00f75733          	srl	a4,a4,a5
    24ca:	fcc42783          	lw	a5,-52(s0)
    24ce:	c7d8                	sw	a4,12(a5)
C:/Users/Yaner/Desktop/camera/libraries/sdk/Peripheral/ch32v30x_rcc.c:566
    tmp = RCC->CFGR0 & CFGR0_ADCPRE_Set_Mask;
    24d0:	400217b7          	lui	a5,0x40021
    24d4:	43d8                	lw	a4,4(a5)
    24d6:	67b1                	lui	a5,0xc
    24d8:	8ff9                	and	a5,a5,a4
    24da:	fef42223          	sw	a5,-28(s0)
C:/Users/Yaner/Desktop/camera/libraries/sdk/Peripheral/ch32v30x_rcc.c:567
    tmp = tmp >> 14;
    24de:	fe442783          	lw	a5,-28(s0)
    24e2:	83b9                	srli	a5,a5,0xe
    24e4:	fef42223          	sw	a5,-28(s0)
C:/Users/Yaner/Desktop/camera/libraries/sdk/Peripheral/ch32v30x_rcc.c:568
    presc = ADCPrescTable[tmp];
    24e8:	200007b7          	lui	a5,0x20000
    24ec:	0fc78713          	addi	a4,a5,252 # 200000fc <ADCPrescTable>
    24f0:	fe442783          	lw	a5,-28(s0)
    24f4:	97ba                	add	a5,a5,a4
    24f6:	0007c783          	lbu	a5,0(a5)
    24fa:	0ff7f793          	andi	a5,a5,255
    24fe:	fcf42e23          	sw	a5,-36(s0)
C:/Users/Yaner/Desktop/camera/libraries/sdk/Peripheral/ch32v30x_rcc.c:569
    RCC_Clocks->ADCCLK_Frequency = RCC_Clocks->PCLK2_Frequency / presc;
    2502:	fcc42783          	lw	a5,-52(s0)
    2506:	47d8                	lw	a4,12(a5)
    2508:	fdc42783          	lw	a5,-36(s0)
    250c:	02f75733          	divu	a4,a4,a5
    2510:	fcc42783          	lw	a5,-52(s0)
    2514:	cb98                	sw	a4,16(a5)
C:/Users/Yaner/Desktop/camera/libraries/sdk/Peripheral/ch32v30x_rcc.c:570
}
    2516:	0001                	nop
    2518:	5472                	lw	s0,60(sp)
    251a:	6121                	addi	sp,sp,64
    251c:	8082                	ret

0000251e <RCC_APB2PeriphClockCmd>:
RCC_APB2PeriphClockCmd():
C:/Users/Yaner/Desktop/camera/libraries/sdk/Peripheral/ch32v30x_rcc.c:627
*                    RCC_APB2Periph_USART1.
*                  NewState: ENABLE or DISABLE
* Return         : None
*******************************************************************************/	
void RCC_APB2PeriphClockCmd(uint32_t RCC_APB2Periph, FunctionalState NewState)
{
    251e:	1101                	addi	sp,sp,-32
    2520:	ce22                	sw	s0,28(sp)
    2522:	1000                	addi	s0,sp,32
    2524:	fea42623          	sw	a0,-20(s0)
    2528:	feb42423          	sw	a1,-24(s0)
C:/Users/Yaner/Desktop/camera/libraries/sdk/Peripheral/ch32v30x_rcc.c:628
  if (NewState != DISABLE)
    252c:	fe842783          	lw	a5,-24(s0)
    2530:	cb99                	beqz	a5,2546 <RCC_APB2PeriphClockCmd+0x28>
C:/Users/Yaner/Desktop/camera/libraries/sdk/Peripheral/ch32v30x_rcc.c:630
  {
    RCC->APB2PCENR |= RCC_APB2Periph;
    2532:	400217b7          	lui	a5,0x40021
    2536:	4f94                	lw	a3,24(a5)
    2538:	400217b7          	lui	a5,0x40021
    253c:	fec42703          	lw	a4,-20(s0)
    2540:	8f55                	or	a4,a4,a3
    2542:	cf98                	sw	a4,24(a5)
C:/Users/Yaner/Desktop/camera/libraries/sdk/Peripheral/ch32v30x_rcc.c:636
  }
  else
  {
    RCC->APB2PCENR &= ~RCC_APB2Periph;
  }
}
    2544:	a821                	j	255c <RCC_APB2PeriphClockCmd+0x3e>
C:/Users/Yaner/Desktop/camera/libraries/sdk/Peripheral/ch32v30x_rcc.c:634
    RCC->APB2PCENR &= ~RCC_APB2Periph;
    2546:	400217b7          	lui	a5,0x40021
    254a:	4f94                	lw	a3,24(a5)
    254c:	fec42783          	lw	a5,-20(s0)
    2550:	fff7c713          	not	a4,a5
    2554:	400217b7          	lui	a5,0x40021
    2558:	8f75                	and	a4,a4,a3
    255a:	cf98                	sw	a4,24(a5)
C:/Users/Yaner/Desktop/camera/libraries/sdk/Peripheral/ch32v30x_rcc.c:636
}
    255c:	0001                	nop
    255e:	4472                	lw	s0,28(sp)
    2560:	6105                	addi	sp,sp,32
    2562:	8082                	ret

00002564 <RCC_APB1PeriphClockCmd>:
RCC_APB1PeriphClockCmd():
C:/Users/Yaner/Desktop/camera/libraries/sdk/Peripheral/ch32v30x_rcc.c:668
*                    RCC_APB1Periph_DAC.                
*                  NewState: ENABLE or DISABLE.
* Return         : None
*******************************************************************************/	
void RCC_APB1PeriphClockCmd(uint32_t RCC_APB1Periph, FunctionalState NewState)
{
    2564:	1101                	addi	sp,sp,-32
    2566:	ce22                	sw	s0,28(sp)
    2568:	1000                	addi	s0,sp,32
    256a:	fea42623          	sw	a0,-20(s0)
    256e:	feb42423          	sw	a1,-24(s0)
C:/Users/Yaner/Desktop/camera/libraries/sdk/Peripheral/ch32v30x_rcc.c:669
  if (NewState != DISABLE)
    2572:	fe842783          	lw	a5,-24(s0)
    2576:	cb99                	beqz	a5,258c <RCC_APB1PeriphClockCmd+0x28>
C:/Users/Yaner/Desktop/camera/libraries/sdk/Peripheral/ch32v30x_rcc.c:671
  {
    RCC->APB1PCENR |= RCC_APB1Periph;
    2578:	400217b7          	lui	a5,0x40021
    257c:	4fd4                	lw	a3,28(a5)
    257e:	400217b7          	lui	a5,0x40021
    2582:	fec42703          	lw	a4,-20(s0)
    2586:	8f55                	or	a4,a4,a3
    2588:	cfd8                	sw	a4,28(a5)
C:/Users/Yaner/Desktop/camera/libraries/sdk/Peripheral/ch32v30x_rcc.c:677
  }
  else
  {
    RCC->APB1PCENR &= ~RCC_APB1Periph;
  }
}
    258a:	a821                	j	25a2 <RCC_APB1PeriphClockCmd+0x3e>
C:/Users/Yaner/Desktop/camera/libraries/sdk/Peripheral/ch32v30x_rcc.c:675
    RCC->APB1PCENR &= ~RCC_APB1Periph;
    258c:	400217b7          	lui	a5,0x40021
    2590:	4fd4                	lw	a3,28(a5)
    2592:	fec42783          	lw	a5,-20(s0)
    2596:	fff7c713          	not	a4,a5
    259a:	400217b7          	lui	a5,0x40021
    259e:	8f75                	and	a4,a4,a3
    25a0:	cfd8                	sw	a4,28(a5)
C:/Users/Yaner/Desktop/camera/libraries/sdk/Peripheral/ch32v30x_rcc.c:677
}
    25a2:	0001                	nop
    25a4:	4472                	lw	s0,28(sp)
    25a6:	6105                	addi	sp,sp,32
    25a8:	8082                	ret

000025aa <TIM_GetITStatus>:
TIM_GetITStatus():
C:/Users/Yaner/Desktop/camera/libraries/sdk/Peripheral/ch32v30x_tim.c:1887
*                    TIM_IT_Trigger: TIM Trigger Interrupt source.
*                    TIM_IT_Break: TIM Break Interrupt source.
* Return         : bitstatus: SET or RESET.
*******************************************************************************/
ITStatus TIM_GetITStatus(TIM_TypeDef* TIMx, uint16_t TIM_IT)
{
    25aa:	7179                	addi	sp,sp,-48
    25ac:	d622                	sw	s0,44(sp)
    25ae:	1800                	addi	s0,sp,48
    25b0:	fca42e23          	sw	a0,-36(s0)
    25b4:	87ae                	mv	a5,a1
    25b6:	fcf41d23          	sh	a5,-38(s0)
C:/Users/Yaner/Desktop/camera/libraries/sdk/Peripheral/ch32v30x_tim.c:1888
  ITStatus bitstatus = RESET;  
    25ba:	fe042623          	sw	zero,-20(s0)
C:/Users/Yaner/Desktop/camera/libraries/sdk/Peripheral/ch32v30x_tim.c:1889
  uint16_t itstatus = 0x0, itenable = 0x0;
    25be:	fe041523          	sh	zero,-22(s0)
    25c2:	fe041423          	sh	zero,-24(s0)
C:/Users/Yaner/Desktop/camera/libraries/sdk/Peripheral/ch32v30x_tim.c:1891
   
  itstatus = TIMx->INTFR & TIM_IT;
    25c6:	fdc42783          	lw	a5,-36(s0)
    25ca:	0107d783          	lhu	a5,16(a5) # 40021010 <_eusrstack+0x20011010>
    25ce:	01079713          	slli	a4,a5,0x10
    25d2:	8341                	srli	a4,a4,0x10
    25d4:	fda45783          	lhu	a5,-38(s0)
    25d8:	8ff9                	and	a5,a5,a4
    25da:	fef41523          	sh	a5,-22(s0)
C:/Users/Yaner/Desktop/camera/libraries/sdk/Peripheral/ch32v30x_tim.c:1893
  
  itenable = TIMx->DMAINTENR & TIM_IT;
    25de:	fdc42783          	lw	a5,-36(s0)
    25e2:	00c7d783          	lhu	a5,12(a5)
    25e6:	01079713          	slli	a4,a5,0x10
    25ea:	8341                	srli	a4,a4,0x10
    25ec:	fda45783          	lhu	a5,-38(s0)
    25f0:	8ff9                	and	a5,a5,a4
    25f2:	fef41423          	sh	a5,-24(s0)
C:/Users/Yaner/Desktop/camera/libraries/sdk/Peripheral/ch32v30x_tim.c:1894
  if ((itstatus != (uint16_t)RESET) && (itenable != (uint16_t)RESET))
    25f6:	fea45783          	lhu	a5,-22(s0)
    25fa:	cb81                	beqz	a5,260a <TIM_GetITStatus+0x60>
C:/Users/Yaner/Desktop/camera/libraries/sdk/Peripheral/ch32v30x_tim.c:1894 (discriminator 1)
    25fc:	fe845783          	lhu	a5,-24(s0)
    2600:	c789                	beqz	a5,260a <TIM_GetITStatus+0x60>
C:/Users/Yaner/Desktop/camera/libraries/sdk/Peripheral/ch32v30x_tim.c:1896
  {
    bitstatus = SET;
    2602:	4785                	li	a5,1
    2604:	fef42623          	sw	a5,-20(s0)
    2608:	a019                	j	260e <TIM_GetITStatus+0x64>
C:/Users/Yaner/Desktop/camera/libraries/sdk/Peripheral/ch32v30x_tim.c:1900
  }
  else
  {
    bitstatus = RESET;
    260a:	fe042623          	sw	zero,-20(s0)
C:/Users/Yaner/Desktop/camera/libraries/sdk/Peripheral/ch32v30x_tim.c:1903
  }
	
  return bitstatus;
    260e:	fec42783          	lw	a5,-20(s0)
C:/Users/Yaner/Desktop/camera/libraries/sdk/Peripheral/ch32v30x_tim.c:1904
}
    2612:	853e                	mv	a0,a5
    2614:	5432                	lw	s0,44(sp)
    2616:	6145                	addi	sp,sp,48
    2618:	8082                	ret

0000261a <TIM_ClearITPendingBit>:
TIM_ClearITPendingBit():
C:/Users/Yaner/Desktop/camera/libraries/sdk/Peripheral/ch32v30x_tim.c:1922
*                    TIM_IT_Trigger: TIM Trigger Interrupt source.
*                    TIM_IT_Break: TIM Break Interrupt source.
* Return         : None
*******************************************************************************/
void TIM_ClearITPendingBit(TIM_TypeDef* TIMx, uint16_t TIM_IT)
{
    261a:	1101                	addi	sp,sp,-32
    261c:	ce22                	sw	s0,28(sp)
    261e:	1000                	addi	s0,sp,32
    2620:	fea42623          	sw	a0,-20(s0)
    2624:	87ae                	mv	a5,a1
    2626:	fef41523          	sh	a5,-22(s0)
C:/Users/Yaner/Desktop/camera/libraries/sdk/Peripheral/ch32v30x_tim.c:1923
  TIMx->INTFR = (uint16_t)~TIM_IT;
    262a:	fea45783          	lhu	a5,-22(s0)
    262e:	fff7c793          	not	a5,a5
    2632:	01079713          	slli	a4,a5,0x10
    2636:	8341                	srli	a4,a4,0x10
    2638:	fec42783          	lw	a5,-20(s0)
    263c:	00e79823          	sh	a4,16(a5)
C:/Users/Yaner/Desktop/camera/libraries/sdk/Peripheral/ch32v30x_tim.c:1924
}
    2640:	0001                	nop
    2642:	4472                	lw	s0,28(sp)
    2644:	6105                	addi	sp,sp,32
    2646:	8082                	ret

00002648 <USART_Init>:
USART_Init():
C:/Users/Yaner/Desktop/camera/libraries/sdk/Peripheral/ch32v30x_usart.c:105
*                  USART_InitStruct: pointer to a USART_InitTypeDef structure
*      that contains the configuration information for the specified USART peripheral. 
* Return         : None
*******************************************************************************/
void USART_Init(USART_TypeDef* USARTx, USART_InitTypeDef* USART_InitStruct)
{
    2648:	715d                	addi	sp,sp,-80
    264a:	c686                	sw	ra,76(sp)
    264c:	c4a2                	sw	s0,72(sp)
    264e:	0880                	addi	s0,sp,80
    2650:	faa42e23          	sw	a0,-68(s0)
    2654:	fab42c23          	sw	a1,-72(s0)
C:/Users/Yaner/Desktop/camera/libraries/sdk/Peripheral/ch32v30x_usart.c:106
  uint32_t tmpreg = 0x00, apbclock = 0x00;
    2658:	fe042623          	sw	zero,-20(s0)
    265c:	fe042423          	sw	zero,-24(s0)
C:/Users/Yaner/Desktop/camera/libraries/sdk/Peripheral/ch32v30x_usart.c:107
  uint32_t integerdivider = 0x00;
    2660:	fe042223          	sw	zero,-28(s0)
C:/Users/Yaner/Desktop/camera/libraries/sdk/Peripheral/ch32v30x_usart.c:108
  uint32_t fractionaldivider = 0x00;
    2664:	fe042023          	sw	zero,-32(s0)
C:/Users/Yaner/Desktop/camera/libraries/sdk/Peripheral/ch32v30x_usart.c:109
  uint32_t usartxbase = 0;
    2668:	fc042e23          	sw	zero,-36(s0)
C:/Users/Yaner/Desktop/camera/libraries/sdk/Peripheral/ch32v30x_usart.c:116

  if (USART_InitStruct->USART_HardwareFlowControl != USART_HardwareFlowControl_None)
  {
  }

  usartxbase = (uint32_t)USARTx;
    266c:	fbc42783          	lw	a5,-68(s0)
    2670:	fcf42e23          	sw	a5,-36(s0)
C:/Users/Yaner/Desktop/camera/libraries/sdk/Peripheral/ch32v30x_usart.c:117
  tmpreg = USARTx->CTLR2;
    2674:	fbc42783          	lw	a5,-68(s0)
    2678:	0107d783          	lhu	a5,16(a5)
    267c:	07c2                	slli	a5,a5,0x10
    267e:	83c1                	srli	a5,a5,0x10
    2680:	fef42623          	sw	a5,-20(s0)
C:/Users/Yaner/Desktop/camera/libraries/sdk/Peripheral/ch32v30x_usart.c:118
  tmpreg &= CTLR2_STOP_CLEAR_Mask;
    2684:	fec42703          	lw	a4,-20(s0)
    2688:	67b5                	lui	a5,0xd
    268a:	17fd                	addi	a5,a5,-1
    268c:	8ff9                	and	a5,a5,a4
    268e:	fef42623          	sw	a5,-20(s0)
C:/Users/Yaner/Desktop/camera/libraries/sdk/Peripheral/ch32v30x_usart.c:119
  tmpreg |= (uint32_t)USART_InitStruct->USART_StopBits;  
    2692:	fb842783          	lw	a5,-72(s0)
    2696:	0067d783          	lhu	a5,6(a5) # d006 <_data_lma+0x8016>
    269a:	873e                	mv	a4,a5
    269c:	fec42783          	lw	a5,-20(s0)
    26a0:	8fd9                	or	a5,a5,a4
    26a2:	fef42623          	sw	a5,-20(s0)
C:/Users/Yaner/Desktop/camera/libraries/sdk/Peripheral/ch32v30x_usart.c:121
	
  USARTx->CTLR2 = (uint16_t)tmpreg;
    26a6:	fec42783          	lw	a5,-20(s0)
    26aa:	01079713          	slli	a4,a5,0x10
    26ae:	8341                	srli	a4,a4,0x10
    26b0:	fbc42783          	lw	a5,-68(s0)
    26b4:	00e79823          	sh	a4,16(a5)
C:/Users/Yaner/Desktop/camera/libraries/sdk/Peripheral/ch32v30x_usart.c:122
  tmpreg = USARTx->CTLR1;
    26b8:	fbc42783          	lw	a5,-68(s0)
    26bc:	00c7d783          	lhu	a5,12(a5)
    26c0:	07c2                	slli	a5,a5,0x10
    26c2:	83c1                	srli	a5,a5,0x10
    26c4:	fef42623          	sw	a5,-20(s0)
C:/Users/Yaner/Desktop/camera/libraries/sdk/Peripheral/ch32v30x_usart.c:123
  tmpreg &= CTLR1_CLEAR_Mask;
    26c8:	fec42703          	lw	a4,-20(s0)
    26cc:	67bd                	lui	a5,0xf
    26ce:	9f378793          	addi	a5,a5,-1549 # e9f3 <_data_lma+0x9a03>
    26d2:	8ff9                	and	a5,a5,a4
    26d4:	fef42623          	sw	a5,-20(s0)
C:/Users/Yaner/Desktop/camera/libraries/sdk/Peripheral/ch32v30x_usart.c:124
  tmpreg |= (uint32_t)USART_InitStruct->USART_WordLength | USART_InitStruct->USART_Parity |
    26d8:	fb842783          	lw	a5,-72(s0)
    26dc:	0047d703          	lhu	a4,4(a5)
    26e0:	fb842783          	lw	a5,-72(s0)
    26e4:	0087d783          	lhu	a5,8(a5)
    26e8:	8fd9                	or	a5,a5,a4
    26ea:	01079713          	slli	a4,a5,0x10
    26ee:	8341                	srli	a4,a4,0x10
C:/Users/Yaner/Desktop/camera/libraries/sdk/Peripheral/ch32v30x_usart.c:125
            USART_InitStruct->USART_Mode;
    26f0:	fb842783          	lw	a5,-72(s0)
    26f4:	00a7d783          	lhu	a5,10(a5)
C:/Users/Yaner/Desktop/camera/libraries/sdk/Peripheral/ch32v30x_usart.c:124
  tmpreg |= (uint32_t)USART_InitStruct->USART_WordLength | USART_InitStruct->USART_Parity |
    26f8:	8fd9                	or	a5,a5,a4
    26fa:	07c2                	slli	a5,a5,0x10
    26fc:	83c1                	srli	a5,a5,0x10
    26fe:	873e                	mv	a4,a5
    2700:	fec42783          	lw	a5,-20(s0)
    2704:	8fd9                	or	a5,a5,a4
    2706:	fef42623          	sw	a5,-20(s0)
C:/Users/Yaner/Desktop/camera/libraries/sdk/Peripheral/ch32v30x_usart.c:126
  USARTx->CTLR1 = (uint16_t)tmpreg;
    270a:	fec42783          	lw	a5,-20(s0)
    270e:	01079713          	slli	a4,a5,0x10
    2712:	8341                	srli	a4,a4,0x10
    2714:	fbc42783          	lw	a5,-68(s0)
    2718:	00e79623          	sh	a4,12(a5)
C:/Users/Yaner/Desktop/camera/libraries/sdk/Peripheral/ch32v30x_usart.c:128
 
  tmpreg = USARTx->CTLR3;
    271c:	fbc42783          	lw	a5,-68(s0)
    2720:	0147d783          	lhu	a5,20(a5)
    2724:	07c2                	slli	a5,a5,0x10
    2726:	83c1                	srli	a5,a5,0x10
    2728:	fef42623          	sw	a5,-20(s0)
C:/Users/Yaner/Desktop/camera/libraries/sdk/Peripheral/ch32v30x_usart.c:129
  tmpreg &= CTLR3_CLEAR_Mask;
    272c:	fec42703          	lw	a4,-20(s0)
    2730:	67c1                	lui	a5,0x10
    2732:	cff78793          	addi	a5,a5,-769 # fcff <_data_lma+0xad0f>
    2736:	8ff9                	and	a5,a5,a4
    2738:	fef42623          	sw	a5,-20(s0)
C:/Users/Yaner/Desktop/camera/libraries/sdk/Peripheral/ch32v30x_usart.c:130
  tmpreg |= USART_InitStruct->USART_HardwareFlowControl;
    273c:	fb842783          	lw	a5,-72(s0)
    2740:	00c7d783          	lhu	a5,12(a5)
    2744:	873e                	mv	a4,a5
    2746:	fec42783          	lw	a5,-20(s0)
    274a:	8fd9                	or	a5,a5,a4
    274c:	fef42623          	sw	a5,-20(s0)
C:/Users/Yaner/Desktop/camera/libraries/sdk/Peripheral/ch32v30x_usart.c:131
  USARTx->CTLR3 = (uint16_t)tmpreg;
    2750:	fec42783          	lw	a5,-20(s0)
    2754:	01079713          	slli	a4,a5,0x10
    2758:	8341                	srli	a4,a4,0x10
    275a:	fbc42783          	lw	a5,-68(s0)
    275e:	00e79a23          	sh	a4,20(a5)
C:/Users/Yaner/Desktop/camera/libraries/sdk/Peripheral/ch32v30x_usart.c:133

  RCC_GetClocksFreq(&RCC_ClocksStatus);
    2762:	fc840793          	addi	a5,s0,-56
    2766:	853e                	mv	a0,a5
    2768:	aedff0ef          	jal	ra,2254 <RCC_GetClocksFreq>
C:/Users/Yaner/Desktop/camera/libraries/sdk/Peripheral/ch32v30x_usart.c:135
	
  if (usartxbase == USART1_BASE)
    276c:	fdc42703          	lw	a4,-36(s0)
    2770:	400147b7          	lui	a5,0x40014
    2774:	80078793          	addi	a5,a5,-2048 # 40013800 <_eusrstack+0x20003800>
    2778:	00f71763          	bne	a4,a5,2786 <USART_Init+0x13e>
C:/Users/Yaner/Desktop/camera/libraries/sdk/Peripheral/ch32v30x_usart.c:137
  {
    apbclock = RCC_ClocksStatus.PCLK2_Frequency;
    277c:	fd442783          	lw	a5,-44(s0)
    2780:	fef42423          	sw	a5,-24(s0)
    2784:	a029                	j	278e <USART_Init+0x146>
C:/Users/Yaner/Desktop/camera/libraries/sdk/Peripheral/ch32v30x_usart.c:141
  }
  else
  {
    apbclock = RCC_ClocksStatus.PCLK1_Frequency;
    2786:	fd042783          	lw	a5,-48(s0)
    278a:	fef42423          	sw	a5,-24(s0)
C:/Users/Yaner/Desktop/camera/libraries/sdk/Peripheral/ch32v30x_usart.c:144
  }
  
  if ((USARTx->CTLR1 & CTLR1_OVER8_Set) != 0)
    278e:	fbc42783          	lw	a5,-68(s0)
    2792:	00c7d783          	lhu	a5,12(a5)
    2796:	07c2                	slli	a5,a5,0x10
    2798:	83c1                	srli	a5,a5,0x10
    279a:	07c2                	slli	a5,a5,0x10
    279c:	87c1                	srai	a5,a5,0x10
    279e:	0207d263          	bgez	a5,27c2 <USART_Init+0x17a>
C:/Users/Yaner/Desktop/camera/libraries/sdk/Peripheral/ch32v30x_usart.c:146
  {
    integerdivider = ((25 * apbclock) / (2 * (USART_InitStruct->USART_BaudRate)));    
    27a2:	fe842703          	lw	a4,-24(s0)
    27a6:	87ba                	mv	a5,a4
    27a8:	0786                	slli	a5,a5,0x1
    27aa:	97ba                	add	a5,a5,a4
    27ac:	078e                	slli	a5,a5,0x3
    27ae:	973e                	add	a4,a4,a5
    27b0:	fb842783          	lw	a5,-72(s0)
    27b4:	439c                	lw	a5,0(a5)
    27b6:	0786                	slli	a5,a5,0x1
    27b8:	02f757b3          	divu	a5,a4,a5
    27bc:	fef42223          	sw	a5,-28(s0)
    27c0:	a005                	j	27e0 <USART_Init+0x198>
C:/Users/Yaner/Desktop/camera/libraries/sdk/Peripheral/ch32v30x_usart.c:150
  }
  else 
  {
    integerdivider = ((25 * apbclock) / (4 * (USART_InitStruct->USART_BaudRate)));    
    27c2:	fe842703          	lw	a4,-24(s0)
    27c6:	87ba                	mv	a5,a4
    27c8:	0786                	slli	a5,a5,0x1
    27ca:	97ba                	add	a5,a5,a4
    27cc:	078e                	slli	a5,a5,0x3
    27ce:	973e                	add	a4,a4,a5
    27d0:	fb842783          	lw	a5,-72(s0)
    27d4:	439c                	lw	a5,0(a5)
    27d6:	078a                	slli	a5,a5,0x2
    27d8:	02f757b3          	divu	a5,a4,a5
    27dc:	fef42223          	sw	a5,-28(s0)
C:/Users/Yaner/Desktop/camera/libraries/sdk/Peripheral/ch32v30x_usart.c:152
  }
  tmpreg = (integerdivider / 100) << 4;
    27e0:	fe442703          	lw	a4,-28(s0)
    27e4:	06400793          	li	a5,100
    27e8:	02f757b3          	divu	a5,a4,a5
    27ec:	0792                	slli	a5,a5,0x4
    27ee:	fef42623          	sw	a5,-20(s0)
C:/Users/Yaner/Desktop/camera/libraries/sdk/Peripheral/ch32v30x_usart.c:154

  fractionaldivider = integerdivider - (100 * (tmpreg >> 4));
    27f2:	fec42783          	lw	a5,-20(s0)
    27f6:	0047d713          	srli	a4,a5,0x4
    27fa:	06400793          	li	a5,100
    27fe:	02f707b3          	mul	a5,a4,a5
    2802:	fe442703          	lw	a4,-28(s0)
    2806:	40f707b3          	sub	a5,a4,a5
    280a:	fef42023          	sw	a5,-32(s0)
C:/Users/Yaner/Desktop/camera/libraries/sdk/Peripheral/ch32v30x_usart.c:156

  if ((USARTx->CTLR1 & CTLR1_OVER8_Set) != 0)
    280e:	fbc42783          	lw	a5,-68(s0)
    2812:	00c7d783          	lhu	a5,12(a5)
    2816:	07c2                	slli	a5,a5,0x10
    2818:	83c1                	srli	a5,a5,0x10
    281a:	07c2                	slli	a5,a5,0x10
    281c:	87c1                	srai	a5,a5,0x10
    281e:	0207d263          	bgez	a5,2842 <USART_Init+0x1fa>
C:/Users/Yaner/Desktop/camera/libraries/sdk/Peripheral/ch32v30x_usart.c:158
  {
    tmpreg |= ((((fractionaldivider * 8) + 50) / 100)) & ((uint8_t)0x07);
    2822:	fe042783          	lw	a5,-32(s0)
    2826:	078e                	slli	a5,a5,0x3
    2828:	03278713          	addi	a4,a5,50
    282c:	06400793          	li	a5,100
    2830:	02f757b3          	divu	a5,a4,a5
    2834:	8b9d                	andi	a5,a5,7
    2836:	fec42703          	lw	a4,-20(s0)
    283a:	8fd9                	or	a5,a5,a4
    283c:	fef42623          	sw	a5,-20(s0)
    2840:	a005                	j	2860 <USART_Init+0x218>
C:/Users/Yaner/Desktop/camera/libraries/sdk/Peripheral/ch32v30x_usart.c:162
  }
  else 
  {
    tmpreg |= ((((fractionaldivider * 16) + 50) / 100)) & ((uint8_t)0x0F);
    2842:	fe042783          	lw	a5,-32(s0)
    2846:	0792                	slli	a5,a5,0x4
    2848:	03278713          	addi	a4,a5,50
    284c:	06400793          	li	a5,100
    2850:	02f757b3          	divu	a5,a4,a5
    2854:	8bbd                	andi	a5,a5,15
    2856:	fec42703          	lw	a4,-20(s0)
    285a:	8fd9                	or	a5,a5,a4
    285c:	fef42623          	sw	a5,-20(s0)
C:/Users/Yaner/Desktop/camera/libraries/sdk/Peripheral/ch32v30x_usart.c:165
  }
  
  USARTx->BRR = (uint16_t)tmpreg;
    2860:	fec42783          	lw	a5,-20(s0)
    2864:	01079713          	slli	a4,a5,0x10
    2868:	8341                	srli	a4,a4,0x10
    286a:	fbc42783          	lw	a5,-68(s0)
    286e:	00e79423          	sh	a4,8(a5)
C:/Users/Yaner/Desktop/camera/libraries/sdk/Peripheral/ch32v30x_usart.c:166
}
    2872:	0001                	nop
    2874:	40b6                	lw	ra,76(sp)
    2876:	4426                	lw	s0,72(sp)
    2878:	6161                	addi	sp,sp,80
    287a:	8082                	ret

0000287c <USART_Cmd>:
USART_Cmd():
C:/Users/Yaner/Desktop/camera/libraries/sdk/Peripheral/ch32v30x_usart.c:229
* Input          : USARTx: where x can be 1, 2, 3 to select the USART peripheral.
*                  NewState: ENABLE or DISABLE.
* Return         : None
*******************************************************************************/
void USART_Cmd(USART_TypeDef* USARTx, FunctionalState NewState)
{
    287c:	1101                	addi	sp,sp,-32
    287e:	ce22                	sw	s0,28(sp)
    2880:	1000                	addi	s0,sp,32
    2882:	fea42623          	sw	a0,-20(s0)
    2886:	feb42423          	sw	a1,-24(s0)
C:/Users/Yaner/Desktop/camera/libraries/sdk/Peripheral/ch32v30x_usart.c:230
  if (NewState != DISABLE)
    288a:	fe842783          	lw	a5,-24(s0)
    288e:	c395                	beqz	a5,28b2 <USART_Cmd+0x36>
C:/Users/Yaner/Desktop/camera/libraries/sdk/Peripheral/ch32v30x_usart.c:232
  {
    USARTx->CTLR1 |= CTLR1_UE_Set;
    2890:	fec42783          	lw	a5,-20(s0)
    2894:	00c7d783          	lhu	a5,12(a5)
    2898:	01079713          	slli	a4,a5,0x10
    289c:	8341                	srli	a4,a4,0x10
    289e:	6789                	lui	a5,0x2
    28a0:	8fd9                	or	a5,a5,a4
    28a2:	01079713          	slli	a4,a5,0x10
    28a6:	8341                	srli	a4,a4,0x10
    28a8:	fec42783          	lw	a5,-20(s0)
    28ac:	00e79623          	sh	a4,12(a5) # 200c <GPIO_Init+0x156>
C:/Users/Yaner/Desktop/camera/libraries/sdk/Peripheral/ch32v30x_usart.c:238
  }
  else
  {
    USARTx->CTLR1 &= CTLR1_UE_Reset;
  }
}
    28b0:	a015                	j	28d4 <USART_Cmd+0x58>
C:/Users/Yaner/Desktop/camera/libraries/sdk/Peripheral/ch32v30x_usart.c:236
    USARTx->CTLR1 &= CTLR1_UE_Reset;
    28b2:	fec42783          	lw	a5,-20(s0)
    28b6:	00c7d783          	lhu	a5,12(a5)
    28ba:	01079713          	slli	a4,a5,0x10
    28be:	8341                	srli	a4,a4,0x10
    28c0:	77f9                	lui	a5,0xffffe
    28c2:	17fd                	addi	a5,a5,-1
    28c4:	8ff9                	and	a5,a5,a4
    28c6:	01079713          	slli	a4,a5,0x10
    28ca:	8341                	srli	a4,a4,0x10
    28cc:	fec42783          	lw	a5,-20(s0)
    28d0:	00e79623          	sh	a4,12(a5) # ffffe00c <_eusrstack+0xdffee00c>
C:/Users/Yaner/Desktop/camera/libraries/sdk/Peripheral/ch32v30x_usart.c:238
}
    28d4:	0001                	nop
    28d6:	4472                	lw	s0,28(sp)
    28d8:	6105                	addi	sp,sp,32
    28da:	8082                	ret

000028dc <USART_ITConfig>:
USART_ITConfig():
C:/Users/Yaner/Desktop/camera/libraries/sdk/Peripheral/ch32v30x_usart.c:257
*                    USART_IT_ERR:  Error interrupt.
*                  NewState: ENABLE or DISABLE.
* Return         : None
*******************************************************************************/
void USART_ITConfig(USART_TypeDef* USARTx, uint16_t USART_IT, FunctionalState NewState)
{
    28dc:	7179                	addi	sp,sp,-48
    28de:	d622                	sw	s0,44(sp)
    28e0:	1800                	addi	s0,sp,48
    28e2:	fca42e23          	sw	a0,-36(s0)
    28e6:	87ae                	mv	a5,a1
    28e8:	fcc42a23          	sw	a2,-44(s0)
    28ec:	fcf41d23          	sh	a5,-38(s0)
C:/Users/Yaner/Desktop/camera/libraries/sdk/Peripheral/ch32v30x_usart.c:258
  uint32_t usartreg = 0x00, itpos = 0x00, itmask = 0x00;
    28f0:	fe042423          	sw	zero,-24(s0)
    28f4:	fe042223          	sw	zero,-28(s0)
    28f8:	fe042023          	sw	zero,-32(s0)
C:/Users/Yaner/Desktop/camera/libraries/sdk/Peripheral/ch32v30x_usart.c:259
  uint32_t usartxbase = 0x00;
    28fc:	fe042623          	sw	zero,-20(s0)
C:/Users/Yaner/Desktop/camera/libraries/sdk/Peripheral/ch32v30x_usart.c:265

  if (USART_IT == USART_IT_CTS)
  {
  }   
  
  usartxbase = (uint32_t)USARTx;
    2900:	fdc42783          	lw	a5,-36(s0)
    2904:	fef42623          	sw	a5,-20(s0)
C:/Users/Yaner/Desktop/camera/libraries/sdk/Peripheral/ch32v30x_usart.c:266
  usartreg = (((uint8_t)USART_IT) >> 0x05);
    2908:	fda45783          	lhu	a5,-38(s0)
    290c:	0ff7f793          	andi	a5,a5,255
    2910:	8395                	srli	a5,a5,0x5
    2912:	0ff7f793          	andi	a5,a5,255
    2916:	fef42423          	sw	a5,-24(s0)
C:/Users/Yaner/Desktop/camera/libraries/sdk/Peripheral/ch32v30x_usart.c:267
  itpos = USART_IT & IT_Mask;
    291a:	fda45783          	lhu	a5,-38(s0)
    291e:	8bfd                	andi	a5,a5,31
    2920:	fef42223          	sw	a5,-28(s0)
C:/Users/Yaner/Desktop/camera/libraries/sdk/Peripheral/ch32v30x_usart.c:268
  itmask = (((uint32_t)0x01) << itpos);
    2924:	fe442783          	lw	a5,-28(s0)
    2928:	4705                	li	a4,1
    292a:	00f717b3          	sll	a5,a4,a5
    292e:	fef42023          	sw	a5,-32(s0)
C:/Users/Yaner/Desktop/camera/libraries/sdk/Peripheral/ch32v30x_usart.c:270
    
  if (usartreg == 0x01) 
    2932:	fe842703          	lw	a4,-24(s0)
    2936:	4785                	li	a5,1
    2938:	00f71863          	bne	a4,a5,2948 <USART_ITConfig+0x6c>
C:/Users/Yaner/Desktop/camera/libraries/sdk/Peripheral/ch32v30x_usart.c:272
  {
    usartxbase += 0x0C;
    293c:	fec42783          	lw	a5,-20(s0)
    2940:	07b1                	addi	a5,a5,12
    2942:	fef42623          	sw	a5,-20(s0)
    2946:	a00d                	j	2968 <USART_ITConfig+0x8c>
C:/Users/Yaner/Desktop/camera/libraries/sdk/Peripheral/ch32v30x_usart.c:274
  }
  else if (usartreg == 0x02) 
    2948:	fe842703          	lw	a4,-24(s0)
    294c:	4789                	li	a5,2
    294e:	00f71863          	bne	a4,a5,295e <USART_ITConfig+0x82>
C:/Users/Yaner/Desktop/camera/libraries/sdk/Peripheral/ch32v30x_usart.c:276
  {
    usartxbase += 0x10;
    2952:	fec42783          	lw	a5,-20(s0)
    2956:	07c1                	addi	a5,a5,16
    2958:	fef42623          	sw	a5,-20(s0)
    295c:	a031                	j	2968 <USART_ITConfig+0x8c>
C:/Users/Yaner/Desktop/camera/libraries/sdk/Peripheral/ch32v30x_usart.c:280
  }
  else 
  {
    usartxbase += 0x14; 
    295e:	fec42783          	lw	a5,-20(s0)
    2962:	07d1                	addi	a5,a5,20
    2964:	fef42623          	sw	a5,-20(s0)
C:/Users/Yaner/Desktop/camera/libraries/sdk/Peripheral/ch32v30x_usart.c:283
  }
	
  if (NewState != DISABLE)
    2968:	fd442783          	lw	a5,-44(s0)
    296c:	cb99                	beqz	a5,2982 <USART_ITConfig+0xa6>
C:/Users/Yaner/Desktop/camera/libraries/sdk/Peripheral/ch32v30x_usart.c:285
  {
    *(__IO uint32_t*)usartxbase  |= itmask;
    296e:	fec42783          	lw	a5,-20(s0)
    2972:	4394                	lw	a3,0(a5)
    2974:	fec42783          	lw	a5,-20(s0)
    2978:	fe042703          	lw	a4,-32(s0)
    297c:	8f55                	or	a4,a4,a3
    297e:	c398                	sw	a4,0(a5)
C:/Users/Yaner/Desktop/camera/libraries/sdk/Peripheral/ch32v30x_usart.c:291
  }
  else
  {
    *(__IO uint32_t*)usartxbase &= ~itmask;
  }
}
    2980:	a821                	j	2998 <USART_ITConfig+0xbc>
C:/Users/Yaner/Desktop/camera/libraries/sdk/Peripheral/ch32v30x_usart.c:289
    *(__IO uint32_t*)usartxbase &= ~itmask;
    2982:	fec42783          	lw	a5,-20(s0)
    2986:	4394                	lw	a3,0(a5)
    2988:	fe042783          	lw	a5,-32(s0)
    298c:	fff7c713          	not	a4,a5
    2990:	fec42783          	lw	a5,-20(s0)
    2994:	8f75                	and	a4,a4,a3
    2996:	c398                	sw	a4,0(a5)
C:/Users/Yaner/Desktop/camera/libraries/sdk/Peripheral/ch32v30x_usart.c:291
}
    2998:	0001                	nop
    299a:	5432                	lw	s0,44(sp)
    299c:	6145                	addi	sp,sp,48
    299e:	8082                	ret

000029a0 <USART_SendData>:
USART_SendData():
C:/Users/Yaner/Desktop/camera/libraries/sdk/Peripheral/ch32v30x_usart.c:404
* Input          : USARTx: where x can be 1, 2, 3 to select the USART peripheral.
*                  Data: the data to transmit..
* Return         : None
*******************************************************************************/
void USART_SendData(USART_TypeDef* USARTx, uint16_t Data)
{
    29a0:	1101                	addi	sp,sp,-32
    29a2:	ce22                	sw	s0,28(sp)
    29a4:	1000                	addi	s0,sp,32
    29a6:	fea42623          	sw	a0,-20(s0)
    29aa:	87ae                	mv	a5,a1
    29ac:	fef41523          	sh	a5,-22(s0)
C:/Users/Yaner/Desktop/camera/libraries/sdk/Peripheral/ch32v30x_usart.c:405
  USARTx->DATAR = (Data & (uint16_t)0x01FF);
    29b0:	fea45783          	lhu	a5,-22(s0)
    29b4:	1ff7f793          	andi	a5,a5,511
    29b8:	01079713          	slli	a4,a5,0x10
    29bc:	8341                	srli	a4,a4,0x10
    29be:	fec42783          	lw	a5,-20(s0)
    29c2:	00e79223          	sh	a4,4(a5)
C:/Users/Yaner/Desktop/camera/libraries/sdk/Peripheral/ch32v30x_usart.c:406
}
    29c6:	0001                	nop
    29c8:	4472                	lw	s0,28(sp)
    29ca:	6105                	addi	sp,sp,32
    29cc:	8082                	ret

000029ce <USART_GetFlagStatus>:
USART_GetFlagStatus():
C:/Users/Yaner/Desktop/camera/libraries/sdk/Peripheral/ch32v30x_usart.c:603
*                    USART_FLAG_FE: Framing Error flag.
*                    USART_FLAG_PE: Parity Error flag.
* Return         : bitstatus: SET or RESET.
*******************************************************************************/
FlagStatus USART_GetFlagStatus(USART_TypeDef* USARTx, uint16_t USART_FLAG)
{
    29ce:	7179                	addi	sp,sp,-48
    29d0:	d622                	sw	s0,44(sp)
    29d2:	1800                	addi	s0,sp,48
    29d4:	fca42e23          	sw	a0,-36(s0)
    29d8:	87ae                	mv	a5,a1
    29da:	fcf41d23          	sh	a5,-38(s0)
C:/Users/Yaner/Desktop/camera/libraries/sdk/Peripheral/ch32v30x_usart.c:604
  FlagStatus bitstatus = RESET;
    29de:	fe042623          	sw	zero,-20(s0)
C:/Users/Yaner/Desktop/camera/libraries/sdk/Peripheral/ch32v30x_usart.c:610

  if (USART_FLAG == USART_FLAG_CTS)
  {
  }  
  
  if ((USARTx->STATR & USART_FLAG) != (uint16_t)RESET)
    29e2:	fdc42783          	lw	a5,-36(s0)
    29e6:	0007d783          	lhu	a5,0(a5)
    29ea:	01079713          	slli	a4,a5,0x10
    29ee:	8341                	srli	a4,a4,0x10
    29f0:	fda45783          	lhu	a5,-38(s0)
    29f4:	8ff9                	and	a5,a5,a4
    29f6:	07c2                	slli	a5,a5,0x10
    29f8:	83c1                	srli	a5,a5,0x10
    29fa:	c789                	beqz	a5,2a04 <USART_GetFlagStatus+0x36>
C:/Users/Yaner/Desktop/camera/libraries/sdk/Peripheral/ch32v30x_usart.c:612
  {
    bitstatus = SET;
    29fc:	4785                	li	a5,1
    29fe:	fef42623          	sw	a5,-20(s0)
    2a02:	a019                	j	2a08 <USART_GetFlagStatus+0x3a>
C:/Users/Yaner/Desktop/camera/libraries/sdk/Peripheral/ch32v30x_usart.c:616
  }
  else
  {
    bitstatus = RESET;
    2a04:	fe042623          	sw	zero,-20(s0)
C:/Users/Yaner/Desktop/camera/libraries/sdk/Peripheral/ch32v30x_usart.c:618
  }
  return bitstatus;
    2a08:	fec42783          	lw	a5,-20(s0)
C:/Users/Yaner/Desktop/camera/libraries/sdk/Peripheral/ch32v30x_usart.c:619
}
    2a0c:	853e                	mv	a0,a5
    2a0e:	5432                	lw	s0,44(sp)
    2a10:	6145                	addi	sp,sp,48
    2a12:	8082                	ret

00002a14 <USART_GetITStatus>:
USART_GetITStatus():
C:/Users/Yaner/Desktop/camera/libraries/sdk/Peripheral/ch32v30x_usart.c:660
*                    USART_IT_FE: Framing Error interrupt.
*                    USART_IT_PE: Parity Error interrupt.
* Return         : bitstatus: SET or RESET.
*******************************************************************************/
ITStatus USART_GetITStatus(USART_TypeDef* USARTx, uint16_t USART_IT)
{
    2a14:	7179                	addi	sp,sp,-48
    2a16:	d622                	sw	s0,44(sp)
    2a18:	1800                	addi	s0,sp,48
    2a1a:	fca42e23          	sw	a0,-36(s0)
    2a1e:	87ae                	mv	a5,a1
    2a20:	fcf41d23          	sh	a5,-38(s0)
C:/Users/Yaner/Desktop/camera/libraries/sdk/Peripheral/ch32v30x_usart.c:661
  uint32_t bitpos = 0x00, itmask = 0x00, usartreg = 0x00;
    2a24:	fe042223          	sw	zero,-28(s0)
    2a28:	fe042623          	sw	zero,-20(s0)
    2a2c:	fe042023          	sw	zero,-32(s0)
C:/Users/Yaner/Desktop/camera/libraries/sdk/Peripheral/ch32v30x_usart.c:662
  ITStatus bitstatus = RESET;
    2a30:	fe042423          	sw	zero,-24(s0)
C:/Users/Yaner/Desktop/camera/libraries/sdk/Peripheral/ch32v30x_usart.c:668

  if (USART_IT == USART_IT_CTS)
  {
  }   
  
  usartreg = (((uint8_t)USART_IT) >> 0x05);
    2a34:	fda45783          	lhu	a5,-38(s0)
    2a38:	0ff7f793          	andi	a5,a5,255
    2a3c:	8395                	srli	a5,a5,0x5
    2a3e:	0ff7f793          	andi	a5,a5,255
    2a42:	fef42023          	sw	a5,-32(s0)
C:/Users/Yaner/Desktop/camera/libraries/sdk/Peripheral/ch32v30x_usart.c:669
  itmask = USART_IT & IT_Mask;
    2a46:	fda45783          	lhu	a5,-38(s0)
    2a4a:	8bfd                	andi	a5,a5,31
    2a4c:	fef42623          	sw	a5,-20(s0)
C:/Users/Yaner/Desktop/camera/libraries/sdk/Peripheral/ch32v30x_usart.c:670
  itmask = (uint32_t)0x01 << itmask;
    2a50:	fec42783          	lw	a5,-20(s0)
    2a54:	4705                	li	a4,1
    2a56:	00f717b3          	sll	a5,a4,a5
    2a5a:	fef42623          	sw	a5,-20(s0)
C:/Users/Yaner/Desktop/camera/libraries/sdk/Peripheral/ch32v30x_usart.c:672
  
  if (usartreg == 0x01) 
    2a5e:	fe042703          	lw	a4,-32(s0)
    2a62:	4785                	li	a5,1
    2a64:	00f71f63          	bne	a4,a5,2a82 <USART_GetITStatus+0x6e>
C:/Users/Yaner/Desktop/camera/libraries/sdk/Peripheral/ch32v30x_usart.c:674
  {
    itmask &= USARTx->CTLR1;
    2a68:	fdc42783          	lw	a5,-36(s0)
    2a6c:	00c7d783          	lhu	a5,12(a5)
    2a70:	07c2                	slli	a5,a5,0x10
    2a72:	83c1                	srli	a5,a5,0x10
    2a74:	873e                	mv	a4,a5
    2a76:	fec42783          	lw	a5,-20(s0)
    2a7a:	8ff9                	and	a5,a5,a4
    2a7c:	fef42623          	sw	a5,-20(s0)
    2a80:	a83d                	j	2abe <USART_GetITStatus+0xaa>
C:/Users/Yaner/Desktop/camera/libraries/sdk/Peripheral/ch32v30x_usart.c:676
  }
  else if (usartreg == 0x02) 
    2a82:	fe042703          	lw	a4,-32(s0)
    2a86:	4789                	li	a5,2
    2a88:	00f71f63          	bne	a4,a5,2aa6 <USART_GetITStatus+0x92>
C:/Users/Yaner/Desktop/camera/libraries/sdk/Peripheral/ch32v30x_usart.c:678
  {
    itmask &= USARTx->CTLR2;
    2a8c:	fdc42783          	lw	a5,-36(s0)
    2a90:	0107d783          	lhu	a5,16(a5)
    2a94:	07c2                	slli	a5,a5,0x10
    2a96:	83c1                	srli	a5,a5,0x10
    2a98:	873e                	mv	a4,a5
    2a9a:	fec42783          	lw	a5,-20(s0)
    2a9e:	8ff9                	and	a5,a5,a4
    2aa0:	fef42623          	sw	a5,-20(s0)
    2aa4:	a829                	j	2abe <USART_GetITStatus+0xaa>
C:/Users/Yaner/Desktop/camera/libraries/sdk/Peripheral/ch32v30x_usart.c:682
  }
  else 
  {
    itmask &= USARTx->CTLR3;
    2aa6:	fdc42783          	lw	a5,-36(s0)
    2aaa:	0147d783          	lhu	a5,20(a5)
    2aae:	07c2                	slli	a5,a5,0x10
    2ab0:	83c1                	srli	a5,a5,0x10
    2ab2:	873e                	mv	a4,a5
    2ab4:	fec42783          	lw	a5,-20(s0)
    2ab8:	8ff9                	and	a5,a5,a4
    2aba:	fef42623          	sw	a5,-20(s0)
C:/Users/Yaner/Desktop/camera/libraries/sdk/Peripheral/ch32v30x_usart.c:685
  }
  
  bitpos = USART_IT >> 0x08;
    2abe:	fda45783          	lhu	a5,-38(s0)
    2ac2:	83a1                	srli	a5,a5,0x8
    2ac4:	07c2                	slli	a5,a5,0x10
    2ac6:	83c1                	srli	a5,a5,0x10
    2ac8:	fef42223          	sw	a5,-28(s0)
C:/Users/Yaner/Desktop/camera/libraries/sdk/Peripheral/ch32v30x_usart.c:686
  bitpos = (uint32_t)0x01 << bitpos;
    2acc:	fe442783          	lw	a5,-28(s0)
    2ad0:	4705                	li	a4,1
    2ad2:	00f717b3          	sll	a5,a4,a5
    2ad6:	fef42223          	sw	a5,-28(s0)
C:/Users/Yaner/Desktop/camera/libraries/sdk/Peripheral/ch32v30x_usart.c:687
  bitpos &= USARTx->STATR;
    2ada:	fdc42783          	lw	a5,-36(s0)
    2ade:	0007d783          	lhu	a5,0(a5)
    2ae2:	07c2                	slli	a5,a5,0x10
    2ae4:	83c1                	srli	a5,a5,0x10
    2ae6:	873e                	mv	a4,a5
    2ae8:	fe442783          	lw	a5,-28(s0)
    2aec:	8ff9                	and	a5,a5,a4
    2aee:	fef42223          	sw	a5,-28(s0)
C:/Users/Yaner/Desktop/camera/libraries/sdk/Peripheral/ch32v30x_usart.c:689
	
  if ((itmask != (uint16_t)RESET)&&(bitpos != (uint16_t)RESET))
    2af2:	fec42783          	lw	a5,-20(s0)
    2af6:	cb81                	beqz	a5,2b06 <USART_GetITStatus+0xf2>
C:/Users/Yaner/Desktop/camera/libraries/sdk/Peripheral/ch32v30x_usart.c:689 (discriminator 1)
    2af8:	fe442783          	lw	a5,-28(s0)
    2afc:	c789                	beqz	a5,2b06 <USART_GetITStatus+0xf2>
C:/Users/Yaner/Desktop/camera/libraries/sdk/Peripheral/ch32v30x_usart.c:691
  {
    bitstatus = SET;
    2afe:	4785                	li	a5,1
    2b00:	fef42423          	sw	a5,-24(s0)
    2b04:	a019                	j	2b0a <USART_GetITStatus+0xf6>
C:/Users/Yaner/Desktop/camera/libraries/sdk/Peripheral/ch32v30x_usart.c:695
  }
  else
  {
    bitstatus = RESET;
    2b06:	fe042423          	sw	zero,-24(s0)
C:/Users/Yaner/Desktop/camera/libraries/sdk/Peripheral/ch32v30x_usart.c:698
  }
  
  return bitstatus;  
    2b0a:	fe842783          	lw	a5,-24(s0)
C:/Users/Yaner/Desktop/camera/libraries/sdk/Peripheral/ch32v30x_usart.c:699
}
    2b0e:	853e                	mv	a0,a5
    2b10:	5432                	lw	s0,44(sp)
    2b12:	6145                	addi	sp,sp,48
    2b14:	8082                	ret

00002b16 <USART_ClearITPendingBit>:
USART_ClearITPendingBit():
C:/Users/Yaner/Desktop/camera/libraries/sdk/Peripheral/ch32v30x_usart.c:713
*                    USART_IT_TC:   Transmission complete interrupt.
*                    USART_IT_RXNE: Receive Data register not empty interrupt.
* Return         : None
*******************************************************************************/
void USART_ClearITPendingBit(USART_TypeDef* USARTx, uint16_t USART_IT)
{
    2b16:	7179                	addi	sp,sp,-48
    2b18:	d622                	sw	s0,44(sp)
    2b1a:	1800                	addi	s0,sp,48
    2b1c:	fca42e23          	sw	a0,-36(s0)
    2b20:	87ae                	mv	a5,a1
    2b22:	fcf41d23          	sh	a5,-38(s0)
C:/Users/Yaner/Desktop/camera/libraries/sdk/Peripheral/ch32v30x_usart.c:714
  uint16_t bitpos = 0x00, itmask = 0x00;
    2b26:	fe041723          	sh	zero,-18(s0)
    2b2a:	fe041623          	sh	zero,-20(s0)
C:/Users/Yaner/Desktop/camera/libraries/sdk/Peripheral/ch32v30x_usart.c:720

  if (USART_IT == USART_IT_CTS)
  {
  }   
  
  bitpos = USART_IT >> 0x08;
    2b2e:	fda45783          	lhu	a5,-38(s0)
    2b32:	83a1                	srli	a5,a5,0x8
    2b34:	fef41723          	sh	a5,-18(s0)
C:/Users/Yaner/Desktop/camera/libraries/sdk/Peripheral/ch32v30x_usart.c:721
  itmask = ((uint16_t)0x01 << (uint16_t)bitpos);
    2b38:	fee45783          	lhu	a5,-18(s0)
    2b3c:	4705                	li	a4,1
    2b3e:	00f717b3          	sll	a5,a4,a5
    2b42:	fef41623          	sh	a5,-20(s0)
C:/Users/Yaner/Desktop/camera/libraries/sdk/Peripheral/ch32v30x_usart.c:722
  USARTx->STATR = (uint16_t)~itmask;
    2b46:	fec45783          	lhu	a5,-20(s0)
    2b4a:	fff7c793          	not	a5,a5
    2b4e:	01079713          	slli	a4,a5,0x10
    2b52:	8341                	srli	a4,a4,0x10
    2b54:	fdc42783          	lw	a5,-36(s0)
    2b58:	00e79023          	sh	a4,0(a5)
C:/Users/Yaner/Desktop/camera/libraries/sdk/Peripheral/ch32v30x_usart.c:723
}
    2b5c:	0001                	nop
    2b5e:	5432                	lw	s0,44(sp)
    2b60:	6145                	addi	sp,sp,48
    2b62:	8082                	ret

00002b64 <DevEP1_IN_Deal>:
DevEP1_IN_Deal():
C:/Users/Yaner/Desktop/camera/libraries/sdk/Peripheral/ch32v30x_usbotg_device.c:329
* Description    : Device endpoint1 IN.
* Input          : l: IN length(<64B)
* Return         : None
*******************************************************************************/
void DevEP1_IN_Deal( UINT8 l )
{
    2b64:	1101                	addi	sp,sp,-32
    2b66:	ce22                	sw	s0,28(sp)
    2b68:	1000                	addi	s0,sp,32
    2b6a:	87aa                	mv	a5,a0
    2b6c:	fef407a3          	sb	a5,-17(s0)
C:/Users/Yaner/Desktop/camera/libraries/sdk/Peripheral/ch32v30x_usbotg_device.c:330
    USBOTG_FS->UEP1_TX_LEN = l;
    2b70:	500007b7          	lui	a5,0x50000
    2b74:	fef44703          	lbu	a4,-17(s0)
    2b78:	0742                	slli	a4,a4,0x10
    2b7a:	8341                	srli	a4,a4,0x10
    2b7c:	02e79a23          	sh	a4,52(a5) # 50000034 <_eusrstack+0x2fff0034>
C:/Users/Yaner/Desktop/camera/libraries/sdk/Peripheral/ch32v30x_usbotg_device.c:331
    USBOTG_FS->UEP1_TX_CTRL = (USBOTG_FS->UEP1_TX_CTRL & ~USBHD_UEP_T_RES_MASK)| USBHD_UEP_T_RES_ACK;
    2b80:	500007b7          	lui	a5,0x50000
    2b84:	0367c783          	lbu	a5,54(a5) # 50000036 <_eusrstack+0x2fff0036>
    2b88:	0ff7f713          	andi	a4,a5,255
    2b8c:	500007b7          	lui	a5,0x50000
    2b90:	9b71                	andi	a4,a4,-4
    2b92:	0ff77713          	andi	a4,a4,255
    2b96:	02e78b23          	sb	a4,54(a5) # 50000036 <_eusrstack+0x2fff0036>
C:/Users/Yaner/Desktop/camera/libraries/sdk/Peripheral/ch32v30x_usbotg_device.c:332
}
    2b9a:	0001                	nop
    2b9c:	4472                	lw	s0,28(sp)
    2b9e:	6105                	addi	sp,sp,32
    2ba0:	8082                	ret

00002ba2 <DevEP2_IN_Deal>:
DevEP2_IN_Deal():
C:/Users/Yaner/Desktop/camera/libraries/sdk/Peripheral/ch32v30x_usbotg_device.c:341
* Description    : Device endpoint2 IN.
* Input          : l: IN length(<64B)
* Return         : None
*******************************************************************************/
void DevEP2_IN_Deal( UINT8 l )
{
    2ba2:	1101                	addi	sp,sp,-32
    2ba4:	ce22                	sw	s0,28(sp)
    2ba6:	1000                	addi	s0,sp,32
    2ba8:	87aa                	mv	a5,a0
    2baa:	fef407a3          	sb	a5,-17(s0)
C:/Users/Yaner/Desktop/camera/libraries/sdk/Peripheral/ch32v30x_usbotg_device.c:342
    USBOTG_FS->UEP2_TX_LEN = l;
    2bae:	500007b7          	lui	a5,0x50000
    2bb2:	fef44703          	lbu	a4,-17(s0)
    2bb6:	0742                	slli	a4,a4,0x10
    2bb8:	8341                	srli	a4,a4,0x10
    2bba:	02e79c23          	sh	a4,56(a5) # 50000038 <_eusrstack+0x2fff0038>
C:/Users/Yaner/Desktop/camera/libraries/sdk/Peripheral/ch32v30x_usbotg_device.c:343
    USBOTG_FS->UEP2_TX_CTRL = (USBOTG_FS->UEP2_TX_CTRL & ~USBHD_UEP_T_RES_MASK)| USBHD_UEP_T_RES_ACK;
    2bbe:	500007b7          	lui	a5,0x50000
    2bc2:	03a7c783          	lbu	a5,58(a5) # 5000003a <_eusrstack+0x2fff003a>
    2bc6:	0ff7f713          	andi	a4,a5,255
    2bca:	500007b7          	lui	a5,0x50000
    2bce:	9b71                	andi	a4,a4,-4
    2bd0:	0ff77713          	andi	a4,a4,255
    2bd4:	02e78d23          	sb	a4,58(a5) # 5000003a <_eusrstack+0x2fff003a>
C:/Users/Yaner/Desktop/camera/libraries/sdk/Peripheral/ch32v30x_usbotg_device.c:344
}
    2bd8:	0001                	nop
    2bda:	4472                	lw	s0,28(sp)
    2bdc:	6105                	addi	sp,sp,32
    2bde:	8082                	ret

00002be0 <DevEP1_OUT_Deal>:
DevEP1_OUT_Deal():
C:/Users/Yaner/Desktop/camera/libraries/sdk/Peripheral/ch32v30x_usbotg_device.c:353
* Description    : Deal device Endpoint 1 OUT.
* Input          : l: Data length.
* Return         : None
*******************************************************************************/
void DevEP1_OUT_Deal( UINT8 l )
{
    2be0:	7179                	addi	sp,sp,-48
    2be2:	d606                	sw	ra,44(sp)
    2be4:	d422                	sw	s0,40(sp)
    2be6:	1800                	addi	s0,sp,48
    2be8:	87aa                	mv	a5,a0
    2bea:	fcf40fa3          	sb	a5,-33(s0)
C:/Users/Yaner/Desktop/camera/libraries/sdk/Peripheral/ch32v30x_usbotg_device.c:356
    UINT8 i;

    for(i=0; i<l; i++)
    2bee:	fe0407a3          	sb	zero,-17(s0)
    2bf2:	a815                	j	2c26 <DevEP1_OUT_Deal+0x46>
C:/Users/Yaner/Desktop/camera/libraries/sdk/Peripheral/ch32v30x_usbotg_device.c:358 (discriminator 3)
    {
        pEP1_IN_DataBuf[i] = ~pEP1_OUT_DataBuf[i];
    2bf4:	8681a703          	lw	a4,-1944(gp) # 20000160 <pEP1_RAM_Addr>
    2bf8:	fef44783          	lbu	a5,-17(s0)
    2bfc:	97ba                	add	a5,a5,a4
    2bfe:	0007c703          	lbu	a4,0(a5)
    2c02:	8681a683          	lw	a3,-1944(gp) # 20000160 <pEP1_RAM_Addr>
    2c06:	fef44783          	lbu	a5,-17(s0)
    2c0a:	04078793          	addi	a5,a5,64
    2c0e:	97b6                	add	a5,a5,a3
    2c10:	fff74713          	not	a4,a4
    2c14:	0ff77713          	andi	a4,a4,255
    2c18:	00e78023          	sb	a4,0(a5)
C:/Users/Yaner/Desktop/camera/libraries/sdk/Peripheral/ch32v30x_usbotg_device.c:356 (discriminator 3)
    for(i=0; i<l; i++)
    2c1c:	fef44783          	lbu	a5,-17(s0)
    2c20:	0785                	addi	a5,a5,1
    2c22:	fef407a3          	sb	a5,-17(s0)
C:/Users/Yaner/Desktop/camera/libraries/sdk/Peripheral/ch32v30x_usbotg_device.c:356 (discriminator 1)
    2c26:	fef44703          	lbu	a4,-17(s0)
    2c2a:	fdf44783          	lbu	a5,-33(s0)
    2c2e:	fcf763e3          	bltu	a4,a5,2bf4 <DevEP1_OUT_Deal+0x14>
C:/Users/Yaner/Desktop/camera/libraries/sdk/Peripheral/ch32v30x_usbotg_device.c:361
    }

    DevEP1_IN_Deal( l );
    2c32:	fdf44783          	lbu	a5,-33(s0)
    2c36:	853e                	mv	a0,a5
    2c38:	3735                	jal	2b64 <DevEP1_IN_Deal>
C:/Users/Yaner/Desktop/camera/libraries/sdk/Peripheral/ch32v30x_usbotg_device.c:362
}
    2c3a:	0001                	nop
    2c3c:	50b2                	lw	ra,44(sp)
    2c3e:	5422                	lw	s0,40(sp)
    2c40:	6145                	addi	sp,sp,48
    2c42:	8082                	ret

00002c44 <DevEP2_OUT_Deal>:
DevEP2_OUT_Deal():
C:/Users/Yaner/Desktop/camera/libraries/sdk/Peripheral/ch32v30x_usbotg_device.c:371
* Description    : Deal device Endpoint 2 OUT.
* Input          : l: Data length.
* Return         : None
*******************************************************************************/
void DevEP2_OUT_Deal( UINT8 l )
{
    2c44:	7179                	addi	sp,sp,-48
    2c46:	d606                	sw	ra,44(sp)
    2c48:	d422                	sw	s0,40(sp)
    2c4a:	1800                	addi	s0,sp,48
    2c4c:	87aa                	mv	a5,a0
    2c4e:	fcf40fa3          	sb	a5,-33(s0)
C:/Users/Yaner/Desktop/camera/libraries/sdk/Peripheral/ch32v30x_usbotg_device.c:374
    UINT8 i;

    for(i=0; i<l; i++)
    2c52:	fe0407a3          	sb	zero,-17(s0)
    2c56:	a815                	j	2c8a <DevEP2_OUT_Deal+0x46>
C:/Users/Yaner/Desktop/camera/libraries/sdk/Peripheral/ch32v30x_usbotg_device.c:376 (discriminator 3)
    {
        pEP2_IN_DataBuf[i] = ~pEP2_OUT_DataBuf[i];
    2c58:	86c1a703          	lw	a4,-1940(gp) # 20000164 <pEP2_RAM_Addr>
    2c5c:	fef44783          	lbu	a5,-17(s0)
    2c60:	97ba                	add	a5,a5,a4
    2c62:	0007c703          	lbu	a4,0(a5)
    2c66:	86c1a683          	lw	a3,-1940(gp) # 20000164 <pEP2_RAM_Addr>
    2c6a:	fef44783          	lbu	a5,-17(s0)
    2c6e:	04078793          	addi	a5,a5,64
    2c72:	97b6                	add	a5,a5,a3
    2c74:	fff74713          	not	a4,a4
    2c78:	0ff77713          	andi	a4,a4,255
    2c7c:	00e78023          	sb	a4,0(a5)
C:/Users/Yaner/Desktop/camera/libraries/sdk/Peripheral/ch32v30x_usbotg_device.c:374 (discriminator 3)
    for(i=0; i<l; i++)
    2c80:	fef44783          	lbu	a5,-17(s0)
    2c84:	0785                	addi	a5,a5,1
    2c86:	fef407a3          	sb	a5,-17(s0)
C:/Users/Yaner/Desktop/camera/libraries/sdk/Peripheral/ch32v30x_usbotg_device.c:374 (discriminator 1)
    2c8a:	fef44703          	lbu	a4,-17(s0)
    2c8e:	fdf44783          	lbu	a5,-33(s0)
    2c92:	fcf763e3          	bltu	a4,a5,2c58 <DevEP2_OUT_Deal+0x14>
C:/Users/Yaner/Desktop/camera/libraries/sdk/Peripheral/ch32v30x_usbotg_device.c:379
    }

    DevEP2_IN_Deal( l );
    2c96:	fdf44783          	lbu	a5,-33(s0)
    2c9a:	853e                	mv	a0,a5
    2c9c:	3719                	jal	2ba2 <DevEP2_IN_Deal>
C:/Users/Yaner/Desktop/camera/libraries/sdk/Peripheral/ch32v30x_usbotg_device.c:380
}
    2c9e:	0001                	nop
    2ca0:	50b2                	lw	ra,44(sp)
    2ca2:	5422                	lw	s0,40(sp)
    2ca4:	6145                	addi	sp,sp,48
    2ca6:	8082                	ret

00002ca8 <OTG_FS_IRQHandler>:
OTG_FS_IRQHandler():
C:/Users/Yaner/Desktop/camera/libraries/sdk/Peripheral/ch32v30x_usbotg_device.c:389
* Description    : OTG_FS_IRQHandler OTG设备中断处理函数
* Input          : None
* Return         : None
*******************************************************************************/
void OTG_FS_IRQHandler( void )
{
    2ca8:	1101                	addi	sp,sp,-32
    2caa:	ce22                	sw	s0,28(sp)
    2cac:	1000                	addi	s0,sp,32
C:/Users/Yaner/Desktop/camera/libraries/sdk/Peripheral/ch32v30x_usbotg_device.c:391
    UINT8  len, chtype;
    UINT8  intflag, errflag = 0;
    2cae:	fe040723          	sb	zero,-18(s0)
C:/Users/Yaner/Desktop/camera/libraries/sdk/Peripheral/ch32v30x_usbotg_device.c:393

    intflag = USBOTG_FS->INT_FG;
    2cb2:	500007b7          	lui	a5,0x50000
    2cb6:	0067c783          	lbu	a5,6(a5) # 50000006 <_eusrstack+0x2fff0006>
    2cba:	fef406a3          	sb	a5,-19(s0)
C:/Users/Yaner/Desktop/camera/libraries/sdk/Peripheral/ch32v30x_usbotg_device.c:395

    if( intflag & USBHD_UIF_TRANSFER )
    2cbe:	fed44783          	lbu	a5,-19(s0)
    2cc2:	8b89                	andi	a5,a5,2
    2cc4:	3a078ce3          	beqz	a5,387c <OTG_FS_IRQHandler+0xbd4>
C:/Users/Yaner/Desktop/camera/libraries/sdk/Peripheral/ch32v30x_usbotg_device.c:397
    {
        switch ( USBOTG_FS->INT_ST & USBHD_UIS_TOKEN_MASK )
    2cc8:	500007b7          	lui	a5,0x50000
    2ccc:	0077c783          	lbu	a5,7(a5) # 50000007 <_eusrstack+0x2fff0007>
    2cd0:	0ff7f793          	andi	a5,a5,255
    2cd4:	0307f793          	andi	a5,a5,48
    2cd8:	4741                	li	a4,16
    2cda:	38e786e3          	beq	a5,a4,3866 <OTG_FS_IRQHandler+0xbbe>
    2cde:	4741                	li	a4,16
    2ce0:	00f74663          	blt	a4,a5,2cec <OTG_FS_IRQHandler+0x44>
    2ce4:	20078de3          	beqz	a5,36fe <OTG_FS_IRQHandler+0xa56>
C:/Users/Yaner/Desktop/camera/libraries/sdk/Peripheral/ch32v30x_usbotg_device.c:878
            case USBHD_UIS_TOKEN_SOF:

                break;

            default :
                break;
    2ce8:	3830006f          	j	386a <OTG_FS_IRQHandler+0xbc2>
    2cec:	02000713          	li	a4,32
    2cf0:	04e786e3          	beq	a5,a4,353c <OTG_FS_IRQHandler+0x894>
    2cf4:	03000713          	li	a4,48
    2cf8:	36e799e3          	bne	a5,a4,386a <OTG_FS_IRQHandler+0xbc2>
C:/Users/Yaner/Desktop/camera/libraries/sdk/Peripheral/ch32v30x_usbotg_device.c:411
                USBOTG_FS->UEP0_TX_CTRL = USBHD_UEP_T_TOG|USBHD_UEP_T_RES_NAK;
    2cfc:	500007b7          	lui	a5,0x50000
    2d00:	4719                	li	a4,6
    2d02:	02e78923          	sb	a4,50(a5) # 50000032 <_eusrstack+0x2fff0032>
C:/Users/Yaner/Desktop/camera/libraries/sdk/Peripheral/ch32v30x_usbotg_device.c:412
                USBOTG_FS->UEP0_RX_CTRL = USBHD_UEP_R_TOG|USBHD_UEP_R_RES_ACK;
    2d06:	500007b7          	lui	a5,0x50000
    2d0a:	4711                	li	a4,4
    2d0c:	02e789a3          	sb	a4,51(a5) # 50000033 <_eusrstack+0x2fff0033>
C:/Users/Yaner/Desktop/camera/libraries/sdk/Peripheral/ch32v30x_usbotg_device.c:413
                SetupReqLen  = pSetupReqPakHD->wLength;
    2d10:	8641a783          	lw	a5,-1948(gp) # 2000015c <pEP0_RAM_Addr>
    2d14:	0067c703          	lbu	a4,6(a5)
    2d18:	0077c783          	lbu	a5,7(a5)
    2d1c:	07a2                	slli	a5,a5,0x8
    2d1e:	8fd9                	or	a5,a5,a4
    2d20:	01079713          	slli	a4,a5,0x10
    2d24:	8341                	srli	a4,a4,0x10
    2d26:	86e19d23          	sh	a4,-1926(gp) # 20000172 <SetupReqLen>
C:/Users/Yaner/Desktop/camera/libraries/sdk/Peripheral/ch32v30x_usbotg_device.c:414
                SetupReqCode = pSetupReqPakHD->bRequest;
    2d2a:	8641a783          	lw	a5,-1948(gp) # 2000015c <pEP0_RAM_Addr>
    2d2e:	0017c703          	lbu	a4,1(a5)
    2d32:	86e18c23          	sb	a4,-1928(gp) # 20000170 <SetupReqCode>
C:/Users/Yaner/Desktop/camera/libraries/sdk/Peripheral/ch32v30x_usbotg_device.c:415
                chtype = pSetupReqPakHD->bRequestType;
    2d36:	8641a783          	lw	a5,-1948(gp) # 2000015c <pEP0_RAM_Addr>
    2d3a:	0007c783          	lbu	a5,0(a5)
    2d3e:	fef40623          	sb	a5,-20(s0)
C:/Users/Yaner/Desktop/camera/libraries/sdk/Peripheral/ch32v30x_usbotg_device.c:416
                len = 0;
    2d42:	fe0407a3          	sb	zero,-17(s0)
C:/Users/Yaner/Desktop/camera/libraries/sdk/Peripheral/ch32v30x_usbotg_device.c:417
                errflag = 0;
    2d46:	fe040723          	sb	zero,-18(s0)
C:/Users/Yaner/Desktop/camera/libraries/sdk/Peripheral/ch32v30x_usbotg_device.c:419
                if ( ( pSetupReqPakHD->bRequestType & USB_REQ_TYP_MASK ) != USB_REQ_TYP_STANDARD )  //非标准请求
    2d4a:	8641a783          	lw	a5,-1948(gp) # 2000015c <pEP0_RAM_Addr>
    2d4e:	0007c783          	lbu	a5,0(a5)
    2d52:	0607f793          	andi	a5,a5,96
    2d56:	12078b63          	beqz	a5,2e8c <OTG_FS_IRQHandler+0x1e4>
C:/Users/Yaner/Desktop/camera/libraries/sdk/Peripheral/ch32v30x_usbotg_device.c:422
                    if(SetupReqCode & 0x20)
    2d5a:	8781c783          	lbu	a5,-1928(gp) # 20000170 <SetupReqCode>
    2d5e:	0ff7f793          	andi	a5,a5,255
    2d62:	0207f793          	andi	a5,a5,32
    2d66:	c3d5                	beqz	a5,2e0a <OTG_FS_IRQHandler+0x162>
C:/Users/Yaner/Desktop/camera/libraries/sdk/Peripheral/ch32v30x_usbotg_device.c:424
                        switch( SetupReqCode )
    2d68:	8781c783          	lbu	a5,-1928(gp) # 20000170 <SetupReqCode>
    2d6c:	0ff7f793          	andi	a5,a5,255
    2d70:	02100713          	li	a4,33
    2d74:	00e78b63          	beq	a5,a4,2d8a <OTG_FS_IRQHandler+0xe2>
    2d78:	02200713          	li	a4,34
    2d7c:	08e78963          	beq	a5,a4,2e0e <OTG_FS_IRQHandler+0x166>
    2d80:	02000713          	li	a4,32
    2d84:	08e78763          	beq	a5,a4,2e12 <OTG_FS_IRQHandler+0x16a>
    2d88:	a8ad                	j	2e02 <OTG_FS_IRQHandler+0x15a>
C:/Users/Yaner/Desktop/camera/libraries/sdk/Peripheral/ch32v30x_usbotg_device.c:427
                                pDescr = LineCoding;
    2d8a:	80c18713          	addi	a4,gp,-2036 # 20000104 <LineCoding>
    2d8e:	86e1a823          	sw	a4,-1936(gp) # 20000168 <pDescr>
C:/Users/Yaner/Desktop/camera/libraries/sdk/Peripheral/ch32v30x_usbotg_device.c:428
                                len = sizeof(LineCoding);
    2d92:	479d                	li	a5,7
    2d94:	fef407a3          	sb	a5,-17(s0)
C:/Users/Yaner/Desktop/camera/libraries/sdk/Peripheral/ch32v30x_usbotg_device.c:429
                                len = SetupReqLen >= DEFAULT_ENDP0_SIZE ? DEFAULT_ENDP0_SIZE : SetupReqLen;  // 本次传输长度
    2d98:	87a1d783          	lhu	a5,-1926(gp) # 20000172 <SetupReqLen>
    2d9c:	01079713          	slli	a4,a5,0x10
    2da0:	8341                	srli	a4,a4,0x10
    2da2:	479d                	li	a5,7
    2da4:	00e7e963          	bltu	a5,a4,2db6 <OTG_FS_IRQHandler+0x10e>
C:/Users/Yaner/Desktop/camera/libraries/sdk/Peripheral/ch32v30x_usbotg_device.c:429 (discriminator 1)
    2da8:	87a1d783          	lhu	a5,-1926(gp) # 20000172 <SetupReqLen>
    2dac:	07c2                	slli	a5,a5,0x10
    2dae:	83c1                	srli	a5,a5,0x10
    2db0:	0ff7f793          	andi	a5,a5,255
    2db4:	a011                	j	2db8 <OTG_FS_IRQHandler+0x110>
C:/Users/Yaner/Desktop/camera/libraries/sdk/Peripheral/ch32v30x_usbotg_device.c:429 (discriminator 2)
    2db6:	47a1                	li	a5,8
C:/Users/Yaner/Desktop/camera/libraries/sdk/Peripheral/ch32v30x_usbotg_device.c:429 (discriminator 4)
    2db8:	fef407a3          	sb	a5,-17(s0)
C:/Users/Yaner/Desktop/camera/libraries/sdk/Peripheral/ch32v30x_usbotg_device.c:430 (discriminator 4)
                                memcpy(pEP0_DataBuf,pDescr,len);
    2dbc:	8641a703          	lw	a4,-1948(gp) # 2000015c <pEP0_RAM_Addr>
    2dc0:	8701a783          	lw	a5,-1936(gp) # 20000168 <pDescr>
    2dc4:	fef44683          	lbu	a3,-17(s0)
    2dc8:	8636                	mv	a2,a3
    2dca:	85be                	mv	a1,a5
    2dcc:	853a                	mv	a0,a4
    2dce:	35f000ef          	jal	ra,392c <memcpy>
C:/Users/Yaner/Desktop/camera/libraries/sdk/Peripheral/ch32v30x_usbotg_device.c:431 (discriminator 4)
                                SetupReqLen -= len;
    2dd2:	87a1d783          	lhu	a5,-1926(gp) # 20000172 <SetupReqLen>
    2dd6:	01079713          	slli	a4,a5,0x10
    2dda:	8341                	srli	a4,a4,0x10
    2ddc:	fef44783          	lbu	a5,-17(s0)
    2de0:	07c2                	slli	a5,a5,0x10
    2de2:	83c1                	srli	a5,a5,0x10
    2de4:	40f707b3          	sub	a5,a4,a5
    2de8:	01079713          	slli	a4,a5,0x10
    2dec:	8341                	srli	a4,a4,0x10
    2dee:	86e19d23          	sh	a4,-1926(gp) # 20000172 <SetupReqLen>
C:/Users/Yaner/Desktop/camera/libraries/sdk/Peripheral/ch32v30x_usbotg_device.c:432 (discriminator 4)
                                pDescr += len;
    2df2:	8701a703          	lw	a4,-1936(gp) # 20000168 <pDescr>
    2df6:	fef44783          	lbu	a5,-17(s0)
    2dfa:	973e                	add	a4,a4,a5
    2dfc:	86e1a823          	sw	a4,-1936(gp) # 20000168 <pDescr>
C:/Users/Yaner/Desktop/camera/libraries/sdk/Peripheral/ch32v30x_usbotg_device.c:433 (discriminator 4)
                            break;
    2e00:	a811                	j	2e14 <OTG_FS_IRQHandler+0x16c>
C:/Users/Yaner/Desktop/camera/libraries/sdk/Peripheral/ch32v30x_usbotg_device.c:442
                                errflag = 0xFF;
    2e02:	57fd                	li	a5,-1
    2e04:	fef40723          	sb	a5,-18(s0)
    2e08:	a031                	j	2e14 <OTG_FS_IRQHandler+0x16c>
C:/Users/Yaner/Desktop/camera/libraries/sdk/Peripheral/ch32v30x_usbotg_device.c:444
                    }
    2e0a:	0001                	nop
    2e0c:	a021                	j	2e14 <OTG_FS_IRQHandler+0x16c>
C:/Users/Yaner/Desktop/camera/libraries/sdk/Peripheral/ch32v30x_usbotg_device.c:436
                            break;
    2e0e:	0001                	nop
    2e10:	a011                	j	2e14 <OTG_FS_IRQHandler+0x16c>
C:/Users/Yaner/Desktop/camera/libraries/sdk/Peripheral/ch32v30x_usbotg_device.c:439
                            break;
    2e12:	0001                	nop
C:/Users/Yaner/Desktop/camera/libraries/sdk/Peripheral/ch32v30x_usbotg_device.c:461
                    if( errflag != 0xFF )
    2e14:	fee44703          	lbu	a4,-18(s0)
    2e18:	0ff00793          	li	a5,255
    2e1c:	68f70363          	beq	a4,a5,34a2 <OTG_FS_IRQHandler+0x7fa>
C:/Users/Yaner/Desktop/camera/libraries/sdk/Peripheral/ch32v30x_usbotg_device.c:463
                        if( SetupReqLen > len )
    2e20:	fef44783          	lbu	a5,-17(s0)
    2e24:	01079713          	slli	a4,a5,0x10
    2e28:	8341                	srli	a4,a4,0x10
    2e2a:	87a1d783          	lhu	a5,-1926(gp) # 20000172 <SetupReqLen>
    2e2e:	07c2                	slli	a5,a5,0x10
    2e30:	83c1                	srli	a5,a5,0x10
    2e32:	00f77963          	bgeu	a4,a5,2e44 <OTG_FS_IRQHandler+0x19c>
C:/Users/Yaner/Desktop/camera/libraries/sdk/Peripheral/ch32v30x_usbotg_device.c:465
                            SetupReqLen = len;
    2e36:	fef44783          	lbu	a5,-17(s0)
    2e3a:	01079713          	slli	a4,a5,0x10
    2e3e:	8341                	srli	a4,a4,0x10
    2e40:	86e19d23          	sh	a4,-1926(gp) # 20000172 <SetupReqLen>
C:/Users/Yaner/Desktop/camera/libraries/sdk/Peripheral/ch32v30x_usbotg_device.c:467
                        len = ( USBHD_Dev_SetupReqLen >= DevEP0SIZE ) ? DevEP0SIZE : USBHD_Dev_SetupReqLen;
    2e44:	8741d783          	lhu	a5,-1932(gp) # 2000016c <USBHD_Dev_SetupReqLen>
    2e48:	01079713          	slli	a4,a5,0x10
    2e4c:	8341                	srli	a4,a4,0x10
    2e4e:	479d                	li	a5,7
    2e50:	00e7e963          	bltu	a5,a4,2e62 <OTG_FS_IRQHandler+0x1ba>
C:/Users/Yaner/Desktop/camera/libraries/sdk/Peripheral/ch32v30x_usbotg_device.c:467 (discriminator 1)
    2e54:	8741d783          	lhu	a5,-1932(gp) # 2000016c <USBHD_Dev_SetupReqLen>
    2e58:	07c2                	slli	a5,a5,0x10
    2e5a:	83c1                	srli	a5,a5,0x10
    2e5c:	0ff7f793          	andi	a5,a5,255
    2e60:	a011                	j	2e64 <OTG_FS_IRQHandler+0x1bc>
C:/Users/Yaner/Desktop/camera/libraries/sdk/Peripheral/ch32v30x_usbotg_device.c:467 (discriminator 2)
    2e62:	47a1                	li	a5,8
C:/Users/Yaner/Desktop/camera/libraries/sdk/Peripheral/ch32v30x_usbotg_device.c:467 (discriminator 4)
    2e64:	fef407a3          	sb	a5,-17(s0)
C:/Users/Yaner/Desktop/camera/libraries/sdk/Peripheral/ch32v30x_usbotg_device.c:468 (discriminator 4)
                        memcpy( EP0_DatabufHD, pDescr, len );
    2e68:	8701a783          	lw	a5,-1936(gp) # 20000168 <pDescr>
    2e6c:	fef44703          	lbu	a4,-17(s0)
    2e70:	863a                	mv	a2,a4
    2e72:	85be                	mv	a1,a5
    2e74:	85c18513          	addi	a0,gp,-1956 # 20000154 <EP0_DatabufHD>
    2e78:	2b5000ef          	jal	ra,392c <memcpy>
C:/Users/Yaner/Desktop/camera/libraries/sdk/Peripheral/ch32v30x_usbotg_device.c:469 (discriminator 4)
                        pDescr += len;
    2e7c:	8701a703          	lw	a4,-1936(gp) # 20000168 <pDescr>
    2e80:	fef44783          	lbu	a5,-17(s0)
    2e84:	973e                	add	a4,a4,a5
    2e86:	86e1a823          	sw	a4,-1936(gp) # 20000168 <pDescr>
    2e8a:	ad21                	j	34a2 <OTG_FS_IRQHandler+0x7fa>
C:/Users/Yaner/Desktop/camera/libraries/sdk/Peripheral/ch32v30x_usbotg_device.c:475
                    switch( SetupReqCode )
    2e8c:	8781c783          	lbu	a5,-1928(gp) # 20000170 <SetupReqCode>
    2e90:	0ff7f793          	andi	a5,a5,255
    2e94:	472d                	li	a4,11
    2e96:	5ef76b63          	bltu	a4,a5,348c <OTG_FS_IRQHandler+0x7e4>
    2e9a:	00279713          	slli	a4,a5,0x2
    2e9e:	6795                	lui	a5,0x5
    2ea0:	e9878793          	addi	a5,a5,-360 # 4e98 <MyUSBQUADescHD+0xc>
    2ea4:	97ba                	add	a5,a5,a4
    2ea6:	439c                	lw	a5,0(a5)
    2ea8:	8782                	jr	a5
C:/Users/Yaner/Desktop/camera/libraries/sdk/Peripheral/ch32v30x_usbotg_device.c:479 (discriminator 1)
                            switch( ((pSetupReqPakHD->wValue)>>8) )
    2eaa:	8641a783          	lw	a5,-1948(gp) # 2000015c <pEP0_RAM_Addr>
    2eae:	0027c703          	lbu	a4,2(a5)
    2eb2:	0037c783          	lbu	a5,3(a5)
    2eb6:	07a2                	slli	a5,a5,0x8
    2eb8:	8fd9                	or	a5,a5,a4
    2eba:	07c2                	slli	a5,a5,0x10
    2ebc:	83c1                	srli	a5,a5,0x10
    2ebe:	83a1                	srli	a5,a5,0x8
    2ec0:	07c2                	slli	a5,a5,0x10
    2ec2:	83c1                	srli	a5,a5,0x10
    2ec4:	02200713          	li	a4,34
    2ec8:	12f76563          	bltu	a4,a5,2ff2 <OTG_FS_IRQHandler+0x34a>
    2ecc:	00279713          	slli	a4,a5,0x2
    2ed0:	6795                	lui	a5,0x5
    2ed2:	ec878793          	addi	a5,a5,-312 # 4ec8 <MyUSBQUADescHD+0x3c>
    2ed6:	97ba                	add	a5,a5,a4
    2ed8:	439c                	lw	a5,0(a5)
    2eda:	8782                	jr	a5
C:/Users/Yaner/Desktop/camera/libraries/sdk/Peripheral/ch32v30x_usbotg_device.c:483
                                    pDescr = MyDevDescrHD;
    2edc:	6715                	lui	a4,0x5
    2ede:	dec70713          	addi	a4,a4,-532 # 4dec <MyDevDescrHD>
    2ee2:	86e1a823          	sw	a4,-1936(gp) # 20000168 <pDescr>
C:/Users/Yaner/Desktop/camera/libraries/sdk/Peripheral/ch32v30x_usbotg_device.c:484
                                    len = MyDevDescrHD[0];
    2ee6:	47c9                	li	a5,18
    2ee8:	fef407a3          	sb	a5,-17(s0)
C:/Users/Yaner/Desktop/camera/libraries/sdk/Peripheral/ch32v30x_usbotg_device.c:485
                                    break;
    2eec:	a239                	j	2ffa <OTG_FS_IRQHandler+0x352>
C:/Users/Yaner/Desktop/camera/libraries/sdk/Peripheral/ch32v30x_usbotg_device.c:489
                                    pDescr = MyCfgDescrHD;
    2eee:	6715                	lui	a4,0x5
    2ef0:	e0070713          	addi	a4,a4,-512 # 4e00 <MyCfgDescrHD>
    2ef4:	86e1a823          	sw	a4,-1936(gp) # 20000168 <pDescr>
C:/Users/Yaner/Desktop/camera/libraries/sdk/Peripheral/ch32v30x_usbotg_device.c:490
                                    len = MyCfgDescrHD[2];
    2ef8:	04300793          	li	a5,67
    2efc:	fef407a3          	sb	a5,-17(s0)
C:/Users/Yaner/Desktop/camera/libraries/sdk/Peripheral/ch32v30x_usbotg_device.c:491
                                    break;
    2f00:	a8ed                	j	2ffa <OTG_FS_IRQHandler+0x352>
C:/Users/Yaner/Desktop/camera/libraries/sdk/Peripheral/ch32v30x_usbotg_device.c:495 (discriminator 2)
                                    switch( (pSetupReqPakHD->wValue)&0xff )
    2f02:	8641a783          	lw	a5,-1948(gp) # 2000015c <pEP0_RAM_Addr>
    2f06:	0027c703          	lbu	a4,2(a5)
    2f0a:	0037c783          	lbu	a5,3(a5)
    2f0e:	07a2                	slli	a5,a5,0x8
    2f10:	8fd9                	or	a5,a5,a4
    2f12:	07c2                	slli	a5,a5,0x10
    2f14:	83c1                	srli	a5,a5,0x10
    2f16:	0ff7f793          	andi	a5,a5,255
    2f1a:	4705                	li	a4,1
    2f1c:	02e78663          	beq	a5,a4,2f48 <OTG_FS_IRQHandler+0x2a0>
    2f20:	4705                	li	a4,1
    2f22:	00f74463          	blt	a4,a5,2f2a <OTG_FS_IRQHandler+0x282>
    2f26:	cb89                	beqz	a5,2f38 <OTG_FS_IRQHandler+0x290>
    2f28:	a899                	j	2f7e <OTG_FS_IRQHandler+0x2d6>
    2f2a:	4709                	li	a4,2
    2f2c:	02e78763          	beq	a5,a4,2f5a <OTG_FS_IRQHandler+0x2b2>
    2f30:	470d                	li	a4,3
    2f32:	02e78d63          	beq	a5,a4,2f6c <OTG_FS_IRQHandler+0x2c4>
    2f36:	a0a1                	j	2f7e <OTG_FS_IRQHandler+0x2d6>
C:/Users/Yaner/Desktop/camera/libraries/sdk/Peripheral/ch32v30x_usbotg_device.c:499
                                        pDescr = MyLangDescrHD;
    2f38:	82018713          	addi	a4,gp,-2016 # 20000118 <MyLangDescrHD>
    2f3c:	86e1a823          	sw	a4,-1936(gp) # 20000168 <pDescr>
C:/Users/Yaner/Desktop/camera/libraries/sdk/Peripheral/ch32v30x_usbotg_device.c:500
                                        len = MyLangDescrHD[0];
    2f40:	4791                	li	a5,4
    2f42:	fef407a3          	sb	a5,-17(s0)
C:/Users/Yaner/Desktop/camera/libraries/sdk/Peripheral/ch32v30x_usbotg_device.c:501
                                            break;
    2f46:	a081                	j	2f86 <OTG_FS_IRQHandler+0x2de>
C:/Users/Yaner/Desktop/camera/libraries/sdk/Peripheral/ch32v30x_usbotg_device.c:505
                                            pDescr = MyManuInfoHD;
    2f48:	6715                	lui	a4,0x5
    2f4a:	e5870713          	addi	a4,a4,-424 # 4e58 <MyManuInfoHD>
    2f4e:	86e1a823          	sw	a4,-1936(gp) # 20000168 <pDescr>
C:/Users/Yaner/Desktop/camera/libraries/sdk/Peripheral/ch32v30x_usbotg_device.c:506
                                            len = MyManuInfoHD[0];
    2f52:	47b9                	li	a5,14
    2f54:	fef407a3          	sb	a5,-17(s0)
C:/Users/Yaner/Desktop/camera/libraries/sdk/Peripheral/ch32v30x_usbotg_device.c:507
                                            break;
    2f58:	a03d                	j	2f86 <OTG_FS_IRQHandler+0x2de>
C:/Users/Yaner/Desktop/camera/libraries/sdk/Peripheral/ch32v30x_usbotg_device.c:511
                                            pDescr = MyProdInfoHD;
    2f5a:	6715                	lui	a4,0x5
    2f5c:	e6870713          	addi	a4,a4,-408 # 4e68 <MyProdInfoHD>
    2f60:	86e1a823          	sw	a4,-1936(gp) # 20000168 <pDescr>
C:/Users/Yaner/Desktop/camera/libraries/sdk/Peripheral/ch32v30x_usbotg_device.c:512
                                            len = MyProdInfoHD[0];
    2f64:	47b1                	li	a5,12
    2f66:	fef407a3          	sb	a5,-17(s0)
C:/Users/Yaner/Desktop/camera/libraries/sdk/Peripheral/ch32v30x_usbotg_device.c:513
                                            break;
    2f6a:	a831                	j	2f86 <OTG_FS_IRQHandler+0x2de>
C:/Users/Yaner/Desktop/camera/libraries/sdk/Peripheral/ch32v30x_usbotg_device.c:517
                                            pDescr = MySerNumInfoHD;
    2f6c:	6715                	lui	a4,0x5
    2f6e:	e7470713          	addi	a4,a4,-396 # 4e74 <MySerNumInfoHD>
    2f72:	86e1a823          	sw	a4,-1936(gp) # 20000168 <pDescr>
C:/Users/Yaner/Desktop/camera/libraries/sdk/Peripheral/ch32v30x_usbotg_device.c:518
                                            len = sizeof( MySerNumInfoHD );
    2f76:	47d9                	li	a5,22
    2f78:	fef407a3          	sb	a5,-17(s0)
C:/Users/Yaner/Desktop/camera/libraries/sdk/Peripheral/ch32v30x_usbotg_device.c:519
                                            break;
    2f7c:	a029                	j	2f86 <OTG_FS_IRQHandler+0x2de>
C:/Users/Yaner/Desktop/camera/libraries/sdk/Peripheral/ch32v30x_usbotg_device.c:522
                                            errflag = 0xFF;
    2f7e:	57fd                	li	a5,-1
    2f80:	fef40723          	sb	a5,-18(s0)
C:/Users/Yaner/Desktop/camera/libraries/sdk/Peripheral/ch32v30x_usbotg_device.c:523
                                            break;
    2f84:	0001                	nop
C:/Users/Yaner/Desktop/camera/libraries/sdk/Peripheral/ch32v30x_usbotg_device.c:525
                                    break;
    2f86:	a895                	j	2ffa <OTG_FS_IRQHandler+0x352>
C:/Users/Yaner/Desktop/camera/libraries/sdk/Peripheral/ch32v30x_usbotg_device.c:529
                                    pDescr = MyReportDescHD;
    2f88:	6715                	lui	a4,0x5
    2f8a:	e4470713          	addi	a4,a4,-444 # 4e44 <MyReportDescHD>
    2f8e:	86e1a823          	sw	a4,-1936(gp) # 20000168 <pDescr>
C:/Users/Yaner/Desktop/camera/libraries/sdk/Peripheral/ch32v30x_usbotg_device.c:530
                                    len = sizeof( MyReportDescHD );
    2f92:	47d1                	li	a5,20
    2f94:	fef407a3          	sb	a5,-17(s0)
C:/Users/Yaner/Desktop/camera/libraries/sdk/Peripheral/ch32v30x_usbotg_device.c:531
                                    break;
    2f98:	a08d                	j	2ffa <OTG_FS_IRQHandler+0x352>
C:/Users/Yaner/Desktop/camera/libraries/sdk/Peripheral/ch32v30x_usbotg_device.c:535
                                    pDescr = ( PUINT8 )&MyUSBQUADescHD[ 0 ];
    2f9a:	6715                	lui	a4,0x5
    2f9c:	e8c70713          	addi	a4,a4,-372 # 4e8c <MyUSBQUADescHD>
    2fa0:	86e1a823          	sw	a4,-1936(gp) # 20000168 <pDescr>
C:/Users/Yaner/Desktop/camera/libraries/sdk/Peripheral/ch32v30x_usbotg_device.c:536
                                    len = sizeof( MyUSBQUADescHD );
    2fa4:	47a9                	li	a5,10
    2fa6:	fef407a3          	sb	a5,-17(s0)
C:/Users/Yaner/Desktop/camera/libraries/sdk/Peripheral/ch32v30x_usbotg_device.c:537
                                    break;
    2faa:	a881                	j	2ffa <OTG_FS_IRQHandler+0x352>
C:/Users/Yaner/Desktop/camera/libraries/sdk/Peripheral/ch32v30x_usbotg_device.c:542
                                    if( USBHD_Dev_Speed == 0x00 )
    2fac:	8081c783          	lbu	a5,-2040(gp) # 20000100 <USBHD_Dev_Speed>
    2fb0:	0ff7f793          	andi	a5,a5,255
    2fb4:	e79d                	bnez	a5,2fe2 <OTG_FS_IRQHandler+0x33a>
C:/Users/Yaner/Desktop/camera/libraries/sdk/Peripheral/ch32v30x_usbotg_device.c:545
                                      memcpy( &TAB_USB_FS_OSC_DESC[ 2 ], &MyCfgDescrHD[ 2 ], sizeof( MyCfgDescrHD ) - 2 );
    2fb6:	04100613          	li	a2,65
    2fba:	6795                	lui	a5,0x5
    2fbc:	e0278593          	addi	a1,a5,-510 # 4e02 <MyCfgDescrHD+0x2>
    2fc0:	200007b7          	lui	a5,0x20000
    2fc4:	05678513          	addi	a0,a5,86 # 20000056 <TAB_USB_FS_OSC_DESC+0x2>
    2fc8:	165000ef          	jal	ra,392c <memcpy>
C:/Users/Yaner/Desktop/camera/libraries/sdk/Peripheral/ch32v30x_usbotg_device.c:546
                                      pDescr = ( PUINT8 )&TAB_USB_FS_OSC_DESC[ 0 ];
    2fcc:	20000737          	lui	a4,0x20000
    2fd0:	05470713          	addi	a4,a4,84 # 20000054 <TAB_USB_FS_OSC_DESC>
    2fd4:	86e1a823          	sw	a4,-1936(gp) # 20000168 <pDescr>
C:/Users/Yaner/Desktop/camera/libraries/sdk/Peripheral/ch32v30x_usbotg_device.c:547
                                      len = sizeof( TAB_USB_FS_OSC_DESC );
    2fd8:	04300793          	li	a5,67
    2fdc:	fef407a3          	sb	a5,-17(s0)
C:/Users/Yaner/Desktop/camera/libraries/sdk/Peripheral/ch32v30x_usbotg_device.c:553
                                    break;
    2fe0:	a829                	j	2ffa <OTG_FS_IRQHandler+0x352>
C:/Users/Yaner/Desktop/camera/libraries/sdk/Peripheral/ch32v30x_usbotg_device.c:551
                                      errflag = 0xFF;
    2fe2:	57fd                	li	a5,-1
    2fe4:	fef40723          	sb	a5,-18(s0)
C:/Users/Yaner/Desktop/camera/libraries/sdk/Peripheral/ch32v30x_usbotg_device.c:553
                                    break;
    2fe8:	a809                	j	2ffa <OTG_FS_IRQHandler+0x352>
C:/Users/Yaner/Desktop/camera/libraries/sdk/Peripheral/ch32v30x_usbotg_device.c:558
                                    errflag = 0xFF;
    2fea:	57fd                	li	a5,-1
    2fec:	fef40723          	sb	a5,-18(s0)
C:/Users/Yaner/Desktop/camera/libraries/sdk/Peripheral/ch32v30x_usbotg_device.c:559
                                    break;
    2ff0:	a029                	j	2ffa <OTG_FS_IRQHandler+0x352>
C:/Users/Yaner/Desktop/camera/libraries/sdk/Peripheral/ch32v30x_usbotg_device.c:562
                                    errflag = 0xff;
    2ff2:	57fd                	li	a5,-1
    2ff4:	fef40723          	sb	a5,-18(s0)
C:/Users/Yaner/Desktop/camera/libraries/sdk/Peripheral/ch32v30x_usbotg_device.c:563
                                    break;
    2ff8:	0001                	nop
C:/Users/Yaner/Desktop/camera/libraries/sdk/Peripheral/ch32v30x_usbotg_device.c:567
                            if( SetupReqLen>len )   SetupReqLen = len;
    2ffa:	fef44783          	lbu	a5,-17(s0)
    2ffe:	01079713          	slli	a4,a5,0x10
    3002:	8341                	srli	a4,a4,0x10
    3004:	87a1d783          	lhu	a5,-1926(gp) # 20000172 <SetupReqLen>
    3008:	07c2                	slli	a5,a5,0x10
    300a:	83c1                	srli	a5,a5,0x10
    300c:	00f77963          	bgeu	a4,a5,301e <OTG_FS_IRQHandler+0x376>
C:/Users/Yaner/Desktop/camera/libraries/sdk/Peripheral/ch32v30x_usbotg_device.c:567 (discriminator 1)
    3010:	fef44783          	lbu	a5,-17(s0)
    3014:	01079713          	slli	a4,a5,0x10
    3018:	8341                	srli	a4,a4,0x10
    301a:	86e19d23          	sh	a4,-1926(gp) # 20000172 <SetupReqLen>
C:/Users/Yaner/Desktop/camera/libraries/sdk/Peripheral/ch32v30x_usbotg_device.c:568
                            len = (SetupReqLen >= DevEP0SIZE) ? DevEP0SIZE : SetupReqLen;
    301e:	87a1d783          	lhu	a5,-1926(gp) # 20000172 <SetupReqLen>
    3022:	01079713          	slli	a4,a5,0x10
    3026:	8341                	srli	a4,a4,0x10
    3028:	479d                	li	a5,7
    302a:	00e7e963          	bltu	a5,a4,303c <OTG_FS_IRQHandler+0x394>
C:/Users/Yaner/Desktop/camera/libraries/sdk/Peripheral/ch32v30x_usbotg_device.c:568 (discriminator 1)
    302e:	87a1d783          	lhu	a5,-1926(gp) # 20000172 <SetupReqLen>
    3032:	07c2                	slli	a5,a5,0x10
    3034:	83c1                	srli	a5,a5,0x10
    3036:	0ff7f793          	andi	a5,a5,255
    303a:	a011                	j	303e <OTG_FS_IRQHandler+0x396>
C:/Users/Yaner/Desktop/camera/libraries/sdk/Peripheral/ch32v30x_usbotg_device.c:568 (discriminator 2)
    303c:	47a1                	li	a5,8
C:/Users/Yaner/Desktop/camera/libraries/sdk/Peripheral/ch32v30x_usbotg_device.c:568 (discriminator 4)
    303e:	fef407a3          	sb	a5,-17(s0)
C:/Users/Yaner/Desktop/camera/libraries/sdk/Peripheral/ch32v30x_usbotg_device.c:569 (discriminator 4)
                            memcpy( pEP0_DataBuf, pDescr, len );
    3042:	8641a703          	lw	a4,-1948(gp) # 2000015c <pEP0_RAM_Addr>
    3046:	8701a783          	lw	a5,-1936(gp) # 20000168 <pDescr>
    304a:	fef44683          	lbu	a3,-17(s0)
    304e:	8636                	mv	a2,a3
    3050:	85be                	mv	a1,a5
    3052:	853a                	mv	a0,a4
    3054:	0d9000ef          	jal	ra,392c <memcpy>
C:/Users/Yaner/Desktop/camera/libraries/sdk/Peripheral/ch32v30x_usbotg_device.c:570 (discriminator 4)
                            pDescr += len;
    3058:	8701a703          	lw	a4,-1936(gp) # 20000168 <pDescr>
    305c:	fef44783          	lbu	a5,-17(s0)
    3060:	973e                	add	a4,a4,a5
    3062:	86e1a823          	sw	a4,-1936(gp) # 20000168 <pDescr>
C:/Users/Yaner/Desktop/camera/libraries/sdk/Peripheral/ch32v30x_usbotg_device.c:572 (discriminator 4)
                            break;
    3066:	a935                	j	34a2 <OTG_FS_IRQHandler+0x7fa>
C:/Users/Yaner/Desktop/camera/libraries/sdk/Peripheral/ch32v30x_usbotg_device.c:576
                            SetupReqLen = (pSetupReqPakHD->wValue)&0xff;
    3068:	8641a783          	lw	a5,-1948(gp) # 2000015c <pEP0_RAM_Addr>
    306c:	0027c703          	lbu	a4,2(a5)
    3070:	0037c783          	lbu	a5,3(a5)
    3074:	07a2                	slli	a5,a5,0x8
    3076:	8fd9                	or	a5,a5,a4
    3078:	07c2                	slli	a5,a5,0x10
    307a:	83c1                	srli	a5,a5,0x10
    307c:	0ff7f793          	andi	a5,a5,255
    3080:	01079713          	slli	a4,a5,0x10
    3084:	8341                	srli	a4,a4,0x10
    3086:	86e19d23          	sh	a4,-1926(gp) # 20000172 <SetupReqLen>
C:/Users/Yaner/Desktop/camera/libraries/sdk/Peripheral/ch32v30x_usbotg_device.c:577
                            break;
    308a:	a921                	j	34a2 <OTG_FS_IRQHandler+0x7fa>
C:/Users/Yaner/Desktop/camera/libraries/sdk/Peripheral/ch32v30x_usbotg_device.c:581
                            pEP0_DataBuf[0] = DevConfig;
    308c:	8641a783          	lw	a5,-1948(gp) # 2000015c <pEP0_RAM_Addr>
    3090:	8771c703          	lbu	a4,-1929(gp) # 2000016f <DevConfig>
    3094:	0ff77713          	andi	a4,a4,255
    3098:	00e78023          	sb	a4,0(a5)
C:/Users/Yaner/Desktop/camera/libraries/sdk/Peripheral/ch32v30x_usbotg_device.c:582
                            if ( SetupReqLen > 1 ) SetupReqLen = 1;
    309c:	87a1d783          	lhu	a5,-1926(gp) # 20000172 <SetupReqLen>
    30a0:	01079713          	slli	a4,a5,0x10
    30a4:	8341                	srli	a4,a4,0x10
    30a6:	4785                	li	a5,1
    30a8:	3ee7f663          	bgeu	a5,a4,3494 <OTG_FS_IRQHandler+0x7ec>
C:/Users/Yaner/Desktop/camera/libraries/sdk/Peripheral/ch32v30x_usbotg_device.c:582 (discriminator 1)
    30ac:	4705                	li	a4,1
    30ae:	86e19d23          	sh	a4,-1926(gp) # 20000172 <SetupReqLen>
C:/Users/Yaner/Desktop/camera/libraries/sdk/Peripheral/ch32v30x_usbotg_device.c:583 (discriminator 1)
                            break;
    30b2:	a6cd                	j	3494 <OTG_FS_IRQHandler+0x7ec>
C:/Users/Yaner/Desktop/camera/libraries/sdk/Peripheral/ch32v30x_usbotg_device.c:587
                            DevConfig = (pSetupReqPakHD->wValue)&0xff;
    30b4:	8641a783          	lw	a5,-1948(gp) # 2000015c <pEP0_RAM_Addr>
    30b8:	0027c703          	lbu	a4,2(a5)
    30bc:	0037c783          	lbu	a5,3(a5)
    30c0:	07a2                	slli	a5,a5,0x8
    30c2:	8fd9                	or	a5,a5,a4
    30c4:	07c2                	slli	a5,a5,0x10
    30c6:	83c1                	srli	a5,a5,0x10
    30c8:	0ff7f713          	andi	a4,a5,255
    30cc:	86e18ba3          	sb	a4,-1929(gp) # 2000016f <DevConfig>
C:/Users/Yaner/Desktop/camera/libraries/sdk/Peripheral/ch32v30x_usbotg_device.c:588
                            break;
    30d0:	aec9                	j	34a2 <OTG_FS_IRQHandler+0x7fa>
C:/Users/Yaner/Desktop/camera/libraries/sdk/Peripheral/ch32v30x_usbotg_device.c:592
                            if ( ( pSetupReqPakHD->bRequestType & USB_REQ_RECIP_MASK ) == USB_REQ_RECIP_ENDP )
    30d2:	8641a783          	lw	a5,-1948(gp) # 2000015c <pEP0_RAM_Addr>
    30d6:	0007c783          	lbu	a5,0(a5)
    30da:	01f7f713          	andi	a4,a5,31
    30de:	4789                	li	a5,2
    30e0:	0cf71f63          	bne	a4,a5,31be <OTG_FS_IRQHandler+0x516>
C:/Users/Yaner/Desktop/camera/libraries/sdk/Peripheral/ch32v30x_usbotg_device.c:595
                                switch( (pSetupReqPakHD->wIndex)&0xff )
    30e4:	8641a783          	lw	a5,-1948(gp) # 2000015c <pEP0_RAM_Addr>
    30e8:	0047c703          	lbu	a4,4(a5)
    30ec:	0057c783          	lbu	a5,5(a5)
    30f0:	07a2                	slli	a5,a5,0x8
    30f2:	8fd9                	or	a5,a5,a4
    30f4:	07c2                	slli	a5,a5,0x10
    30f6:	83c1                	srli	a5,a5,0x10
    30f8:	0ff7f793          	andi	a5,a5,255
    30fc:	4709                	li	a4,2
    30fe:	04e78863          	beq	a5,a4,314e <OTG_FS_IRQHandler+0x4a6>
    3102:	4709                	li	a4,2
    3104:	00f74663          	blt	a4,a5,3110 <OTG_FS_IRQHandler+0x468>
    3108:	4705                	li	a4,1
    310a:	08e78763          	beq	a5,a4,3198 <OTG_FS_IRQHandler+0x4f0>
    310e:	a05d                	j	31b4 <OTG_FS_IRQHandler+0x50c>
    3110:	08100713          	li	a4,129
    3114:	04e78b63          	beq	a5,a4,316a <OTG_FS_IRQHandler+0x4c2>
    3118:	08200713          	li	a4,130
    311c:	08e79c63          	bne	a5,a4,31b4 <OTG_FS_IRQHandler+0x50c>
C:/Users/Yaner/Desktop/camera/libraries/sdk/Peripheral/ch32v30x_usbotg_device.c:598
                                    USBOTG_FS->UEP2_TX_CTRL = (USBOTG_FS->UEP2_TX_CTRL & ~( USBHD_UEP_T_TOG|USBHD_UEP_T_RES_MASK )) | USBHD_UEP_T_RES_NAK;
    3120:	500007b7          	lui	a5,0x50000
    3124:	03a7c783          	lbu	a5,58(a5) # 5000003a <_eusrstack+0x2fff003a>
    3128:	0ff7f793          	andi	a5,a5,255
    312c:	07e2                	slli	a5,a5,0x18
    312e:	87e1                	srai	a5,a5,0x18
    3130:	9be1                	andi	a5,a5,-8
    3132:	07e2                	slli	a5,a5,0x18
    3134:	87e1                	srai	a5,a5,0x18
    3136:	0027e793          	ori	a5,a5,2
    313a:	01879713          	slli	a4,a5,0x18
    313e:	8761                	srai	a4,a4,0x18
    3140:	500007b7          	lui	a5,0x50000
    3144:	0ff77713          	andi	a4,a4,255
    3148:	02e78d23          	sb	a4,58(a5) # 5000003a <_eusrstack+0x2fff003a>
C:/Users/Yaner/Desktop/camera/libraries/sdk/Peripheral/ch32v30x_usbotg_device.c:599
                                    break;
    314c:	a8ad                	j	31c6 <OTG_FS_IRQHandler+0x51e>
C:/Users/Yaner/Desktop/camera/libraries/sdk/Peripheral/ch32v30x_usbotg_device.c:602
                                    USBOTG_FS->UEP2_RX_CTRL = (USBOTG_FS->UEP2_RX_CTRL & ~( USBHD_UEP_R_TOG|USBHD_UEP_R_RES_MASK )) | USBHD_UEP_R_RES_ACK;
    314e:	500007b7          	lui	a5,0x50000
    3152:	03b7c783          	lbu	a5,59(a5) # 5000003b <_eusrstack+0x2fff003b>
    3156:	0ff7f713          	andi	a4,a5,255
    315a:	500007b7          	lui	a5,0x50000
    315e:	9b61                	andi	a4,a4,-8
    3160:	0ff77713          	andi	a4,a4,255
    3164:	02e78da3          	sb	a4,59(a5) # 5000003b <_eusrstack+0x2fff003b>
C:/Users/Yaner/Desktop/camera/libraries/sdk/Peripheral/ch32v30x_usbotg_device.c:603
                                    break;
    3168:	a8b9                	j	31c6 <OTG_FS_IRQHandler+0x51e>
C:/Users/Yaner/Desktop/camera/libraries/sdk/Peripheral/ch32v30x_usbotg_device.c:606
                                    USBOTG_FS->UEP1_TX_CTRL = (USBOTG_FS->UEP1_TX_CTRL & ~( USBHD_UEP_T_TOG|USBHD_UEP_T_RES_MASK )) | USBHD_UEP_T_RES_NAK;
    316a:	500007b7          	lui	a5,0x50000
    316e:	0367c783          	lbu	a5,54(a5) # 50000036 <_eusrstack+0x2fff0036>
    3172:	0ff7f793          	andi	a5,a5,255
    3176:	07e2                	slli	a5,a5,0x18
    3178:	87e1                	srai	a5,a5,0x18
    317a:	9be1                	andi	a5,a5,-8
    317c:	07e2                	slli	a5,a5,0x18
    317e:	87e1                	srai	a5,a5,0x18
    3180:	0027e793          	ori	a5,a5,2
    3184:	01879713          	slli	a4,a5,0x18
    3188:	8761                	srai	a4,a4,0x18
    318a:	500007b7          	lui	a5,0x50000
    318e:	0ff77713          	andi	a4,a4,255
    3192:	02e78b23          	sb	a4,54(a5) # 50000036 <_eusrstack+0x2fff0036>
C:/Users/Yaner/Desktop/camera/libraries/sdk/Peripheral/ch32v30x_usbotg_device.c:607
                                    break;
    3196:	a805                	j	31c6 <OTG_FS_IRQHandler+0x51e>
C:/Users/Yaner/Desktop/camera/libraries/sdk/Peripheral/ch32v30x_usbotg_device.c:610
                                    USBOTG_FS->UEP1_RX_CTRL = (USBOTG_FS->UEP1_RX_CTRL & ~( USBHD_UEP_R_TOG|USBHD_UEP_R_RES_MASK )) | USBHD_UEP_R_RES_ACK;
    3198:	500007b7          	lui	a5,0x50000
    319c:	0377c783          	lbu	a5,55(a5) # 50000037 <_eusrstack+0x2fff0037>
    31a0:	0ff7f713          	andi	a4,a5,255
    31a4:	500007b7          	lui	a5,0x50000
    31a8:	9b61                	andi	a4,a4,-8
    31aa:	0ff77713          	andi	a4,a4,255
    31ae:	02e78ba3          	sb	a4,55(a5) # 50000037 <_eusrstack+0x2fff0037>
C:/Users/Yaner/Desktop/camera/libraries/sdk/Peripheral/ch32v30x_usbotg_device.c:611
                                    break;
    31b2:	a811                	j	31c6 <OTG_FS_IRQHandler+0x51e>
C:/Users/Yaner/Desktop/camera/libraries/sdk/Peripheral/ch32v30x_usbotg_device.c:614
                                    errflag = 0xFF;
    31b4:	57fd                	li	a5,-1
    31b6:	fef40723          	sb	a5,-18(s0)
C:/Users/Yaner/Desktop/camera/libraries/sdk/Peripheral/ch32v30x_usbotg_device.c:615
                                    break;
    31ba:	0001                	nop
    31bc:	a029                	j	31c6 <OTG_FS_IRQHandler+0x51e>
C:/Users/Yaner/Desktop/camera/libraries/sdk/Peripheral/ch32v30x_usbotg_device.c:619
                            else    errflag = 0xFF;
    31be:	57fd                	li	a5,-1
    31c0:	fef40723          	sb	a5,-18(s0)
C:/Users/Yaner/Desktop/camera/libraries/sdk/Peripheral/ch32v30x_usbotg_device.c:620
                            break;
    31c4:	acf9                	j	34a2 <OTG_FS_IRQHandler+0x7fa>
    31c6:	acf1                	j	34a2 <OTG_FS_IRQHandler+0x7fa>
C:/Users/Yaner/Desktop/camera/libraries/sdk/Peripheral/ch32v30x_usbotg_device.c:624
                            if( ( pMySetupReqPakHD->bRequestType & 0x1F ) == 0x00 )
    31c8:	85c18793          	addi	a5,gp,-1956 # 20000154 <EP0_DatabufHD>
    31cc:	0007c783          	lbu	a5,0(a5)
    31d0:	8bfd                	andi	a5,a5,31
    31d2:	e3a1                	bnez	a5,3212 <OTG_FS_IRQHandler+0x56a>
C:/Users/Yaner/Desktop/camera/libraries/sdk/Peripheral/ch32v30x_usbotg_device.c:627
                                if( pMySetupReqPakHD->wValue == 0x01 )
    31d4:	85c18793          	addi	a5,gp,-1956 # 20000154 <EP0_DatabufHD>
    31d8:	0027c703          	lbu	a4,2(a5)
    31dc:	0037c783          	lbu	a5,3(a5)
    31e0:	07a2                	slli	a5,a5,0x8
    31e2:	8fd9                	or	a5,a5,a4
    31e4:	01079713          	slli	a4,a5,0x10
    31e8:	8341                	srli	a4,a4,0x10
    31ea:	4785                	li	a5,1
    31ec:	00f71f63          	bne	a4,a5,320a <OTG_FS_IRQHandler+0x562>
C:/Users/Yaner/Desktop/camera/libraries/sdk/Peripheral/ch32v30x_usbotg_device.c:629
                                    if( MyCfgDescrHD[ 7 ] & 0x20 )
    31f0:	0a000793          	li	a5,160
    31f4:	0207f793          	andi	a5,a5,32
    31f8:	c789                	beqz	a5,3202 <OTG_FS_IRQHandler+0x55a>
C:/Users/Yaner/Desktop/camera/libraries/sdk/Peripheral/ch32v30x_usbotg_device.c:632
                                        USBHD_Dev_SleepStatus = 0x01;
    31fa:	4705                	li	a4,1
    31fc:	86e18b23          	sb	a4,-1930(gp) # 2000016e <USBHD_Dev_SleepStatus>
C:/Users/Yaner/Desktop/camera/libraries/sdk/Peripheral/ch32v30x_usbotg_device.c:690
                            break;
    3200:	a44d                	j	34a2 <OTG_FS_IRQHandler+0x7fa>
C:/Users/Yaner/Desktop/camera/libraries/sdk/Peripheral/ch32v30x_usbotg_device.c:636
                                        errflag = 0xFF;
    3202:	57fd                	li	a5,-1
    3204:	fef40723          	sb	a5,-18(s0)
C:/Users/Yaner/Desktop/camera/libraries/sdk/Peripheral/ch32v30x_usbotg_device.c:690
                            break;
    3208:	ac69                	j	34a2 <OTG_FS_IRQHandler+0x7fa>
C:/Users/Yaner/Desktop/camera/libraries/sdk/Peripheral/ch32v30x_usbotg_device.c:641
                                    errflag = 0xFF;
    320a:	57fd                	li	a5,-1
    320c:	fef40723          	sb	a5,-18(s0)
C:/Users/Yaner/Desktop/camera/libraries/sdk/Peripheral/ch32v30x_usbotg_device.c:690
                            break;
    3210:	ac49                	j	34a2 <OTG_FS_IRQHandler+0x7fa>
C:/Users/Yaner/Desktop/camera/libraries/sdk/Peripheral/ch32v30x_usbotg_device.c:644
                            else if( ( pMySetupReqPakHD->bRequestType & 0x1F ) == 0x02 )
    3212:	85c18793          	addi	a5,gp,-1956 # 20000154 <EP0_DatabufHD>
    3216:	0007c783          	lbu	a5,0(a5)
    321a:	01f7f713          	andi	a4,a5,31
    321e:	4789                	li	a5,2
    3220:	10f71c63          	bne	a4,a5,3338 <OTG_FS_IRQHandler+0x690>
C:/Users/Yaner/Desktop/camera/libraries/sdk/Peripheral/ch32v30x_usbotg_device.c:647
                                if( pMySetupReqPakHD->wValue == 0x00 )
    3224:	85c18793          	addi	a5,gp,-1956 # 20000154 <EP0_DatabufHD>
    3228:	0027c703          	lbu	a4,2(a5)
    322c:	0037c783          	lbu	a5,3(a5)
    3230:	07a2                	slli	a5,a5,0x8
    3232:	8fd9                	or	a5,a5,a4
    3234:	07c2                	slli	a5,a5,0x10
    3236:	83c1                	srli	a5,a5,0x10
    3238:	efe5                	bnez	a5,3330 <OTG_FS_IRQHandler+0x688>
C:/Users/Yaner/Desktop/camera/libraries/sdk/Peripheral/ch32v30x_usbotg_device.c:650
                                    switch( ( pMySetupReqPakHD->wIndex ) & 0xff )
    323a:	85c18793          	addi	a5,gp,-1956 # 20000154 <EP0_DatabufHD>
    323e:	0047c703          	lbu	a4,4(a5)
    3242:	0057c783          	lbu	a5,5(a5)
    3246:	07a2                	slli	a5,a5,0x8
    3248:	8fd9                	or	a5,a5,a4
    324a:	07c2                	slli	a5,a5,0x10
    324c:	83c1                	srli	a5,a5,0x10
    324e:	0ff7f793          	andi	a5,a5,255
    3252:	4709                	li	a4,2
    3254:	04e78763          	beq	a5,a4,32a2 <OTG_FS_IRQHandler+0x5fa>
    3258:	4709                	li	a4,2
    325a:	00f74663          	blt	a4,a5,3266 <OTG_FS_IRQHandler+0x5be>
    325e:	4705                	li	a4,1
    3260:	08e78d63          	beq	a5,a4,32fa <OTG_FS_IRQHandler+0x652>
    3264:	a0c9                	j	3326 <OTG_FS_IRQHandler+0x67e>
    3266:	08100713          	li	a4,129
    326a:	06e78263          	beq	a5,a4,32ce <OTG_FS_IRQHandler+0x626>
    326e:	08200713          	li	a4,130
    3272:	0ae79a63          	bne	a5,a4,3326 <OTG_FS_IRQHandler+0x67e>
C:/Users/Yaner/Desktop/camera/libraries/sdk/Peripheral/ch32v30x_usbotg_device.c:654
                                            USBOTG_FS->UEP2_TX_CTRL = ( USBOTG_FS->UEP2_TX_CTRL &= ~USBHD_UEP_T_RES_MASK ) | USBHD_UEP_T_RES_STALL;
    3276:	500007b7          	lui	a5,0x50000
    327a:	03a7c783          	lbu	a5,58(a5) # 5000003a <_eusrstack+0x2fff003a>
    327e:	0ff7f793          	andi	a5,a5,255
    3282:	50000737          	lui	a4,0x50000
    3286:	9bf1                	andi	a5,a5,-4
    3288:	0ff7f793          	andi	a5,a5,255
    328c:	02f70d23          	sb	a5,58(a4) # 5000003a <_eusrstack+0x2fff003a>
    3290:	50000737          	lui	a4,0x50000
    3294:	0037e793          	ori	a5,a5,3
    3298:	0ff7f793          	andi	a5,a5,255
    329c:	02f70d23          	sb	a5,58(a4) # 5000003a <_eusrstack+0x2fff003a>
C:/Users/Yaner/Desktop/camera/libraries/sdk/Peripheral/ch32v30x_usbotg_device.c:656
                                            break;
    32a0:	a045                	j	3340 <OTG_FS_IRQHandler+0x698>
C:/Users/Yaner/Desktop/camera/libraries/sdk/Peripheral/ch32v30x_usbotg_device.c:660
                                            USBOTG_FS->UEP2_RX_CTRL = ( USBOTG_FS->UEP2_RX_CTRL &= ~USBHD_UEP_R_RES_MASK ) | USBHD_UEP_R_RES_STALL;
    32a2:	500007b7          	lui	a5,0x50000
    32a6:	03b7c783          	lbu	a5,59(a5) # 5000003b <_eusrstack+0x2fff003b>
    32aa:	0ff7f793          	andi	a5,a5,255
    32ae:	50000737          	lui	a4,0x50000
    32b2:	9bf1                	andi	a5,a5,-4
    32b4:	0ff7f793          	andi	a5,a5,255
    32b8:	02f70da3          	sb	a5,59(a4) # 5000003b <_eusrstack+0x2fff003b>
    32bc:	50000737          	lui	a4,0x50000
    32c0:	0037e793          	ori	a5,a5,3
    32c4:	0ff7f793          	andi	a5,a5,255
    32c8:	02f70da3          	sb	a5,59(a4) # 5000003b <_eusrstack+0x2fff003b>
C:/Users/Yaner/Desktop/camera/libraries/sdk/Peripheral/ch32v30x_usbotg_device.c:662
                                            break;
    32cc:	a895                	j	3340 <OTG_FS_IRQHandler+0x698>
C:/Users/Yaner/Desktop/camera/libraries/sdk/Peripheral/ch32v30x_usbotg_device.c:666
                                            USBOTG_FS->UEP1_TX_CTRL = ( USBOTG_FS->UEP1_TX_CTRL &= ~USBHD_UEP_T_RES_MASK ) | USBHD_UEP_T_RES_STALL;
    32ce:	500007b7          	lui	a5,0x50000
    32d2:	0367c783          	lbu	a5,54(a5) # 50000036 <_eusrstack+0x2fff0036>
    32d6:	0ff7f793          	andi	a5,a5,255
    32da:	50000737          	lui	a4,0x50000
    32de:	9bf1                	andi	a5,a5,-4
    32e0:	0ff7f793          	andi	a5,a5,255
    32e4:	02f70b23          	sb	a5,54(a4) # 50000036 <_eusrstack+0x2fff0036>
    32e8:	50000737          	lui	a4,0x50000
    32ec:	0037e793          	ori	a5,a5,3
    32f0:	0ff7f793          	andi	a5,a5,255
    32f4:	02f70b23          	sb	a5,54(a4) # 50000036 <_eusrstack+0x2fff0036>
C:/Users/Yaner/Desktop/camera/libraries/sdk/Peripheral/ch32v30x_usbotg_device.c:668
                                            break;
    32f8:	a0a1                	j	3340 <OTG_FS_IRQHandler+0x698>
C:/Users/Yaner/Desktop/camera/libraries/sdk/Peripheral/ch32v30x_usbotg_device.c:672
                                            USBOTG_FS->UEP1_RX_CTRL = ( USBOTG_FS->UEP1_RX_CTRL &= ~USBHD_UEP_R_RES_MASK ) | USBHD_UEP_R_RES_STALL;
    32fa:	500007b7          	lui	a5,0x50000
    32fe:	0377c783          	lbu	a5,55(a5) # 50000037 <_eusrstack+0x2fff0037>
    3302:	0ff7f793          	andi	a5,a5,255
    3306:	50000737          	lui	a4,0x50000
    330a:	9bf1                	andi	a5,a5,-4
    330c:	0ff7f793          	andi	a5,a5,255
    3310:	02f70ba3          	sb	a5,55(a4) # 50000037 <_eusrstack+0x2fff0037>
    3314:	50000737          	lui	a4,0x50000
    3318:	0037e793          	ori	a5,a5,3
    331c:	0ff7f793          	andi	a5,a5,255
    3320:	02f70ba3          	sb	a5,55(a4) # 50000037 <_eusrstack+0x2fff0037>
C:/Users/Yaner/Desktop/camera/libraries/sdk/Peripheral/ch32v30x_usbotg_device.c:674
                                            break;
    3324:	a831                	j	3340 <OTG_FS_IRQHandler+0x698>
C:/Users/Yaner/Desktop/camera/libraries/sdk/Peripheral/ch32v30x_usbotg_device.c:677
                                            errflag = 0xFF;
    3326:	57fd                	li	a5,-1
    3328:	fef40723          	sb	a5,-18(s0)
C:/Users/Yaner/Desktop/camera/libraries/sdk/Peripheral/ch32v30x_usbotg_device.c:678
                                            break;
    332c:	0001                	nop
    332e:	a809                	j	3340 <OTG_FS_IRQHandler+0x698>
C:/Users/Yaner/Desktop/camera/libraries/sdk/Peripheral/ch32v30x_usbotg_device.c:683
                                    errflag = 0xFF;
    3330:	57fd                	li	a5,-1
    3332:	fef40723          	sb	a5,-18(s0)
C:/Users/Yaner/Desktop/camera/libraries/sdk/Peripheral/ch32v30x_usbotg_device.c:690
                            break;
    3336:	a2b5                	j	34a2 <OTG_FS_IRQHandler+0x7fa>
C:/Users/Yaner/Desktop/camera/libraries/sdk/Peripheral/ch32v30x_usbotg_device.c:688
                                errflag = 0xFF;
    3338:	57fd                	li	a5,-1
    333a:	fef40723          	sb	a5,-18(s0)
C:/Users/Yaner/Desktop/camera/libraries/sdk/Peripheral/ch32v30x_usbotg_device.c:690
                            break;
    333e:	a295                	j	34a2 <OTG_FS_IRQHandler+0x7fa>
C:/Users/Yaner/Desktop/camera/libraries/sdk/Peripheral/ch32v30x_usbotg_device.c:690 (discriminator 4)
    3340:	a28d                	j	34a2 <OTG_FS_IRQHandler+0x7fa>
C:/Users/Yaner/Desktop/camera/libraries/sdk/Peripheral/ch32v30x_usbotg_device.c:694
                            pEP0_DataBuf[0] = 0x00;
    3342:	8641a783          	lw	a5,-1948(gp) # 2000015c <pEP0_RAM_Addr>
    3346:	00078023          	sb	zero,0(a5)
C:/Users/Yaner/Desktop/camera/libraries/sdk/Peripheral/ch32v30x_usbotg_device.c:695
                            if ( SetupReqLen > 1 ) SetupReqLen = 1;
    334a:	87a1d783          	lhu	a5,-1926(gp) # 20000172 <SetupReqLen>
    334e:	01079713          	slli	a4,a5,0x10
    3352:	8341                	srli	a4,a4,0x10
    3354:	4785                	li	a5,1
    3356:	14e7f163          	bgeu	a5,a4,3498 <OTG_FS_IRQHandler+0x7f0>
C:/Users/Yaner/Desktop/camera/libraries/sdk/Peripheral/ch32v30x_usbotg_device.c:695 (discriminator 1)
    335a:	4705                	li	a4,1
    335c:	86e19d23          	sh	a4,-1926(gp) # 20000172 <SetupReqLen>
C:/Users/Yaner/Desktop/camera/libraries/sdk/Peripheral/ch32v30x_usbotg_device.c:696 (discriminator 1)
                            break;
    3360:	aa25                	j	3498 <OTG_FS_IRQHandler+0x7f0>
C:/Users/Yaner/Desktop/camera/libraries/sdk/Peripheral/ch32v30x_usbotg_device.c:700
                            EP0_DatabufHD[ 0 ] = 0x00;
    3362:	84018e23          	sb	zero,-1956(gp) # 20000154 <EP0_DatabufHD>
C:/Users/Yaner/Desktop/camera/libraries/sdk/Peripheral/ch32v30x_usbotg_device.c:701
                            if( USBHD_Dev_SetupReqLen > 1 )
    3366:	8741d783          	lhu	a5,-1932(gp) # 2000016c <USBHD_Dev_SetupReqLen>
    336a:	01079713          	slli	a4,a5,0x10
    336e:	8341                	srli	a4,a4,0x10
    3370:	4785                	li	a5,1
    3372:	12e7f563          	bgeu	a5,a4,349c <OTG_FS_IRQHandler+0x7f4>
C:/Users/Yaner/Desktop/camera/libraries/sdk/Peripheral/ch32v30x_usbotg_device.c:703
                                USBHD_Dev_SetupReqLen = 1;
    3376:	4705                	li	a4,1
    3378:	86e19a23          	sh	a4,-1932(gp) # 2000016c <USBHD_Dev_SetupReqLen>
C:/Users/Yaner/Desktop/camera/libraries/sdk/Peripheral/ch32v30x_usbotg_device.c:705
                            break;
    337c:	a205                	j	349c <OTG_FS_IRQHandler+0x7f4>
C:/Users/Yaner/Desktop/camera/libraries/sdk/Peripheral/ch32v30x_usbotg_device.c:709
                            EP0_DatabufHD[ 0 ] = 0x00;
    337e:	84018e23          	sb	zero,-1956(gp) # 20000154 <EP0_DatabufHD>
C:/Users/Yaner/Desktop/camera/libraries/sdk/Peripheral/ch32v30x_usbotg_device.c:710
                            EP0_DatabufHD[ 1 ] = 0x00;
    3382:	85c18793          	addi	a5,gp,-1956 # 20000154 <EP0_DatabufHD>
    3386:	000780a3          	sb	zero,1(a5)
C:/Users/Yaner/Desktop/camera/libraries/sdk/Peripheral/ch32v30x_usbotg_device.c:711
                            if( pMySetupReqPakHD->wIndex == 0x81 )
    338a:	85c18793          	addi	a5,gp,-1956 # 20000154 <EP0_DatabufHD>
    338e:	0047c703          	lbu	a4,4(a5)
    3392:	0057c783          	lbu	a5,5(a5)
    3396:	07a2                	slli	a5,a5,0x8
    3398:	8fd9                	or	a5,a5,a4
    339a:	01079713          	slli	a4,a5,0x10
    339e:	8341                	srli	a4,a4,0x10
    33a0:	08100793          	li	a5,129
    33a4:	02f71163          	bne	a4,a5,33c6 <OTG_FS_IRQHandler+0x71e>
C:/Users/Yaner/Desktop/camera/libraries/sdk/Peripheral/ch32v30x_usbotg_device.c:713
                                if( ( USBOTG_FS->UEP1_TX_CTRL & USBHD_UEP_T_RES_MASK ) == USBHD_UEP_T_RES_STALL )
    33a8:	500007b7          	lui	a5,0x50000
    33ac:	0367c783          	lbu	a5,54(a5) # 50000036 <_eusrstack+0x2fff0036>
    33b0:	0ff7f793          	andi	a5,a5,255
    33b4:	0037f713          	andi	a4,a5,3
    33b8:	478d                	li	a5,3
    33ba:	0af71d63          	bne	a4,a5,3474 <OTG_FS_IRQHandler+0x7cc>
C:/Users/Yaner/Desktop/camera/libraries/sdk/Peripheral/ch32v30x_usbotg_device.c:715
                                    EP0_DatabufHD[ 0 ] = 0x01;
    33be:	4705                	li	a4,1
    33c0:	84e18e23          	sb	a4,-1956(gp) # 20000154 <EP0_DatabufHD>
    33c4:	a845                	j	3474 <OTG_FS_IRQHandler+0x7cc>
C:/Users/Yaner/Desktop/camera/libraries/sdk/Peripheral/ch32v30x_usbotg_device.c:718
                            else if( pMySetupReqPakHD->wIndex == 0x01 )
    33c6:	85c18793          	addi	a5,gp,-1956 # 20000154 <EP0_DatabufHD>
    33ca:	0047c703          	lbu	a4,4(a5)
    33ce:	0057c783          	lbu	a5,5(a5)
    33d2:	07a2                	slli	a5,a5,0x8
    33d4:	8fd9                	or	a5,a5,a4
    33d6:	01079713          	slli	a4,a5,0x10
    33da:	8341                	srli	a4,a4,0x10
    33dc:	4785                	li	a5,1
    33de:	02f71163          	bne	a4,a5,3400 <OTG_FS_IRQHandler+0x758>
C:/Users/Yaner/Desktop/camera/libraries/sdk/Peripheral/ch32v30x_usbotg_device.c:720
                                if( ( USBOTG_FS->UEP1_RX_CTRL & USBHD_UEP_R_RES_MASK ) == USBHD_UEP_R_RES_STALL )
    33e2:	500007b7          	lui	a5,0x50000
    33e6:	0377c783          	lbu	a5,55(a5) # 50000037 <_eusrstack+0x2fff0037>
    33ea:	0ff7f793          	andi	a5,a5,255
    33ee:	0037f713          	andi	a4,a5,3
    33f2:	478d                	li	a5,3
    33f4:	08f71063          	bne	a4,a5,3474 <OTG_FS_IRQHandler+0x7cc>
C:/Users/Yaner/Desktop/camera/libraries/sdk/Peripheral/ch32v30x_usbotg_device.c:722
                                    EP0_DatabufHD[ 0 ] = 0x01;
    33f8:	4705                	li	a4,1
    33fa:	84e18e23          	sb	a4,-1956(gp) # 20000154 <EP0_DatabufHD>
    33fe:	a89d                	j	3474 <OTG_FS_IRQHandler+0x7cc>
C:/Users/Yaner/Desktop/camera/libraries/sdk/Peripheral/ch32v30x_usbotg_device.c:725
                            else if( pMySetupReqPakHD->wIndex == 0x82 )
    3400:	85c18793          	addi	a5,gp,-1956 # 20000154 <EP0_DatabufHD>
    3404:	0047c703          	lbu	a4,4(a5)
    3408:	0057c783          	lbu	a5,5(a5)
    340c:	07a2                	slli	a5,a5,0x8
    340e:	8fd9                	or	a5,a5,a4
    3410:	01079713          	slli	a4,a5,0x10
    3414:	8341                	srli	a4,a4,0x10
    3416:	08200793          	li	a5,130
    341a:	02f71163          	bne	a4,a5,343c <OTG_FS_IRQHandler+0x794>
C:/Users/Yaner/Desktop/camera/libraries/sdk/Peripheral/ch32v30x_usbotg_device.c:727
                                if( ( USBOTG_FS->UEP2_TX_CTRL & USBHD_UEP_T_RES_MASK ) == USBHD_UEP_T_RES_STALL )
    341e:	500007b7          	lui	a5,0x50000
    3422:	03a7c783          	lbu	a5,58(a5) # 5000003a <_eusrstack+0x2fff003a>
    3426:	0ff7f793          	andi	a5,a5,255
    342a:	0037f713          	andi	a4,a5,3
    342e:	478d                	li	a5,3
    3430:	04f71263          	bne	a4,a5,3474 <OTG_FS_IRQHandler+0x7cc>
C:/Users/Yaner/Desktop/camera/libraries/sdk/Peripheral/ch32v30x_usbotg_device.c:729
                                    EP0_DatabufHD[ 0 ] = 0x01;
    3434:	4705                	li	a4,1
    3436:	84e18e23          	sb	a4,-1956(gp) # 20000154 <EP0_DatabufHD>
    343a:	a82d                	j	3474 <OTG_FS_IRQHandler+0x7cc>
C:/Users/Yaner/Desktop/camera/libraries/sdk/Peripheral/ch32v30x_usbotg_device.c:732
                            else if( pMySetupReqPakHD->wIndex == 0x02 )
    343c:	85c18793          	addi	a5,gp,-1956 # 20000154 <EP0_DatabufHD>
    3440:	0047c703          	lbu	a4,4(a5)
    3444:	0057c783          	lbu	a5,5(a5)
    3448:	07a2                	slli	a5,a5,0x8
    344a:	8fd9                	or	a5,a5,a4
    344c:	01079713          	slli	a4,a5,0x10
    3450:	8341                	srli	a4,a4,0x10
    3452:	4789                	li	a5,2
    3454:	02f71063          	bne	a4,a5,3474 <OTG_FS_IRQHandler+0x7cc>
C:/Users/Yaner/Desktop/camera/libraries/sdk/Peripheral/ch32v30x_usbotg_device.c:734
                                if( ( USBOTG_FS->UEP2_RX_CTRL & USBHD_UEP_R_RES_MASK ) == USBHD_UEP_R_RES_STALL )
    3458:	500007b7          	lui	a5,0x50000
    345c:	03b7c783          	lbu	a5,59(a5) # 5000003b <_eusrstack+0x2fff003b>
    3460:	0ff7f793          	andi	a5,a5,255
    3464:	0037f713          	andi	a4,a5,3
    3468:	478d                	li	a5,3
    346a:	00f71563          	bne	a4,a5,3474 <OTG_FS_IRQHandler+0x7cc>
C:/Users/Yaner/Desktop/camera/libraries/sdk/Peripheral/ch32v30x_usbotg_device.c:736
                                    EP0_DatabufHD[ 0 ] = 0x01;
    346e:	4705                	li	a4,1
    3470:	84e18e23          	sb	a4,-1956(gp) # 20000154 <EP0_DatabufHD>
C:/Users/Yaner/Desktop/camera/libraries/sdk/Peripheral/ch32v30x_usbotg_device.c:739
                            if( USBHD_Dev_SetupReqLen > 2 )
    3474:	8741d783          	lhu	a5,-1932(gp) # 2000016c <USBHD_Dev_SetupReqLen>
    3478:	01079713          	slli	a4,a5,0x10
    347c:	8341                	srli	a4,a4,0x10
    347e:	4789                	li	a5,2
    3480:	02e7f063          	bgeu	a5,a4,34a0 <OTG_FS_IRQHandler+0x7f8>
C:/Users/Yaner/Desktop/camera/libraries/sdk/Peripheral/ch32v30x_usbotg_device.c:741
                                USBHD_Dev_SetupReqLen = 2;
    3484:	4709                	li	a4,2
    3486:	86e19a23          	sh	a4,-1932(gp) # 2000016c <USBHD_Dev_SetupReqLen>
C:/Users/Yaner/Desktop/camera/libraries/sdk/Peripheral/ch32v30x_usbotg_device.c:743
                            break;
    348a:	a819                	j	34a0 <OTG_FS_IRQHandler+0x7f8>
C:/Users/Yaner/Desktop/camera/libraries/sdk/Peripheral/ch32v30x_usbotg_device.c:746
                            errflag = 0xFF;
    348c:	57fd                	li	a5,-1
    348e:	fef40723          	sb	a5,-18(s0)
C:/Users/Yaner/Desktop/camera/libraries/sdk/Peripheral/ch32v30x_usbotg_device.c:747
                            break;
    3492:	a801                	j	34a2 <OTG_FS_IRQHandler+0x7fa>
C:/Users/Yaner/Desktop/camera/libraries/sdk/Peripheral/ch32v30x_usbotg_device.c:583
                            break;
    3494:	0001                	nop
    3496:	a031                	j	34a2 <OTG_FS_IRQHandler+0x7fa>
C:/Users/Yaner/Desktop/camera/libraries/sdk/Peripheral/ch32v30x_usbotg_device.c:696
                            break;
    3498:	0001                	nop
    349a:	a021                	j	34a2 <OTG_FS_IRQHandler+0x7fa>
C:/Users/Yaner/Desktop/camera/libraries/sdk/Peripheral/ch32v30x_usbotg_device.c:705
                            break;
    349c:	0001                	nop
    349e:	a011                	j	34a2 <OTG_FS_IRQHandler+0x7fa>
C:/Users/Yaner/Desktop/camera/libraries/sdk/Peripheral/ch32v30x_usbotg_device.c:743
                            break;
    34a0:	0001                	nop
C:/Users/Yaner/Desktop/camera/libraries/sdk/Peripheral/ch32v30x_usbotg_device.c:750
                if( errflag == 0xff)
    34a2:	fee44703          	lbu	a4,-18(s0)
    34a6:	0ff00793          	li	a5,255
    34aa:	00f71d63          	bne	a4,a5,34c4 <OTG_FS_IRQHandler+0x81c>
C:/Users/Yaner/Desktop/camera/libraries/sdk/Peripheral/ch32v30x_usbotg_device.c:753
                    USBOTG_FS->UEP0_TX_CTRL = USBHD_UEP_T_TOG|USBHD_UEP_T_RES_STALL;
    34ae:	500007b7          	lui	a5,0x50000
    34b2:	471d                	li	a4,7
    34b4:	02e78923          	sb	a4,50(a5) # 50000032 <_eusrstack+0x2fff0032>
C:/Users/Yaner/Desktop/camera/libraries/sdk/Peripheral/ch32v30x_usbotg_device.c:754
                    USBOTG_FS->UEP0_RX_CTRL = USBHD_UEP_R_TOG|USBHD_UEP_R_RES_STALL;
    34b8:	500007b7          	lui	a5,0x50000
    34bc:	471d                	li	a4,7
    34be:	02e789a3          	sb	a4,51(a5) # 50000033 <_eusrstack+0x2fff0033>
C:/Users/Yaner/Desktop/camera/libraries/sdk/Peripheral/ch32v30x_usbotg_device.c:769
                break;
    34c2:	a67d                	j	3870 <OTG_FS_IRQHandler+0xbc8>
C:/Users/Yaner/Desktop/camera/libraries/sdk/Peripheral/ch32v30x_usbotg_device.c:758
                    if( chtype & 0x80 )
    34c4:	fec40783          	lb	a5,-20(s0)
    34c8:	0407d563          	bgez	a5,3512 <OTG_FS_IRQHandler+0x86a>
C:/Users/Yaner/Desktop/camera/libraries/sdk/Peripheral/ch32v30x_usbotg_device.c:760
                        len = (SetupReqLen>DevEP0SIZE) ? DevEP0SIZE : SetupReqLen;
    34cc:	87a1d783          	lhu	a5,-1926(gp) # 20000172 <SetupReqLen>
    34d0:	01079713          	slli	a4,a5,0x10
    34d4:	8341                	srli	a4,a4,0x10
    34d6:	47a1                	li	a5,8
    34d8:	00e7e963          	bltu	a5,a4,34ea <OTG_FS_IRQHandler+0x842>
C:/Users/Yaner/Desktop/camera/libraries/sdk/Peripheral/ch32v30x_usbotg_device.c:760 (discriminator 1)
    34dc:	87a1d783          	lhu	a5,-1926(gp) # 20000172 <SetupReqLen>
    34e0:	07c2                	slli	a5,a5,0x10
    34e2:	83c1                	srli	a5,a5,0x10
    34e4:	0ff7f793          	andi	a5,a5,255
    34e8:	a011                	j	34ec <OTG_FS_IRQHandler+0x844>
C:/Users/Yaner/Desktop/camera/libraries/sdk/Peripheral/ch32v30x_usbotg_device.c:760 (discriminator 2)
    34ea:	47a1                	li	a5,8
C:/Users/Yaner/Desktop/camera/libraries/sdk/Peripheral/ch32v30x_usbotg_device.c:760 (discriminator 4)
    34ec:	fef407a3          	sb	a5,-17(s0)
C:/Users/Yaner/Desktop/camera/libraries/sdk/Peripheral/ch32v30x_usbotg_device.c:761 (discriminator 4)
                        SetupReqLen -= len;
    34f0:	87a1d783          	lhu	a5,-1926(gp) # 20000172 <SetupReqLen>
    34f4:	01079713          	slli	a4,a5,0x10
    34f8:	8341                	srli	a4,a4,0x10
    34fa:	fef44783          	lbu	a5,-17(s0)
    34fe:	07c2                	slli	a5,a5,0x10
    3500:	83c1                	srli	a5,a5,0x10
    3502:	40f707b3          	sub	a5,a4,a5
    3506:	01079713          	slli	a4,a5,0x10
    350a:	8341                	srli	a4,a4,0x10
    350c:	86e19d23          	sh	a4,-1926(gp) # 20000172 <SetupReqLen>
    3510:	a019                	j	3516 <OTG_FS_IRQHandler+0x86e>
C:/Users/Yaner/Desktop/camera/libraries/sdk/Peripheral/ch32v30x_usbotg_device.c:763
                    else  len = 0;
    3512:	fe0407a3          	sb	zero,-17(s0)
C:/Users/Yaner/Desktop/camera/libraries/sdk/Peripheral/ch32v30x_usbotg_device.c:765
                    USBOTG_FS->UEP0_TX_LEN  = len;
    3516:	500007b7          	lui	a5,0x50000
    351a:	fef44703          	lbu	a4,-17(s0)
    351e:	0742                	slli	a4,a4,0x10
    3520:	8341                	srli	a4,a4,0x10
    3522:	02e79823          	sh	a4,48(a5) # 50000030 <_eusrstack+0x2fff0030>
C:/Users/Yaner/Desktop/camera/libraries/sdk/Peripheral/ch32v30x_usbotg_device.c:766
                    USBOTG_FS->UEP0_TX_CTRL = USBHD_UEP_T_TOG|USBHD_UEP_T_RES_ACK;
    3526:	500007b7          	lui	a5,0x50000
    352a:	4711                	li	a4,4
    352c:	02e78923          	sb	a4,50(a5) # 50000032 <_eusrstack+0x2fff0032>
C:/Users/Yaner/Desktop/camera/libraries/sdk/Peripheral/ch32v30x_usbotg_device.c:767
                    USBOTG_FS->UEP0_RX_CTRL = USBHD_UEP_R_TOG|USBHD_UEP_R_RES_ACK;
    3530:	500007b7          	lui	a5,0x50000
    3534:	4711                	li	a4,4
    3536:	02e789a3          	sb	a4,51(a5) # 50000033 <_eusrstack+0x2fff0033>
C:/Users/Yaner/Desktop/camera/libraries/sdk/Peripheral/ch32v30x_usbotg_device.c:769
                break;
    353a:	ae1d                	j	3870 <OTG_FS_IRQHandler+0xbc8>
C:/Users/Yaner/Desktop/camera/libraries/sdk/Peripheral/ch32v30x_usbotg_device.c:772
                switch ( USBOTG_FS->INT_ST & ( USBHD_UIS_TOKEN_MASK | USBHD_UIS_ENDP_MASK ) )
    353c:	500007b7          	lui	a5,0x50000
    3540:	0077c783          	lbu	a5,7(a5) # 50000007 <_eusrstack+0x2fff0007>
    3544:	0ff7f793          	andi	a5,a5,255
    3548:	03f7f793          	andi	a5,a5,63
    354c:	02100713          	li	a4,33
    3550:	12e78463          	beq	a5,a4,3678 <OTG_FS_IRQHandler+0x9d0>
    3554:	02200713          	li	a4,34
    3558:	14e78c63          	beq	a5,a4,36b0 <OTG_FS_IRQHandler+0xa08>
    355c:	02000713          	li	a4,32
    3560:	18e79d63          	bne	a5,a4,36fa <OTG_FS_IRQHandler+0xa52>
C:/Users/Yaner/Desktop/camera/libraries/sdk/Peripheral/ch32v30x_usbotg_device.c:775 (discriminator 6)
                        switch( SetupReqCode )
    3564:	8781c783          	lbu	a5,-1928(gp) # 20000170 <SetupReqCode>
    3568:	0ff7f793          	andi	a5,a5,255
    356c:	4715                	li	a4,5
    356e:	08e78f63          	beq	a5,a4,360c <OTG_FS_IRQHandler+0x964>
    3572:	4719                	li	a4,6
    3574:	0ee79363          	bne	a5,a4,365a <OTG_FS_IRQHandler+0x9b2>
C:/Users/Yaner/Desktop/camera/libraries/sdk/Peripheral/ch32v30x_usbotg_device.c:778
                                    len = SetupReqLen >= DevEP0SIZE ? DevEP0SIZE : SetupReqLen;
    3578:	87a1d783          	lhu	a5,-1926(gp) # 20000172 <SetupReqLen>
    357c:	01079713          	slli	a4,a5,0x10
    3580:	8341                	srli	a4,a4,0x10
    3582:	479d                	li	a5,7
    3584:	00e7e963          	bltu	a5,a4,3596 <OTG_FS_IRQHandler+0x8ee>
C:/Users/Yaner/Desktop/camera/libraries/sdk/Peripheral/ch32v30x_usbotg_device.c:778 (discriminator 1)
    3588:	87a1d783          	lhu	a5,-1926(gp) # 20000172 <SetupReqLen>
    358c:	07c2                	slli	a5,a5,0x10
    358e:	83c1                	srli	a5,a5,0x10
    3590:	0ff7f793          	andi	a5,a5,255
    3594:	a011                	j	3598 <OTG_FS_IRQHandler+0x8f0>
C:/Users/Yaner/Desktop/camera/libraries/sdk/Peripheral/ch32v30x_usbotg_device.c:778 (discriminator 2)
    3596:	47a1                	li	a5,8
C:/Users/Yaner/Desktop/camera/libraries/sdk/Peripheral/ch32v30x_usbotg_device.c:778 (discriminator 4)
    3598:	fef407a3          	sb	a5,-17(s0)
C:/Users/Yaner/Desktop/camera/libraries/sdk/Peripheral/ch32v30x_usbotg_device.c:779 (discriminator 4)
                                    memcpy( pEP0_DataBuf, pDescr, len );
    359c:	8641a703          	lw	a4,-1948(gp) # 2000015c <pEP0_RAM_Addr>
    35a0:	8701a783          	lw	a5,-1936(gp) # 20000168 <pDescr>
    35a4:	fef44683          	lbu	a3,-17(s0)
    35a8:	8636                	mv	a2,a3
    35aa:	85be                	mv	a1,a5
    35ac:	853a                	mv	a0,a4
    35ae:	2ebd                	jal	392c <memcpy>
C:/Users/Yaner/Desktop/camera/libraries/sdk/Peripheral/ch32v30x_usbotg_device.c:780 (discriminator 4)
                                    SetupReqLen -= len;
    35b0:	87a1d783          	lhu	a5,-1926(gp) # 20000172 <SetupReqLen>
    35b4:	01079713          	slli	a4,a5,0x10
    35b8:	8341                	srli	a4,a4,0x10
    35ba:	fef44783          	lbu	a5,-17(s0)
    35be:	07c2                	slli	a5,a5,0x10
    35c0:	83c1                	srli	a5,a5,0x10
    35c2:	40f707b3          	sub	a5,a4,a5
    35c6:	01079713          	slli	a4,a5,0x10
    35ca:	8341                	srli	a4,a4,0x10
    35cc:	86e19d23          	sh	a4,-1926(gp) # 20000172 <SetupReqLen>
C:/Users/Yaner/Desktop/camera/libraries/sdk/Peripheral/ch32v30x_usbotg_device.c:781 (discriminator 4)
                                    pDescr += len;
    35d0:	8701a703          	lw	a4,-1936(gp) # 20000168 <pDescr>
    35d4:	fef44783          	lbu	a5,-17(s0)
    35d8:	973e                	add	a4,a4,a5
    35da:	86e1a823          	sw	a4,-1936(gp) # 20000168 <pDescr>
C:/Users/Yaner/Desktop/camera/libraries/sdk/Peripheral/ch32v30x_usbotg_device.c:782 (discriminator 4)
                                    USBOTG_FS->UEP0_TX_LEN   = len;
    35de:	500007b7          	lui	a5,0x50000
    35e2:	fef44703          	lbu	a4,-17(s0)
    35e6:	0742                	slli	a4,a4,0x10
    35e8:	8341                	srli	a4,a4,0x10
    35ea:	02e79823          	sh	a4,48(a5) # 50000030 <_eusrstack+0x2fff0030>
C:/Users/Yaner/Desktop/camera/libraries/sdk/Peripheral/ch32v30x_usbotg_device.c:783 (discriminator 4)
                                    USBOTG_FS->UEP0_TX_CTRL ^= USBHD_UEP_T_TOG;
    35ee:	500007b7          	lui	a5,0x50000
    35f2:	0327c783          	lbu	a5,50(a5) # 50000032 <_eusrstack+0x2fff0032>
    35f6:	0ff7f713          	andi	a4,a5,255
    35fa:	500007b7          	lui	a5,0x50000
    35fe:	00474713          	xori	a4,a4,4
    3602:	0ff77713          	andi	a4,a4,255
    3606:	02e78923          	sb	a4,50(a5) # 50000032 <_eusrstack+0x2fff0032>
C:/Users/Yaner/Desktop/camera/libraries/sdk/Peripheral/ch32v30x_usbotg_device.c:784 (discriminator 4)
                                    break;
    360a:	a0b5                	j	3676 <OTG_FS_IRQHandler+0x9ce>
C:/Users/Yaner/Desktop/camera/libraries/sdk/Peripheral/ch32v30x_usbotg_device.c:787
                                    USBOTG_FS->DEV_ADDR = (USBOTG_FS->DEV_ADDR&USBHD_UDA_GP_BIT) | SetupReqLen;
    360c:	500007b7          	lui	a5,0x50000
    3610:	0037c783          	lbu	a5,3(a5) # 50000003 <_eusrstack+0x2fff0003>
    3614:	0ff7f793          	andi	a5,a5,255
    3618:	07e2                	slli	a5,a5,0x18
    361a:	87e1                	srai	a5,a5,0x18
    361c:	f807f793          	andi	a5,a5,-128
    3620:	01879713          	slli	a4,a5,0x18
    3624:	8761                	srai	a4,a4,0x18
    3626:	87a1d783          	lhu	a5,-1926(gp) # 20000172 <SetupReqLen>
    362a:	07c2                	slli	a5,a5,0x10
    362c:	83c1                	srli	a5,a5,0x10
    362e:	07e2                	slli	a5,a5,0x18
    3630:	87e1                	srai	a5,a5,0x18
    3632:	8fd9                	or	a5,a5,a4
    3634:	01879713          	slli	a4,a5,0x18
    3638:	8761                	srai	a4,a4,0x18
    363a:	500007b7          	lui	a5,0x50000
    363e:	0ff77713          	andi	a4,a4,255
    3642:	00e781a3          	sb	a4,3(a5) # 50000003 <_eusrstack+0x2fff0003>
C:/Users/Yaner/Desktop/camera/libraries/sdk/Peripheral/ch32v30x_usbotg_device.c:788
                                    USBOTG_FS->UEP0_TX_CTRL = USBHD_UEP_T_RES_NAK;
    3646:	500007b7          	lui	a5,0x50000
    364a:	4709                	li	a4,2
    364c:	02e78923          	sb	a4,50(a5) # 50000032 <_eusrstack+0x2fff0032>
C:/Users/Yaner/Desktop/camera/libraries/sdk/Peripheral/ch32v30x_usbotg_device.c:789
                                    USBOTG_FS->UEP0_RX_CTRL = USBHD_UEP_R_RES_ACK;
    3650:	500007b7          	lui	a5,0x50000
    3654:	020789a3          	sb	zero,51(a5) # 50000033 <_eusrstack+0x2fff0033>
C:/Users/Yaner/Desktop/camera/libraries/sdk/Peripheral/ch32v30x_usbotg_device.c:790
                                    break;
    3658:	a839                	j	3676 <OTG_FS_IRQHandler+0x9ce>
C:/Users/Yaner/Desktop/camera/libraries/sdk/Peripheral/ch32v30x_usbotg_device.c:793
                                    USBOTG_FS->UEP0_TX_LEN = 0;
    365a:	500007b7          	lui	a5,0x50000
    365e:	02079823          	sh	zero,48(a5) # 50000030 <_eusrstack+0x2fff0030>
C:/Users/Yaner/Desktop/camera/libraries/sdk/Peripheral/ch32v30x_usbotg_device.c:794
                                    USBOTG_FS->UEP0_TX_CTRL = USBHD_UEP_T_RES_NAK;
    3662:	500007b7          	lui	a5,0x50000
    3666:	4709                	li	a4,2
    3668:	02e78923          	sb	a4,50(a5) # 50000032 <_eusrstack+0x2fff0032>
C:/Users/Yaner/Desktop/camera/libraries/sdk/Peripheral/ch32v30x_usbotg_device.c:795
                                    USBOTG_FS->UEP0_RX_CTRL = USBHD_UEP_R_RES_ACK;
    366c:	500007b7          	lui	a5,0x50000
    3670:	020789a3          	sb	zero,51(a5) # 50000033 <_eusrstack+0x2fff0033>
C:/Users/Yaner/Desktop/camera/libraries/sdk/Peripheral/ch32v30x_usbotg_device.c:796
                                    break;
    3674:	0001                	nop
C:/Users/Yaner/Desktop/camera/libraries/sdk/Peripheral/ch32v30x_usbotg_device.c:799
                        break;
    3676:	a059                	j	36fc <OTG_FS_IRQHandler+0xa54>
C:/Users/Yaner/Desktop/camera/libraries/sdk/Peripheral/ch32v30x_usbotg_device.c:802
                    USBOTG_FS->UEP1_TX_CTRL  = (USBHD_UEP1_TX_CTRL & ~USBHD_UEP_T_RES_MASK) | USBHD_UEP_T_RES_ACK;
    3678:	500007b7          	lui	a5,0x50000
    367c:	0367c783          	lbu	a5,54(a5) # 50000036 <_eusrstack+0x2fff0036>
    3680:	0ff7f713          	andi	a4,a5,255
    3684:	500007b7          	lui	a5,0x50000
    3688:	9b71                	andi	a4,a4,-4
    368a:	0ff77713          	andi	a4,a4,255
    368e:	02e78b23          	sb	a4,54(a5) # 50000036 <_eusrstack+0x2fff0036>
C:/Users/Yaner/Desktop/camera/libraries/sdk/Peripheral/ch32v30x_usbotg_device.c:803
                    USBOTG_FS->UEP1_TX_CTRL ^= USBHD_UEP_T_TOG;
    3692:	500007b7          	lui	a5,0x50000
    3696:	0367c783          	lbu	a5,54(a5) # 50000036 <_eusrstack+0x2fff0036>
    369a:	0ff7f713          	andi	a4,a5,255
    369e:	500007b7          	lui	a5,0x50000
    36a2:	00474713          	xori	a4,a4,4
    36a6:	0ff77713          	andi	a4,a4,255
    36aa:	02e78b23          	sb	a4,54(a5) # 50000036 <_eusrstack+0x2fff0036>
C:/Users/Yaner/Desktop/camera/libraries/sdk/Peripheral/ch32v30x_usbotg_device.c:804
                    break;
    36ae:	a0b9                	j	36fc <OTG_FS_IRQHandler+0xa54>
C:/Users/Yaner/Desktop/camera/libraries/sdk/Peripheral/ch32v30x_usbotg_device.c:807
                    USBOTG_FS->UEP2_TX_CTRL ^= USBHD_UEP_T_TOG;
    36b0:	500007b7          	lui	a5,0x50000
    36b4:	03a7c783          	lbu	a5,58(a5) # 5000003a <_eusrstack+0x2fff003a>
    36b8:	0ff7f713          	andi	a4,a5,255
    36bc:	500007b7          	lui	a5,0x50000
    36c0:	00474713          	xori	a4,a4,4
    36c4:	0ff77713          	andi	a4,a4,255
    36c8:	02e78d23          	sb	a4,58(a5) # 5000003a <_eusrstack+0x2fff003a>
C:/Users/Yaner/Desktop/camera/libraries/sdk/Peripheral/ch32v30x_usbotg_device.c:808
                    USBOTG_FS->UEP2_TX_CTRL = (USBOTG_FS->UEP2_TX_CTRL & ~USBHD_UEP_T_RES_MASK) | USBHD_UEP_T_RES_NAK;
    36cc:	500007b7          	lui	a5,0x50000
    36d0:	03a7c783          	lbu	a5,58(a5) # 5000003a <_eusrstack+0x2fff003a>
    36d4:	0ff7f793          	andi	a5,a5,255
    36d8:	07e2                	slli	a5,a5,0x18
    36da:	87e1                	srai	a5,a5,0x18
    36dc:	9bf1                	andi	a5,a5,-4
    36de:	07e2                	slli	a5,a5,0x18
    36e0:	87e1                	srai	a5,a5,0x18
    36e2:	0027e793          	ori	a5,a5,2
    36e6:	01879713          	slli	a4,a5,0x18
    36ea:	8761                	srai	a4,a4,0x18
    36ec:	500007b7          	lui	a5,0x50000
    36f0:	0ff77713          	andi	a4,a4,255
    36f4:	02e78d23          	sb	a4,58(a5) # 5000003a <_eusrstack+0x2fff003a>
C:/Users/Yaner/Desktop/camera/libraries/sdk/Peripheral/ch32v30x_usbotg_device.c:809
                    break;
    36f8:	a011                	j	36fc <OTG_FS_IRQHandler+0xa54>
C:/Users/Yaner/Desktop/camera/libraries/sdk/Peripheral/ch32v30x_usbotg_device.c:813
                    break;
    36fa:	0001                	nop
C:/Users/Yaner/Desktop/camera/libraries/sdk/Peripheral/ch32v30x_usbotg_device.c:816
                break;
    36fc:	aa95                	j	3870 <OTG_FS_IRQHandler+0xbc8>
C:/Users/Yaner/Desktop/camera/libraries/sdk/Peripheral/ch32v30x_usbotg_device.c:820
                switch ( USBOTG_FS->INT_ST & ( USBHD_UIS_TOKEN_MASK | USBHD_UIS_ENDP_MASK ) )
    36fe:	500007b7          	lui	a5,0x50000
    3702:	0077c783          	lbu	a5,7(a5) # 50000007 <_eusrstack+0x2fff0007>
    3706:	0ff7f793          	andi	a5,a5,255
    370a:	03f7f793          	andi	a5,a5,63
    370e:	4705                	li	a4,1
    3710:	0ce78363          	beq	a5,a4,37d6 <OTG_FS_IRQHandler+0xb2e>
    3714:	4709                	li	a4,2
    3716:	10e78263          	beq	a5,a4,381a <OTG_FS_IRQHandler+0xb72>
    371a:	14079a63          	bnez	a5,386e <OTG_FS_IRQHandler+0xbc6>
C:/Users/Yaner/Desktop/camera/libraries/sdk/Peripheral/ch32v30x_usbotg_device.c:823 (discriminator 7)
                        switch( SetupReqCode )
    371e:	8781c783          	lbu	a5,-1928(gp) # 20000170 <SetupReqCode>
    3722:	0ff7f793          	andi	a5,a5,255
    3726:	873e                	mv	a4,a5
    3728:	02000793          	li	a5,32
    372c:	08f71f63          	bne	a4,a5,37ca <OTG_FS_IRQHandler+0xb22>
C:/Users/Yaner/Desktop/camera/libraries/sdk/Peripheral/ch32v30x_usbotg_device.c:826
                                if((((LINECODINGST *)pEP0_DataBuf)->dataRat[0] || ((LINECODINGST *)pEP0_DataBuf)->dataRat[1] ||
    3730:	8641a783          	lw	a5,-1948(gp) # 2000015c <pEP0_RAM_Addr>
    3734:	0007c783          	lbu	a5,0(a5)
    3738:	e385                	bnez	a5,3758 <OTG_FS_IRQHandler+0xab0>
C:/Users/Yaner/Desktop/camera/libraries/sdk/Peripheral/ch32v30x_usbotg_device.c:826 (discriminator 1)
    373a:	8641a783          	lw	a5,-1948(gp) # 2000015c <pEP0_RAM_Addr>
    373e:	0017c783          	lbu	a5,1(a5)
    3742:	eb99                	bnez	a5,3758 <OTG_FS_IRQHandler+0xab0>
C:/Users/Yaner/Desktop/camera/libraries/sdk/Peripheral/ch32v30x_usbotg_device.c:827 (discriminator 2)
                                  ((LINECODINGST *)pEP0_DataBuf)->dataRat[2] || ((LINECODINGST *)pEP0_DataBuf)->dataRat[3]))
    3744:	8641a783          	lw	a5,-1948(gp) # 2000015c <pEP0_RAM_Addr>
    3748:	0027c783          	lbu	a5,2(a5)
C:/Users/Yaner/Desktop/camera/libraries/sdk/Peripheral/ch32v30x_usbotg_device.c:826 (discriminator 2)
                                if((((LINECODINGST *)pEP0_DataBuf)->dataRat[0] || ((LINECODINGST *)pEP0_DataBuf)->dataRat[1] ||
    374c:	e791                	bnez	a5,3758 <OTG_FS_IRQHandler+0xab0>
C:/Users/Yaner/Desktop/camera/libraries/sdk/Peripheral/ch32v30x_usbotg_device.c:827
                                  ((LINECODINGST *)pEP0_DataBuf)->dataRat[2] || ((LINECODINGST *)pEP0_DataBuf)->dataRat[3]))
    374e:	8641a783          	lw	a5,-1948(gp) # 2000015c <pEP0_RAM_Addr>
    3752:	0037c783          	lbu	a5,3(a5)
    3756:	cf95                	beqz	a5,3792 <OTG_FS_IRQHandler+0xaea>
C:/Users/Yaner/Desktop/camera/libraries/sdk/Peripheral/ch32v30x_usbotg_device.c:831
                                            (((LINECODINGST *)pEP0_DataBuf)->dataRat[3] <<24) |
    3758:	8641a783          	lw	a5,-1948(gp) # 2000015c <pEP0_RAM_Addr>
    375c:	0037c783          	lbu	a5,3(a5)
    3760:	01879713          	slli	a4,a5,0x18
C:/Users/Yaner/Desktop/camera/libraries/sdk/Peripheral/ch32v30x_usbotg_device.c:832
                                            (((LINECODINGST *)pEP0_DataBuf)->dataRat[2] <<16) |
    3764:	8641a783          	lw	a5,-1948(gp) # 2000015c <pEP0_RAM_Addr>
    3768:	0027c783          	lbu	a5,2(a5)
    376c:	07c2                	slli	a5,a5,0x10
C:/Users/Yaner/Desktop/camera/libraries/sdk/Peripheral/ch32v30x_usbotg_device.c:831
                                            (((LINECODINGST *)pEP0_DataBuf)->dataRat[3] <<24) |
    376e:	8f5d                	or	a4,a4,a5
C:/Users/Yaner/Desktop/camera/libraries/sdk/Peripheral/ch32v30x_usbotg_device.c:833
                                            (((LINECODINGST *)pEP0_DataBuf)->dataRat[1] <<8) |
    3770:	8641a783          	lw	a5,-1948(gp) # 2000015c <pEP0_RAM_Addr>
    3774:	0017c783          	lbu	a5,1(a5)
    3778:	07a2                	slli	a5,a5,0x8
C:/Users/Yaner/Desktop/camera/libraries/sdk/Peripheral/ch32v30x_usbotg_device.c:832
                                            (((LINECODINGST *)pEP0_DataBuf)->dataRat[2] <<16) |
    377a:	8fd9                	or	a5,a5,a4
C:/Users/Yaner/Desktop/camera/libraries/sdk/Peripheral/ch32v30x_usbotg_device.c:834
                                            (((LINECODINGST *)pEP0_DataBuf)->dataRat[0]));
    377c:	8641a703          	lw	a4,-1948(gp) # 2000015c <pEP0_RAM_Addr>
    3780:	00074703          	lbu	a4,0(a4)
C:/Users/Yaner/Desktop/camera/libraries/sdk/Peripheral/ch32v30x_usbotg_device.c:830
                                    printf( "\nBaud Rate = %d",
    3784:	8fd9                	or	a5,a5,a4
    3786:	85be                	mv	a1,a5
    3788:	6795                	lui	a5,0x5
    378a:	d7478513          	addi	a0,a5,-652 # 4d74 <_sbrk+0x13c>
    378e:	2c91                	jal	39e2 <iprintf>
C:/Users/Yaner/Desktop/camera/libraries/sdk/Peripheral/ch32v30x_usbotg_device.c:843
                               break;
    3790:	a825                	j	37c8 <OTG_FS_IRQHandler+0xb20>
C:/Users/Yaner/Desktop/camera/libraries/sdk/Peripheral/ch32v30x_usbotg_device.c:838
                                    printf( "\ndataBit = %d",  ((LINECODINGST *)pEP0_DataBuf)->dataBit);
    3792:	8641a783          	lw	a5,-1948(gp) # 2000015c <pEP0_RAM_Addr>
    3796:	0067c783          	lbu	a5,6(a5)
    379a:	85be                	mv	a1,a5
    379c:	6795                	lui	a5,0x5
    379e:	d8478513          	addi	a0,a5,-636 # 4d84 <_sbrk+0x14c>
    37a2:	2481                	jal	39e2 <iprintf>
C:/Users/Yaner/Desktop/camera/libraries/sdk/Peripheral/ch32v30x_usbotg_device.c:839
                                    printf( "\nstopBit = %d",  ((LINECODINGST *)pEP0_DataBuf)->stopBit);
    37a4:	8641a783          	lw	a5,-1948(gp) # 2000015c <pEP0_RAM_Addr>
    37a8:	0047c783          	lbu	a5,4(a5)
    37ac:	85be                	mv	a1,a5
    37ae:	6795                	lui	a5,0x5
    37b0:	d9478513          	addi	a0,a5,-620 # 4d94 <_sbrk+0x15c>
    37b4:	243d                	jal	39e2 <iprintf>
C:/Users/Yaner/Desktop/camera/libraries/sdk/Peripheral/ch32v30x_usbotg_device.c:840
                                    printf( "\nparityType = %d",  ((LINECODINGST *)pEP0_DataBuf)->parityType);
    37b6:	8641a783          	lw	a5,-1948(gp) # 2000015c <pEP0_RAM_Addr>
    37ba:	0057c783          	lbu	a5,5(a5)
    37be:	85be                	mv	a1,a5
    37c0:	6795                	lui	a5,0x5
    37c2:	da478513          	addi	a0,a5,-604 # 4da4 <_sbrk+0x16c>
    37c6:	2c31                	jal	39e2 <iprintf>
C:/Users/Yaner/Desktop/camera/libraries/sdk/Peripheral/ch32v30x_usbotg_device.c:843
                               break;
    37c8:	0001                	nop
C:/Users/Yaner/Desktop/camera/libraries/sdk/Peripheral/ch32v30x_usbotg_device.c:847
                    len = USBOTG_FS->RX_LEN;
    37ca:	500007b7          	lui	a5,0x50000
    37ce:	479c                	lw	a5,8(a5)
    37d0:	fef407a3          	sb	a5,-17(s0)
C:/Users/Yaner/Desktop/camera/libraries/sdk/Peripheral/ch32v30x_usbotg_device.c:848
                    break;
    37d4:	a841                	j	3864 <OTG_FS_IRQHandler+0xbbc>
C:/Users/Yaner/Desktop/camera/libraries/sdk/Peripheral/ch32v30x_usbotg_device.c:851
                        if ( USBOTG_FS->INT_ST & USBHD_UIS_TOG_OK )
    37d6:	500007b7          	lui	a5,0x50000
    37da:	0077c783          	lbu	a5,7(a5) # 50000007 <_eusrstack+0x2fff0007>
    37de:	0ff7f793          	andi	a5,a5,255
    37e2:	0407f793          	andi	a5,a5,64
    37e6:	cfa5                	beqz	a5,385e <OTG_FS_IRQHandler+0xbb6>
C:/Users/Yaner/Desktop/camera/libraries/sdk/Peripheral/ch32v30x_usbotg_device.c:853
                            USBOTG_FS->UEP1_RX_CTRL ^= USBHD_UEP_R_TOG;
    37e8:	500007b7          	lui	a5,0x50000
    37ec:	0377c783          	lbu	a5,55(a5) # 50000037 <_eusrstack+0x2fff0037>
    37f0:	0ff7f713          	andi	a4,a5,255
    37f4:	500007b7          	lui	a5,0x50000
    37f8:	00474713          	xori	a4,a4,4
    37fc:	0ff77713          	andi	a4,a4,255
    3800:	02e78ba3          	sb	a4,55(a5) # 50000037 <_eusrstack+0x2fff0037>
C:/Users/Yaner/Desktop/camera/libraries/sdk/Peripheral/ch32v30x_usbotg_device.c:854
                            len = USBOTG_FS->RX_LEN;
    3804:	500007b7          	lui	a5,0x50000
    3808:	479c                	lw	a5,8(a5)
    380a:	fef407a3          	sb	a5,-17(s0)
C:/Users/Yaner/Desktop/camera/libraries/sdk/Peripheral/ch32v30x_usbotg_device.c:856
                            DevEP1_OUT_Deal( len );
    380e:	fef44783          	lbu	a5,-17(s0)
    3812:	853e                	mv	a0,a5
    3814:	bccff0ef          	jal	ra,2be0 <DevEP1_OUT_Deal>
C:/Users/Yaner/Desktop/camera/libraries/sdk/Peripheral/ch32v30x_usbotg_device.c:858
                        break;
    3818:	a099                	j	385e <OTG_FS_IRQHandler+0xbb6>
C:/Users/Yaner/Desktop/camera/libraries/sdk/Peripheral/ch32v30x_usbotg_device.c:861
                        if ( USBOTG_FS->INT_ST & USBHD_UIS_TOG_OK )
    381a:	500007b7          	lui	a5,0x50000
    381e:	0077c783          	lbu	a5,7(a5) # 50000007 <_eusrstack+0x2fff0007>
    3822:	0ff7f793          	andi	a5,a5,255
    3826:	0407f793          	andi	a5,a5,64
    382a:	cf85                	beqz	a5,3862 <OTG_FS_IRQHandler+0xbba>
C:/Users/Yaner/Desktop/camera/libraries/sdk/Peripheral/ch32v30x_usbotg_device.c:863
                            USBOTG_FS->UEP2_RX_CTRL ^= USBHD_UEP_R_TOG;
    382c:	500007b7          	lui	a5,0x50000
    3830:	03b7c783          	lbu	a5,59(a5) # 5000003b <_eusrstack+0x2fff003b>
    3834:	0ff7f713          	andi	a4,a5,255
    3838:	500007b7          	lui	a5,0x50000
    383c:	00474713          	xori	a4,a4,4
    3840:	0ff77713          	andi	a4,a4,255
    3844:	02e78da3          	sb	a4,59(a5) # 5000003b <_eusrstack+0x2fff003b>
C:/Users/Yaner/Desktop/camera/libraries/sdk/Peripheral/ch32v30x_usbotg_device.c:864
                            len = USBOTG_FS->RX_LEN;
    3848:	500007b7          	lui	a5,0x50000
    384c:	479c                	lw	a5,8(a5)
    384e:	fef407a3          	sb	a5,-17(s0)
C:/Users/Yaner/Desktop/camera/libraries/sdk/Peripheral/ch32v30x_usbotg_device.c:866
                            DevEP2_OUT_Deal( len );
    3852:	fef44783          	lbu	a5,-17(s0)
    3856:	853e                	mv	a0,a5
    3858:	becff0ef          	jal	ra,2c44 <DevEP2_OUT_Deal>
C:/Users/Yaner/Desktop/camera/libraries/sdk/Peripheral/ch32v30x_usbotg_device.c:868
                        break;
    385c:	a019                	j	3862 <OTG_FS_IRQHandler+0xbba>
C:/Users/Yaner/Desktop/camera/libraries/sdk/Peripheral/ch32v30x_usbotg_device.c:858
                        break;
    385e:	0001                	nop
    3860:	a039                	j	386e <OTG_FS_IRQHandler+0xbc6>
C:/Users/Yaner/Desktop/camera/libraries/sdk/Peripheral/ch32v30x_usbotg_device.c:868
                        break;
    3862:	0001                	nop
C:/Users/Yaner/Desktop/camera/libraries/sdk/Peripheral/ch32v30x_usbotg_device.c:871
                break;
    3864:	a029                	j	386e <OTG_FS_IRQHandler+0xbc6>
C:/Users/Yaner/Desktop/camera/libraries/sdk/Peripheral/ch32v30x_usbotg_device.c:875
                break;
    3866:	0001                	nop
    3868:	a021                	j	3870 <OTG_FS_IRQHandler+0xbc8>
C:/Users/Yaner/Desktop/camera/libraries/sdk/Peripheral/ch32v30x_usbotg_device.c:878
                break;
    386a:	0001                	nop
    386c:	a011                	j	3870 <OTG_FS_IRQHandler+0xbc8>
C:/Users/Yaner/Desktop/camera/libraries/sdk/Peripheral/ch32v30x_usbotg_device.c:871
                break;
    386e:	0001                	nop
C:/Users/Yaner/Desktop/camera/libraries/sdk/Peripheral/ch32v30x_usbotg_device.c:882

        }

        USBOTG_FS->INT_FG = USBHD_UIF_TRANSFER;
    3870:	500007b7          	lui	a5,0x50000
    3874:	4709                	li	a4,2
    3876:	00e78323          	sb	a4,6(a5) # 50000006 <_eusrstack+0x2fff0006>
C:/Users/Yaner/Desktop/camera/libraries/sdk/Peripheral/ch32v30x_usbotg_device.c:908
    }
    else
    {
        USBOTG_FS->INT_FG = intflag;
    }
}
    387a:	a079                	j	3908 <OTG_FS_IRQHandler+0xc60>
C:/Users/Yaner/Desktop/camera/libraries/sdk/Peripheral/ch32v30x_usbotg_device.c:884
    else if( intflag & USBHD_UIF_BUS_RST )
    387c:	fed44783          	lbu	a5,-19(s0)
    3880:	8b85                	andi	a5,a5,1
    3882:	cfb9                	beqz	a5,38e0 <OTG_FS_IRQHandler+0xc38>
C:/Users/Yaner/Desktop/camera/libraries/sdk/Peripheral/ch32v30x_usbotg_device.c:886
        USBOTG_FS->DEV_ADDR = 0;
    3884:	500007b7          	lui	a5,0x50000
    3888:	000781a3          	sb	zero,3(a5) # 50000003 <_eusrstack+0x2fff0003>
C:/Users/Yaner/Desktop/camera/libraries/sdk/Peripheral/ch32v30x_usbotg_device.c:888
        USBOTG_FS->UEP0_RX_CTRL = USBHD_UEP_R_RES_ACK;
    388c:	500007b7          	lui	a5,0x50000
    3890:	020789a3          	sb	zero,51(a5) # 50000033 <_eusrstack+0x2fff0033>
C:/Users/Yaner/Desktop/camera/libraries/sdk/Peripheral/ch32v30x_usbotg_device.c:889
        USBOTG_FS->UEP1_RX_CTRL = USBHD_UEP_R_RES_ACK;
    3894:	500007b7          	lui	a5,0x50000
    3898:	02078ba3          	sb	zero,55(a5) # 50000037 <_eusrstack+0x2fff0037>
C:/Users/Yaner/Desktop/camera/libraries/sdk/Peripheral/ch32v30x_usbotg_device.c:890
        USBOTG_FS->UEP2_RX_CTRL = USBHD_UEP_R_RES_ACK;
    389c:	500007b7          	lui	a5,0x50000
    38a0:	02078da3          	sb	zero,59(a5) # 5000003b <_eusrstack+0x2fff003b>
C:/Users/Yaner/Desktop/camera/libraries/sdk/Peripheral/ch32v30x_usbotg_device.c:892
        USBOTG_FS->UEP0_TX_CTRL = USBHD_UEP_T_RES_NAK;
    38a4:	500007b7          	lui	a5,0x50000
    38a8:	4709                	li	a4,2
    38aa:	02e78923          	sb	a4,50(a5) # 50000032 <_eusrstack+0x2fff0032>
C:/Users/Yaner/Desktop/camera/libraries/sdk/Peripheral/ch32v30x_usbotg_device.c:893
        USBOTG_FS->UEP1_TX_CTRL = USBHD_UEP_T_RES_NAK;
    38ae:	500007b7          	lui	a5,0x50000
    38b2:	4709                	li	a4,2
    38b4:	02e78b23          	sb	a4,54(a5) # 50000036 <_eusrstack+0x2fff0036>
C:/Users/Yaner/Desktop/camera/libraries/sdk/Peripheral/ch32v30x_usbotg_device.c:894
        USBOTG_FS->UEP2_TX_CTRL = USBHD_UEP_T_RES_NAK;
    38b8:	500007b7          	lui	a5,0x50000
    38bc:	4709                	li	a4,2
    38be:	02e78d23          	sb	a4,58(a5) # 5000003a <_eusrstack+0x2fff003a>
C:/Users/Yaner/Desktop/camera/libraries/sdk/Peripheral/ch32v30x_usbotg_device.c:896
        USBOTG_FS->INT_FG |= USBHD_UIF_BUS_RST;
    38c2:	500007b7          	lui	a5,0x50000
    38c6:	0067c783          	lbu	a5,6(a5) # 50000006 <_eusrstack+0x2fff0006>
    38ca:	0ff7f713          	andi	a4,a5,255
    38ce:	500007b7          	lui	a5,0x50000
    38d2:	00176713          	ori	a4,a4,1
    38d6:	0ff77713          	andi	a4,a4,255
    38da:	00e78323          	sb	a4,6(a5) # 50000006 <_eusrstack+0x2fff0006>
C:/Users/Yaner/Desktop/camera/libraries/sdk/Peripheral/ch32v30x_usbotg_device.c:908
}
    38de:	a02d                	j	3908 <OTG_FS_IRQHandler+0xc60>
C:/Users/Yaner/Desktop/camera/libraries/sdk/Peripheral/ch32v30x_usbotg_device.c:898
    else if( intflag & USBHD_UIF_SUSPEND )
    38e0:	fed44783          	lbu	a5,-19(s0)
    38e4:	8b91                	andi	a5,a5,4
    38e6:	cb99                	beqz	a5,38fc <OTG_FS_IRQHandler+0xc54>
C:/Users/Yaner/Desktop/camera/libraries/sdk/Peripheral/ch32v30x_usbotg_device.c:900
        if ( USBOTG_FS->MIS_ST & USBHD_UMS_SUSPEND ) {;}
    38e8:	500007b7          	lui	a5,0x50000
    38ec:	0057c783          	lbu	a5,5(a5) # 50000005 <_eusrstack+0x2fff0005>
C:/Users/Yaner/Desktop/camera/libraries/sdk/Peripheral/ch32v30x_usbotg_device.c:902
        USBOTG_FS->INT_FG = USBHD_UIF_SUSPEND;
    38f0:	500007b7          	lui	a5,0x50000
    38f4:	4711                	li	a4,4
    38f6:	00e78323          	sb	a4,6(a5) # 50000006 <_eusrstack+0x2fff0006>
C:/Users/Yaner/Desktop/camera/libraries/sdk/Peripheral/ch32v30x_usbotg_device.c:908
}
    38fa:	a039                	j	3908 <OTG_FS_IRQHandler+0xc60>
C:/Users/Yaner/Desktop/camera/libraries/sdk/Peripheral/ch32v30x_usbotg_device.c:906
        USBOTG_FS->INT_FG = intflag;
    38fc:	500007b7          	lui	a5,0x50000
    3900:	fed44703          	lbu	a4,-19(s0)
    3904:	00e78323          	sb	a4,6(a5) # 50000006 <_eusrstack+0x2fff0006>
C:/Users/Yaner/Desktop/camera/libraries/sdk/Peripheral/ch32v30x_usbotg_device.c:908
}
    3908:	0001                	nop
    390a:	4472                	lw	s0,28(sp)
    390c:	6105                	addi	sp,sp,32
    390e:	30200073          	mret

00003912 <__get_MSTATUS>:
__get_MSTATUS():
C:/Users/Yaner/Desktop/camera/libraries/sdk/Core/core_riscv.c:91

/**
 * @brief  Return the Machine Status Register
 */
uint32_t __get_MSTATUS(void)
{
    3912:	1101                	addi	sp,sp,-32
    3914:	ce22                	sw	s0,28(sp)
    3916:	1000                	addi	s0,sp,32
C:/Users/Yaner/Desktop/camera/libraries/sdk/Core/core_riscv.c:94
  uint32_t result;

  __ASM volatile ( "csrr %0," "mstatus" : "=r" (result) );
    3918:	300027f3          	csrr	a5,mstatus
    391c:	fef42623          	sw	a5,-20(s0)
C:/Users/Yaner/Desktop/camera/libraries/sdk/Core/core_riscv.c:95
  return (result);
    3920:	fec42783          	lw	a5,-20(s0)
C:/Users/Yaner/Desktop/camera/libraries/sdk/Core/core_riscv.c:96
}
    3924:	853e                	mv	a0,a5
    3926:	4472                	lw	s0,28(sp)
    3928:	6105                	addi	sp,sp,32
    392a:	8082                	ret

0000392c <memcpy>:
memcpy():
    392c:	00a5c7b3          	xor	a5,a1,a0
    3930:	8b8d                	andi	a5,a5,3
    3932:	00c50733          	add	a4,a0,a2
    3936:	e781                	bnez	a5,393e <memcpy+0x12>
    3938:	478d                	li	a5,3
    393a:	00c7ee63          	bltu	a5,a2,3956 <memcpy+0x2a>
    393e:	87aa                	mv	a5,a0
    3940:	0ae57063          	bgeu	a0,a4,39e0 <memcpy+0xb4>
    3944:	0005c683          	lbu	a3,0(a1)
    3948:	0785                	addi	a5,a5,1
    394a:	0585                	addi	a1,a1,1
    394c:	fed78fa3          	sb	a3,-1(a5)
    3950:	fee7eae3          	bltu	a5,a4,3944 <memcpy+0x18>
    3954:	8082                	ret
    3956:	00357693          	andi	a3,a0,3
    395a:	87aa                	mv	a5,a0
    395c:	ca91                	beqz	a3,3970 <memcpy+0x44>
    395e:	0005c683          	lbu	a3,0(a1)
    3962:	0785                	addi	a5,a5,1
    3964:	0585                	addi	a1,a1,1
    3966:	fed78fa3          	sb	a3,-1(a5)
    396a:	0037f693          	andi	a3,a5,3
    396e:	b7fd                	j	395c <memcpy+0x30>
    3970:	ffc77693          	andi	a3,a4,-4
    3974:	fe068613          	addi	a2,a3,-32
    3978:	06c7f063          	bgeu	a5,a2,39d8 <memcpy+0xac>
    397c:	0005a383          	lw	t2,0(a1)
    3980:	0045a283          	lw	t0,4(a1)
    3984:	0085af83          	lw	t6,8(a1)
    3988:	00c5af03          	lw	t5,12(a1)
    398c:	0105ae83          	lw	t4,16(a1)
    3990:	0145ae03          	lw	t3,20(a1)
    3994:	0185a303          	lw	t1,24(a1)
    3998:	01c5a883          	lw	a7,28(a1)
    399c:	02458593          	addi	a1,a1,36
    39a0:	0077a023          	sw	t2,0(a5)
    39a4:	ffc5a803          	lw	a6,-4(a1)
    39a8:	0057a223          	sw	t0,4(a5)
    39ac:	01f7a423          	sw	t6,8(a5)
    39b0:	01e7a623          	sw	t5,12(a5)
    39b4:	01d7a823          	sw	t4,16(a5)
    39b8:	01c7aa23          	sw	t3,20(a5)
    39bc:	0067ac23          	sw	t1,24(a5)
    39c0:	0117ae23          	sw	a7,28(a5)
    39c4:	02478793          	addi	a5,a5,36
    39c8:	ff07ae23          	sw	a6,-4(a5)
    39cc:	b775                	j	3978 <memcpy+0x4c>
    39ce:	4190                	lw	a2,0(a1)
    39d0:	0791                	addi	a5,a5,4
    39d2:	0591                	addi	a1,a1,4
    39d4:	fec7ae23          	sw	a2,-4(a5)
    39d8:	fed7ebe3          	bltu	a5,a3,39ce <memcpy+0xa2>
    39dc:	f6e7e4e3          	bltu	a5,a4,3944 <memcpy+0x18>
    39e0:	8082                	ret

000039e2 <iprintf>:
printf():
    39e2:	7139                	addi	sp,sp,-64
    39e4:	da3e                	sw	a5,52(sp)
    39e6:	d22e                	sw	a1,36(sp)
    39e8:	d432                	sw	a2,40(sp)
    39ea:	d636                	sw	a3,44(sp)
    39ec:	d83a                	sw	a4,48(sp)
    39ee:	dc42                	sw	a6,56(sp)
    39f0:	de46                	sw	a7,60(sp)
    39f2:	81418793          	addi	a5,gp,-2028 # 2000010c <_impure_ptr>
    39f6:	cc22                	sw	s0,24(sp)
    39f8:	4380                	lw	s0,0(a5)
    39fa:	ca26                	sw	s1,20(sp)
    39fc:	ce06                	sw	ra,28(sp)
    39fe:	84aa                	mv	s1,a0
    3a00:	c409                	beqz	s0,3a0a <iprintf+0x28>
    3a02:	4c1c                	lw	a5,24(s0)
    3a04:	e399                	bnez	a5,3a0a <iprintf+0x28>
    3a06:	8522                	mv	a0,s0
    3a08:	2b89                	jal	3f5a <__sinit>
    3a0a:	440c                	lw	a1,8(s0)
    3a0c:	1054                	addi	a3,sp,36
    3a0e:	8626                	mv	a2,s1
    3a10:	8522                	mv	a0,s0
    3a12:	c636                	sw	a3,12(sp)
    3a14:	197000ef          	jal	ra,43aa <_vfiprintf_r>
    3a18:	40f2                	lw	ra,28(sp)
    3a1a:	4462                	lw	s0,24(sp)
    3a1c:	44d2                	lw	s1,20(sp)
    3a1e:	6121                	addi	sp,sp,64
    3a20:	8082                	ret

00003a22 <_puts_r>:
_puts_r():
    3a22:	1101                	addi	sp,sp,-32
    3a24:	ca26                	sw	s1,20(sp)
    3a26:	c84a                	sw	s2,16(sp)
    3a28:	ce06                	sw	ra,28(sp)
    3a2a:	cc22                	sw	s0,24(sp)
    3a2c:	c64e                	sw	s3,12(sp)
    3a2e:	c452                	sw	s4,8(sp)
    3a30:	84aa                	mv	s1,a0
    3a32:	892e                	mv	s2,a1
    3a34:	c501                	beqz	a0,3a3c <_puts_r+0x1a>
    3a36:	4d1c                	lw	a5,24(a0)
    3a38:	e391                	bnez	a5,3a3c <_puts_r+0x1a>
    3a3a:	2305                	jal	3f5a <__sinit>
    3a3c:	4c9c                	lw	a5,24(s1)
    3a3e:	4480                	lw	s0,8(s1)
    3a40:	e399                	bnez	a5,3a46 <_puts_r+0x24>
    3a42:	8526                	mv	a0,s1
    3a44:	2b19                	jal	3f5a <__sinit>
    3a46:	00001797          	auipc	a5,0x1
    3a4a:	52e78793          	addi	a5,a5,1326 # 4f74 <__sf_fake_stdin>
    3a4e:	02f41c63          	bne	s0,a5,3a86 <_puts_r+0x64>
    3a52:	40c0                	lw	s0,4(s1)
    3a54:	00c45783          	lhu	a5,12(s0)
    3a58:	8ba1                	andi	a5,a5,8
    3a5a:	c7b1                	beqz	a5,3aa6 <_puts_r+0x84>
    3a5c:	481c                	lw	a5,16(s0)
    3a5e:	c7a1                	beqz	a5,3aa6 <_puts_r+0x84>
    3a60:	59fd                	li	s3,-1
    3a62:	4a29                	li	s4,10
    3a64:	441c                	lw	a5,8(s0)
    3a66:	00094583          	lbu	a1,0(s2)
    3a6a:	17fd                	addi	a5,a5,-1
    3a6c:	e9b1                	bnez	a1,3ac0 <_puts_r+0x9e>
    3a6e:	c41c                	sw	a5,8(s0)
    3a70:	0607de63          	bgez	a5,3aec <_puts_r+0xca>
    3a74:	8622                	mv	a2,s0
    3a76:	45a9                	li	a1,10
    3a78:	8526                	mv	a0,s1
    3a7a:	2865                	jal	3b32 <__swbuf_r>
    3a7c:	57fd                	li	a5,-1
    3a7e:	02f50863          	beq	a0,a5,3aae <_puts_r+0x8c>
    3a82:	4529                	li	a0,10
    3a84:	a035                	j	3ab0 <_puts_r+0x8e>
    3a86:	00001797          	auipc	a5,0x1
    3a8a:	50e78793          	addi	a5,a5,1294 # 4f94 <__sf_fake_stdout>
    3a8e:	00f41463          	bne	s0,a5,3a96 <_puts_r+0x74>
    3a92:	4480                	lw	s0,8(s1)
    3a94:	b7c1                	j	3a54 <_puts_r+0x32>
    3a96:	00001797          	auipc	a5,0x1
    3a9a:	4be78793          	addi	a5,a5,1214 # 4f54 <__sf_fake_stderr>
    3a9e:	faf41be3          	bne	s0,a5,3a54 <_puts_r+0x32>
    3aa2:	44c0                	lw	s0,12(s1)
    3aa4:	bf45                	j	3a54 <_puts_r+0x32>
    3aa6:	85a2                	mv	a1,s0
    3aa8:	8526                	mv	a0,s1
    3aaa:	22a1                	jal	3bf2 <__swsetup_r>
    3aac:	d955                	beqz	a0,3a60 <_puts_r+0x3e>
    3aae:	557d                	li	a0,-1
    3ab0:	40f2                	lw	ra,28(sp)
    3ab2:	4462                	lw	s0,24(sp)
    3ab4:	44d2                	lw	s1,20(sp)
    3ab6:	4942                	lw	s2,16(sp)
    3ab8:	49b2                	lw	s3,12(sp)
    3aba:	4a22                	lw	s4,8(sp)
    3abc:	6105                	addi	sp,sp,32
    3abe:	8082                	ret
    3ac0:	c41c                	sw	a5,8(s0)
    3ac2:	0905                	addi	s2,s2,1
    3ac4:	0007d763          	bgez	a5,3ad2 <_puts_r+0xb0>
    3ac8:	4c18                	lw	a4,24(s0)
    3aca:	00e7cb63          	blt	a5,a4,3ae0 <_puts_r+0xbe>
    3ace:	01458963          	beq	a1,s4,3ae0 <_puts_r+0xbe>
    3ad2:	401c                	lw	a5,0(s0)
    3ad4:	00178713          	addi	a4,a5,1
    3ad8:	c018                	sw	a4,0(s0)
    3ada:	00b78023          	sb	a1,0(a5)
    3ade:	b759                	j	3a64 <_puts_r+0x42>
    3ae0:	8622                	mv	a2,s0
    3ae2:	8526                	mv	a0,s1
    3ae4:	20b9                	jal	3b32 <__swbuf_r>
    3ae6:	f7351fe3          	bne	a0,s3,3a64 <_puts_r+0x42>
    3aea:	b7d1                	j	3aae <_puts_r+0x8c>
    3aec:	401c                	lw	a5,0(s0)
    3aee:	00178713          	addi	a4,a5,1
    3af2:	c018                	sw	a4,0(s0)
    3af4:	4729                	li	a4,10
    3af6:	00e78023          	sb	a4,0(a5)
    3afa:	b761                	j	3a82 <_puts_r+0x60>

00003afc <puts>:
puts():
    3afc:	81418793          	addi	a5,gp,-2028 # 2000010c <_impure_ptr>
    3b00:	85aa                	mv	a1,a0
    3b02:	4388                	lw	a0,0(a5)
    3b04:	bf39                	j	3a22 <_puts_r>

00003b06 <strncmp>:
strncmp():
    3b06:	c605                	beqz	a2,3b2e <strncmp+0x28>
    3b08:	167d                	addi	a2,a2,-1
    3b0a:	4701                	li	a4,0
    3b0c:	00e507b3          	add	a5,a0,a4
    3b10:	00e586b3          	add	a3,a1,a4
    3b14:	0007c783          	lbu	a5,0(a5)
    3b18:	0006c683          	lbu	a3,0(a3)
    3b1c:	00d79663          	bne	a5,a3,3b28 <strncmp+0x22>
    3b20:	00c70463          	beq	a4,a2,3b28 <strncmp+0x22>
    3b24:	0705                	addi	a4,a4,1
    3b26:	f3fd                	bnez	a5,3b0c <strncmp+0x6>
    3b28:	40d78533          	sub	a0,a5,a3
    3b2c:	8082                	ret
    3b2e:	4501                	li	a0,0
    3b30:	8082                	ret

00003b32 <__swbuf_r>:
__swbuf_r():
    3b32:	1101                	addi	sp,sp,-32
    3b34:	cc22                	sw	s0,24(sp)
    3b36:	ca26                	sw	s1,20(sp)
    3b38:	c84a                	sw	s2,16(sp)
    3b3a:	ce06                	sw	ra,28(sp)
    3b3c:	c64e                	sw	s3,12(sp)
    3b3e:	84aa                	mv	s1,a0
    3b40:	892e                	mv	s2,a1
    3b42:	8432                	mv	s0,a2
    3b44:	c501                	beqz	a0,3b4c <__swbuf_r+0x1a>
    3b46:	4d1c                	lw	a5,24(a0)
    3b48:	e391                	bnez	a5,3b4c <__swbuf_r+0x1a>
    3b4a:	2901                	jal	3f5a <__sinit>
    3b4c:	00001797          	auipc	a5,0x1
    3b50:	42878793          	addi	a5,a5,1064 # 4f74 <__sf_fake_stdin>
    3b54:	06f41963          	bne	s0,a5,3bc6 <__swbuf_r+0x94>
    3b58:	40c0                	lw	s0,4(s1)
    3b5a:	4c1c                	lw	a5,24(s0)
    3b5c:	c41c                	sw	a5,8(s0)
    3b5e:	00c45783          	lhu	a5,12(s0)
    3b62:	8ba1                	andi	a5,a5,8
    3b64:	c3c9                	beqz	a5,3be6 <__swbuf_r+0xb4>
    3b66:	481c                	lw	a5,16(s0)
    3b68:	cfbd                	beqz	a5,3be6 <__swbuf_r+0xb4>
    3b6a:	481c                	lw	a5,16(s0)
    3b6c:	4008                	lw	a0,0(s0)
    3b6e:	0ff97993          	andi	s3,s2,255
    3b72:	0ff97913          	andi	s2,s2,255
    3b76:	8d1d                	sub	a0,a0,a5
    3b78:	485c                	lw	a5,20(s0)
    3b7a:	00f54663          	blt	a0,a5,3b86 <__swbuf_r+0x54>
    3b7e:	85a2                	mv	a1,s0
    3b80:	8526                	mv	a0,s1
    3b82:	2c65                	jal	3e3a <_fflush_r>
    3b84:	e52d                	bnez	a0,3bee <__swbuf_r+0xbc>
    3b86:	441c                	lw	a5,8(s0)
    3b88:	0505                	addi	a0,a0,1
    3b8a:	17fd                	addi	a5,a5,-1
    3b8c:	c41c                	sw	a5,8(s0)
    3b8e:	401c                	lw	a5,0(s0)
    3b90:	00178713          	addi	a4,a5,1
    3b94:	c018                	sw	a4,0(s0)
    3b96:	01378023          	sb	s3,0(a5)
    3b9a:	485c                	lw	a5,20(s0)
    3b9c:	00a78963          	beq	a5,a0,3bae <__swbuf_r+0x7c>
    3ba0:	00c45783          	lhu	a5,12(s0)
    3ba4:	8b85                	andi	a5,a5,1
    3ba6:	cb81                	beqz	a5,3bb6 <__swbuf_r+0x84>
    3ba8:	47a9                	li	a5,10
    3baa:	00f91663          	bne	s2,a5,3bb6 <__swbuf_r+0x84>
    3bae:	85a2                	mv	a1,s0
    3bb0:	8526                	mv	a0,s1
    3bb2:	2461                	jal	3e3a <_fflush_r>
    3bb4:	ed0d                	bnez	a0,3bee <__swbuf_r+0xbc>
    3bb6:	40f2                	lw	ra,28(sp)
    3bb8:	4462                	lw	s0,24(sp)
    3bba:	854a                	mv	a0,s2
    3bbc:	44d2                	lw	s1,20(sp)
    3bbe:	4942                	lw	s2,16(sp)
    3bc0:	49b2                	lw	s3,12(sp)
    3bc2:	6105                	addi	sp,sp,32
    3bc4:	8082                	ret
    3bc6:	00001797          	auipc	a5,0x1
    3bca:	3ce78793          	addi	a5,a5,974 # 4f94 <__sf_fake_stdout>
    3bce:	00f41463          	bne	s0,a5,3bd6 <__swbuf_r+0xa4>
    3bd2:	4480                	lw	s0,8(s1)
    3bd4:	b759                	j	3b5a <__swbuf_r+0x28>
    3bd6:	00001797          	auipc	a5,0x1
    3bda:	37e78793          	addi	a5,a5,894 # 4f54 <__sf_fake_stderr>
    3bde:	f6f41ee3          	bne	s0,a5,3b5a <__swbuf_r+0x28>
    3be2:	44c0                	lw	s0,12(s1)
    3be4:	bf9d                	j	3b5a <__swbuf_r+0x28>
    3be6:	85a2                	mv	a1,s0
    3be8:	8526                	mv	a0,s1
    3bea:	2021                	jal	3bf2 <__swsetup_r>
    3bec:	dd3d                	beqz	a0,3b6a <__swbuf_r+0x38>
    3bee:	597d                	li	s2,-1
    3bf0:	b7d9                	j	3bb6 <__swbuf_r+0x84>

00003bf2 <__swsetup_r>:
__swsetup_r():
    3bf2:	1141                	addi	sp,sp,-16
    3bf4:	81418793          	addi	a5,gp,-2028 # 2000010c <_impure_ptr>
    3bf8:	c226                	sw	s1,4(sp)
    3bfa:	4384                	lw	s1,0(a5)
    3bfc:	c422                	sw	s0,8(sp)
    3bfe:	c04a                	sw	s2,0(sp)
    3c00:	c606                	sw	ra,12(sp)
    3c02:	892a                	mv	s2,a0
    3c04:	842e                	mv	s0,a1
    3c06:	c489                	beqz	s1,3c10 <__swsetup_r+0x1e>
    3c08:	4c9c                	lw	a5,24(s1)
    3c0a:	e399                	bnez	a5,3c10 <__swsetup_r+0x1e>
    3c0c:	8526                	mv	a0,s1
    3c0e:	26b1                	jal	3f5a <__sinit>
    3c10:	00001797          	auipc	a5,0x1
    3c14:	36478793          	addi	a5,a5,868 # 4f74 <__sf_fake_stdin>
    3c18:	02f41c63          	bne	s0,a5,3c50 <__swsetup_r+0x5e>
    3c1c:	40c0                	lw	s0,4(s1)
    3c1e:	00c41703          	lh	a4,12(s0)
    3c22:	01071793          	slli	a5,a4,0x10
    3c26:	83c1                	srli	a5,a5,0x10
    3c28:	0087f693          	andi	a3,a5,8
    3c2c:	eeb5                	bnez	a3,3ca8 <__swsetup_r+0xb6>
    3c2e:	0107f693          	andi	a3,a5,16
    3c32:	ee9d                	bnez	a3,3c70 <__swsetup_r+0x7e>
    3c34:	47a5                	li	a5,9
    3c36:	00f92023          	sw	a5,0(s2)
    3c3a:	04076713          	ori	a4,a4,64
    3c3e:	00e41623          	sh	a4,12(s0)
    3c42:	557d                	li	a0,-1
    3c44:	40b2                	lw	ra,12(sp)
    3c46:	4422                	lw	s0,8(sp)
    3c48:	4492                	lw	s1,4(sp)
    3c4a:	4902                	lw	s2,0(sp)
    3c4c:	0141                	addi	sp,sp,16
    3c4e:	8082                	ret
    3c50:	00001797          	auipc	a5,0x1
    3c54:	34478793          	addi	a5,a5,836 # 4f94 <__sf_fake_stdout>
    3c58:	00f41463          	bne	s0,a5,3c60 <__swsetup_r+0x6e>
    3c5c:	4480                	lw	s0,8(s1)
    3c5e:	b7c1                	j	3c1e <__swsetup_r+0x2c>
    3c60:	00001797          	auipc	a5,0x1
    3c64:	2f478793          	addi	a5,a5,756 # 4f54 <__sf_fake_stderr>
    3c68:	faf41be3          	bne	s0,a5,3c1e <__swsetup_r+0x2c>
    3c6c:	44c0                	lw	s0,12(s1)
    3c6e:	bf45                	j	3c1e <__swsetup_r+0x2c>
    3c70:	8b91                	andi	a5,a5,4
    3c72:	c78d                	beqz	a5,3c9c <__swsetup_r+0xaa>
    3c74:	584c                	lw	a1,52(s0)
    3c76:	c989                	beqz	a1,3c88 <__swsetup_r+0x96>
    3c78:	04440793          	addi	a5,s0,68
    3c7c:	00f58463          	beq	a1,a5,3c84 <__swsetup_r+0x92>
    3c80:	854a                	mv	a0,s2
    3c82:	2381                	jal	41c2 <_free_r>
    3c84:	02042a23          	sw	zero,52(s0)
    3c88:	00c45783          	lhu	a5,12(s0)
    3c8c:	00042223          	sw	zero,4(s0)
    3c90:	fdb7f793          	andi	a5,a5,-37
    3c94:	00f41623          	sh	a5,12(s0)
    3c98:	481c                	lw	a5,16(s0)
    3c9a:	c01c                	sw	a5,0(s0)
    3c9c:	00c45783          	lhu	a5,12(s0)
    3ca0:	0087e793          	ori	a5,a5,8
    3ca4:	00f41623          	sh	a5,12(s0)
    3ca8:	481c                	lw	a5,16(s0)
    3caa:	ef81                	bnez	a5,3cc2 <__swsetup_r+0xd0>
    3cac:	00c45783          	lhu	a5,12(s0)
    3cb0:	20000713          	li	a4,512
    3cb4:	2807f793          	andi	a5,a5,640
    3cb8:	00e78563          	beq	a5,a4,3cc2 <__swsetup_r+0xd0>
    3cbc:	85a2                	mv	a1,s0
    3cbe:	854a                	mv	a0,s2
    3cc0:	2195                	jal	4124 <__smakebuf_r>
    3cc2:	00c45783          	lhu	a5,12(s0)
    3cc6:	0017f713          	andi	a4,a5,1
    3cca:	c705                	beqz	a4,3cf2 <__swsetup_r+0x100>
    3ccc:	485c                	lw	a5,20(s0)
    3cce:	00042423          	sw	zero,8(s0)
    3cd2:	40f007b3          	neg	a5,a5
    3cd6:	cc1c                	sw	a5,24(s0)
    3cd8:	481c                	lw	a5,16(s0)
    3cda:	4501                	li	a0,0
    3cdc:	f7a5                	bnez	a5,3c44 <__swsetup_r+0x52>
    3cde:	00c41783          	lh	a5,12(s0)
    3ce2:	0807f713          	andi	a4,a5,128
    3ce6:	df39                	beqz	a4,3c44 <__swsetup_r+0x52>
    3ce8:	0407e793          	ori	a5,a5,64
    3cec:	00f41623          	sh	a5,12(s0)
    3cf0:	bf89                	j	3c42 <__swsetup_r+0x50>
    3cf2:	8b89                	andi	a5,a5,2
    3cf4:	4701                	li	a4,0
    3cf6:	e391                	bnez	a5,3cfa <__swsetup_r+0x108>
    3cf8:	4858                	lw	a4,20(s0)
    3cfa:	c418                	sw	a4,8(s0)
    3cfc:	bff1                	j	3cd8 <__swsetup_r+0xe6>

00003cfe <__sflush_r>:
__sflush_r():
    3cfe:	00c5d783          	lhu	a5,12(a1)
    3d02:	1101                	addi	sp,sp,-32
    3d04:	cc22                	sw	s0,24(sp)
    3d06:	ca26                	sw	s1,20(sp)
    3d08:	ce06                	sw	ra,28(sp)
    3d0a:	c84a                	sw	s2,16(sp)
    3d0c:	c64e                	sw	s3,12(sp)
    3d0e:	0087f713          	andi	a4,a5,8
    3d12:	84aa                	mv	s1,a0
    3d14:	842e                	mv	s0,a1
    3d16:	ef71                	bnez	a4,3df2 <__sflush_r+0xf4>
    3d18:	41d8                	lw	a4,4(a1)
    3d1a:	00e04d63          	bgtz	a4,3d34 <__sflush_r+0x36>
    3d1e:	41b8                	lw	a4,64(a1)
    3d20:	00e04a63          	bgtz	a4,3d34 <__sflush_r+0x36>
    3d24:	4501                	li	a0,0
    3d26:	40f2                	lw	ra,28(sp)
    3d28:	4462                	lw	s0,24(sp)
    3d2a:	44d2                	lw	s1,20(sp)
    3d2c:	4942                	lw	s2,16(sp)
    3d2e:	49b2                	lw	s3,12(sp)
    3d30:	6105                	addi	sp,sp,32
    3d32:	8082                	ret
    3d34:	5458                	lw	a4,44(s0)
    3d36:	d77d                	beqz	a4,3d24 <__sflush_r+0x26>
    3d38:	0004a903          	lw	s2,0(s1)
    3d3c:	01379693          	slli	a3,a5,0x13
    3d40:	0004a023          	sw	zero,0(s1)
    3d44:	0606dd63          	bgez	a3,3dbe <__sflush_r+0xc0>
    3d48:	4870                	lw	a2,84(s0)
    3d4a:	00c45783          	lhu	a5,12(s0)
    3d4e:	8b91                	andi	a5,a5,4
    3d50:	c799                	beqz	a5,3d5e <__sflush_r+0x60>
    3d52:	405c                	lw	a5,4(s0)
    3d54:	8e1d                	sub	a2,a2,a5
    3d56:	585c                	lw	a5,52(s0)
    3d58:	c399                	beqz	a5,3d5e <__sflush_r+0x60>
    3d5a:	403c                	lw	a5,64(s0)
    3d5c:	8e1d                	sub	a2,a2,a5
    3d5e:	545c                	lw	a5,44(s0)
    3d60:	500c                	lw	a1,32(s0)
    3d62:	4681                	li	a3,0
    3d64:	8526                	mv	a0,s1
    3d66:	9782                	jalr	a5
    3d68:	57fd                	li	a5,-1
    3d6a:	00c45703          	lhu	a4,12(s0)
    3d6e:	00f51d63          	bne	a0,a5,3d88 <__sflush_r+0x8a>
    3d72:	4094                	lw	a3,0(s1)
    3d74:	47f5                	li	a5,29
    3d76:	06d7e863          	bltu	a5,a3,3de6 <__sflush_r+0xe8>
    3d7a:	204007b7          	lui	a5,0x20400
    3d7e:	0785                	addi	a5,a5,1
    3d80:	00d7d7b3          	srl	a5,a5,a3
    3d84:	8b85                	andi	a5,a5,1
    3d86:	c3a5                	beqz	a5,3de6 <__sflush_r+0xe8>
    3d88:	481c                	lw	a5,16(s0)
    3d8a:	00042223          	sw	zero,4(s0)
    3d8e:	c01c                	sw	a5,0(s0)
    3d90:	01371793          	slli	a5,a4,0x13
    3d94:	0007d863          	bgez	a5,3da4 <__sflush_r+0xa6>
    3d98:	57fd                	li	a5,-1
    3d9a:	00f51463          	bne	a0,a5,3da2 <__sflush_r+0xa4>
    3d9e:	409c                	lw	a5,0(s1)
    3da0:	e391                	bnez	a5,3da4 <__sflush_r+0xa6>
    3da2:	c868                	sw	a0,84(s0)
    3da4:	584c                	lw	a1,52(s0)
    3da6:	0124a023          	sw	s2,0(s1)
    3daa:	ddad                	beqz	a1,3d24 <__sflush_r+0x26>
    3dac:	04440793          	addi	a5,s0,68
    3db0:	00f58463          	beq	a1,a5,3db8 <__sflush_r+0xba>
    3db4:	8526                	mv	a0,s1
    3db6:	2131                	jal	41c2 <_free_r>
    3db8:	02042a23          	sw	zero,52(s0)
    3dbc:	b7a5                	j	3d24 <__sflush_r+0x26>
    3dbe:	500c                	lw	a1,32(s0)
    3dc0:	4601                	li	a2,0
    3dc2:	4685                	li	a3,1
    3dc4:	8526                	mv	a0,s1
    3dc6:	9702                	jalr	a4
    3dc8:	57fd                	li	a5,-1
    3dca:	862a                	mv	a2,a0
    3dcc:	f6f51fe3          	bne	a0,a5,3d4a <__sflush_r+0x4c>
    3dd0:	409c                	lw	a5,0(s1)
    3dd2:	dfa5                	beqz	a5,3d4a <__sflush_r+0x4c>
    3dd4:	4775                	li	a4,29
    3dd6:	00e78563          	beq	a5,a4,3de0 <__sflush_r+0xe2>
    3dda:	4759                	li	a4,22
    3ddc:	04e79463          	bne	a5,a4,3e24 <__sflush_r+0x126>
    3de0:	0124a023          	sw	s2,0(s1)
    3de4:	b781                	j	3d24 <__sflush_r+0x26>
    3de6:	04076713          	ori	a4,a4,64
    3dea:	00e41623          	sh	a4,12(s0)
    3dee:	557d                	li	a0,-1
    3df0:	bf1d                	j	3d26 <__sflush_r+0x28>
    3df2:	0105a983          	lw	s3,16(a1)
    3df6:	f20987e3          	beqz	s3,3d24 <__sflush_r+0x26>
    3dfa:	0005a903          	lw	s2,0(a1)
    3dfe:	8b8d                	andi	a5,a5,3
    3e00:	0135a023          	sw	s3,0(a1)
    3e04:	41390933          	sub	s2,s2,s3
    3e08:	4701                	li	a4,0
    3e0a:	e391                	bnez	a5,3e0e <__sflush_r+0x110>
    3e0c:	49d8                	lw	a4,20(a1)
    3e0e:	c418                	sw	a4,8(s0)
    3e10:	f1205ae3          	blez	s2,3d24 <__sflush_r+0x26>
    3e14:	541c                	lw	a5,40(s0)
    3e16:	500c                	lw	a1,32(s0)
    3e18:	86ca                	mv	a3,s2
    3e1a:	864e                	mv	a2,s3
    3e1c:	8526                	mv	a0,s1
    3e1e:	9782                	jalr	a5
    3e20:	00a04963          	bgtz	a0,3e32 <__sflush_r+0x134>
    3e24:	00c45783          	lhu	a5,12(s0)
    3e28:	0407e793          	ori	a5,a5,64
    3e2c:	00f41623          	sh	a5,12(s0)
    3e30:	bf7d                	j	3dee <__sflush_r+0xf0>
    3e32:	99aa                	add	s3,s3,a0
    3e34:	40a90933          	sub	s2,s2,a0
    3e38:	bfe1                	j	3e10 <__sflush_r+0x112>

00003e3a <_fflush_r>:
_fflush_r():
    3e3a:	499c                	lw	a5,16(a1)
    3e3c:	c3a5                	beqz	a5,3e9c <_fflush_r+0x62>
    3e3e:	1101                	addi	sp,sp,-32
    3e40:	cc22                	sw	s0,24(sp)
    3e42:	ce06                	sw	ra,28(sp)
    3e44:	842a                	mv	s0,a0
    3e46:	c511                	beqz	a0,3e52 <_fflush_r+0x18>
    3e48:	4d1c                	lw	a5,24(a0)
    3e4a:	e781                	bnez	a5,3e52 <_fflush_r+0x18>
    3e4c:	c62e                	sw	a1,12(sp)
    3e4e:	2231                	jal	3f5a <__sinit>
    3e50:	45b2                	lw	a1,12(sp)
    3e52:	00001797          	auipc	a5,0x1
    3e56:	12278793          	addi	a5,a5,290 # 4f74 <__sf_fake_stdin>
    3e5a:	00f59c63          	bne	a1,a5,3e72 <_fflush_r+0x38>
    3e5e:	404c                	lw	a1,4(s0)
    3e60:	00c59783          	lh	a5,12(a1)
    3e64:	c79d                	beqz	a5,3e92 <_fflush_r+0x58>
    3e66:	8522                	mv	a0,s0
    3e68:	4462                	lw	s0,24(sp)
    3e6a:	40f2                	lw	ra,28(sp)
    3e6c:	6105                	addi	sp,sp,32
    3e6e:	e91ff06f          	j	3cfe <__sflush_r>
    3e72:	00001797          	auipc	a5,0x1
    3e76:	12278793          	addi	a5,a5,290 # 4f94 <__sf_fake_stdout>
    3e7a:	00f59463          	bne	a1,a5,3e82 <_fflush_r+0x48>
    3e7e:	440c                	lw	a1,8(s0)
    3e80:	b7c5                	j	3e60 <_fflush_r+0x26>
    3e82:	00001797          	auipc	a5,0x1
    3e86:	0d278793          	addi	a5,a5,210 # 4f54 <__sf_fake_stderr>
    3e8a:	fcf59be3          	bne	a1,a5,3e60 <_fflush_r+0x26>
    3e8e:	444c                	lw	a1,12(s0)
    3e90:	bfc1                	j	3e60 <_fflush_r+0x26>
    3e92:	40f2                	lw	ra,28(sp)
    3e94:	4462                	lw	s0,24(sp)
    3e96:	4501                	li	a0,0
    3e98:	6105                	addi	sp,sp,32
    3e9a:	8082                	ret
    3e9c:	4501                	li	a0,0
    3e9e:	8082                	ret

00003ea0 <std>:
std():
    3ea0:	1141                	addi	sp,sp,-16
    3ea2:	c422                	sw	s0,8(sp)
    3ea4:	c606                	sw	ra,12(sp)
    3ea6:	842a                	mv	s0,a0
    3ea8:	00b51623          	sh	a1,12(a0)
    3eac:	00c51723          	sh	a2,14(a0)
    3eb0:	00052023          	sw	zero,0(a0)
    3eb4:	00052223          	sw	zero,4(a0)
    3eb8:	00052423          	sw	zero,8(a0)
    3ebc:	06052223          	sw	zero,100(a0)
    3ec0:	00052823          	sw	zero,16(a0)
    3ec4:	00052a23          	sw	zero,20(a0)
    3ec8:	00052c23          	sw	zero,24(a0)
    3ecc:	4621                	li	a2,8
    3ece:	4581                	li	a1,0
    3ed0:	05c50513          	addi	a0,a0,92
    3ed4:	b40fc0ef          	jal	ra,214 <memset>
    3ed8:	00001797          	auipc	a5,0x1
    3edc:	b4c78793          	addi	a5,a5,-1204 # 4a24 <__sread>
    3ee0:	d05c                	sw	a5,36(s0)
    3ee2:	00001797          	auipc	a5,0x1
    3ee6:	b7278793          	addi	a5,a5,-1166 # 4a54 <__swrite>
    3eea:	d41c                	sw	a5,40(s0)
    3eec:	00001797          	auipc	a5,0x1
    3ef0:	bb678793          	addi	a5,a5,-1098 # 4aa2 <__sseek>
    3ef4:	d45c                	sw	a5,44(s0)
    3ef6:	00001797          	auipc	a5,0x1
    3efa:	be278793          	addi	a5,a5,-1054 # 4ad8 <__sclose>
    3efe:	d000                	sw	s0,32(s0)
    3f00:	d81c                	sw	a5,48(s0)
    3f02:	40b2                	lw	ra,12(sp)
    3f04:	4422                	lw	s0,8(sp)
    3f06:	0141                	addi	sp,sp,16
    3f08:	8082                	ret

00003f0a <_cleanup_r>:
_cleanup_r():
    3f0a:	00000597          	auipc	a1,0x0
    3f0e:	f3058593          	addi	a1,a1,-208 # 3e3a <_fflush_r>
    3f12:	a2b1                	j	405e <_fwalk_reent>

00003f14 <__sfmoreglue>:
__sfmoreglue():
    3f14:	1141                	addi	sp,sp,-16
    3f16:	c226                	sw	s1,4(sp)
    3f18:	06800613          	li	a2,104
    3f1c:	fff58493          	addi	s1,a1,-1
    3f20:	02c484b3          	mul	s1,s1,a2
    3f24:	c04a                	sw	s2,0(sp)
    3f26:	892e                	mv	s2,a1
    3f28:	c422                	sw	s0,8(sp)
    3f2a:	c606                	sw	ra,12(sp)
    3f2c:	07448593          	addi	a1,s1,116
    3f30:	2e2d                	jal	426a <_malloc_r>
    3f32:	842a                	mv	s0,a0
    3f34:	cd01                	beqz	a0,3f4c <__sfmoreglue+0x38>
    3f36:	00052023          	sw	zero,0(a0)
    3f3a:	01252223          	sw	s2,4(a0)
    3f3e:	0531                	addi	a0,a0,12
    3f40:	c408                	sw	a0,8(s0)
    3f42:	06848613          	addi	a2,s1,104
    3f46:	4581                	li	a1,0
    3f48:	accfc0ef          	jal	ra,214 <memset>
    3f4c:	8522                	mv	a0,s0
    3f4e:	40b2                	lw	ra,12(sp)
    3f50:	4422                	lw	s0,8(sp)
    3f52:	4492                	lw	s1,4(sp)
    3f54:	4902                	lw	s2,0(sp)
    3f56:	0141                	addi	sp,sp,16
    3f58:	8082                	ret

00003f5a <__sinit>:
__sinit():
    3f5a:	4d1c                	lw	a5,24(a0)
    3f5c:	e3ad                	bnez	a5,3fbe <__sinit+0x64>
    3f5e:	1141                	addi	sp,sp,-16
    3f60:	c606                	sw	ra,12(sp)
    3f62:	c422                	sw	s0,8(sp)
    3f64:	00000797          	auipc	a5,0x0
    3f68:	fa678793          	addi	a5,a5,-90 # 3f0a <_cleanup_r>
    3f6c:	d51c                	sw	a5,40(a0)
    3f6e:	82418793          	addi	a5,gp,-2012 # 2000011c <_global_impure_ptr>
    3f72:	439c                	lw	a5,0(a5)
    3f74:	04052423          	sw	zero,72(a0)
    3f78:	04052623          	sw	zero,76(a0)
    3f7c:	04052823          	sw	zero,80(a0)
    3f80:	00f51463          	bne	a0,a5,3f88 <__sinit+0x2e>
    3f84:	4785                	li	a5,1
    3f86:	cd1c                	sw	a5,24(a0)
    3f88:	842a                	mv	s0,a0
    3f8a:	281d                	jal	3fc0 <__sfp>
    3f8c:	c048                	sw	a0,4(s0)
    3f8e:	8522                	mv	a0,s0
    3f90:	2805                	jal	3fc0 <__sfp>
    3f92:	c408                	sw	a0,8(s0)
    3f94:	8522                	mv	a0,s0
    3f96:	202d                	jal	3fc0 <__sfp>
    3f98:	c448                	sw	a0,12(s0)
    3f9a:	4048                	lw	a0,4(s0)
    3f9c:	4601                	li	a2,0
    3f9e:	4591                	li	a1,4
    3fa0:	3701                	jal	3ea0 <std>
    3fa2:	4408                	lw	a0,8(s0)
    3fa4:	4605                	li	a2,1
    3fa6:	45a5                	li	a1,9
    3fa8:	3de5                	jal	3ea0 <std>
    3faa:	4448                	lw	a0,12(s0)
    3fac:	4609                	li	a2,2
    3fae:	45c9                	li	a1,18
    3fb0:	3dc5                	jal	3ea0 <std>
    3fb2:	4785                	li	a5,1
    3fb4:	cc1c                	sw	a5,24(s0)
    3fb6:	40b2                	lw	ra,12(sp)
    3fb8:	4422                	lw	s0,8(sp)
    3fba:	0141                	addi	sp,sp,16
    3fbc:	8082                	ret
    3fbe:	8082                	ret

00003fc0 <__sfp>:
__sfp():
    3fc0:	1141                	addi	sp,sp,-16
    3fc2:	82418793          	addi	a5,gp,-2012 # 2000011c <_global_impure_ptr>
    3fc6:	c226                	sw	s1,4(sp)
    3fc8:	4384                	lw	s1,0(a5)
    3fca:	c04a                	sw	s2,0(sp)
    3fcc:	c606                	sw	ra,12(sp)
    3fce:	4c9c                	lw	a5,24(s1)
    3fd0:	c422                	sw	s0,8(sp)
    3fd2:	892a                	mv	s2,a0
    3fd4:	e399                	bnez	a5,3fda <__sfp+0x1a>
    3fd6:	8526                	mv	a0,s1
    3fd8:	3749                	jal	3f5a <__sinit>
    3fda:	04848493          	addi	s1,s1,72
    3fde:	4480                	lw	s0,8(s1)
    3fe0:	40dc                	lw	a5,4(s1)
    3fe2:	17fd                	addi	a5,a5,-1
    3fe4:	0007d663          	bgez	a5,3ff0 <__sfp+0x30>
    3fe8:	409c                	lw	a5,0(s1)
    3fea:	cfb9                	beqz	a5,4048 <__sfp+0x88>
    3fec:	4084                	lw	s1,0(s1)
    3fee:	bfc5                	j	3fde <__sfp+0x1e>
    3ff0:	00c41703          	lh	a4,12(s0)
    3ff4:	e739                	bnez	a4,4042 <__sfp+0x82>
    3ff6:	77c1                	lui	a5,0xffff0
    3ff8:	0785                	addi	a5,a5,1
    3ffa:	06042223          	sw	zero,100(s0)
    3ffe:	00042023          	sw	zero,0(s0)
    4002:	00042223          	sw	zero,4(s0)
    4006:	00042423          	sw	zero,8(s0)
    400a:	c45c                	sw	a5,12(s0)
    400c:	00042823          	sw	zero,16(s0)
    4010:	00042a23          	sw	zero,20(s0)
    4014:	00042c23          	sw	zero,24(s0)
    4018:	4621                	li	a2,8
    401a:	4581                	li	a1,0
    401c:	05c40513          	addi	a0,s0,92
    4020:	9f4fc0ef          	jal	ra,214 <memset>
    4024:	02042a23          	sw	zero,52(s0)
    4028:	02042c23          	sw	zero,56(s0)
    402c:	04042423          	sw	zero,72(s0)
    4030:	04042623          	sw	zero,76(s0)
    4034:	8522                	mv	a0,s0
    4036:	40b2                	lw	ra,12(sp)
    4038:	4422                	lw	s0,8(sp)
    403a:	4492                	lw	s1,4(sp)
    403c:	4902                	lw	s2,0(sp)
    403e:	0141                	addi	sp,sp,16
    4040:	8082                	ret
    4042:	06840413          	addi	s0,s0,104
    4046:	bf71                	j	3fe2 <__sfp+0x22>
    4048:	4591                	li	a1,4
    404a:	854a                	mv	a0,s2
    404c:	ec9ff0ef          	jal	ra,3f14 <__sfmoreglue>
    4050:	c088                	sw	a0,0(s1)
    4052:	fd49                	bnez	a0,3fec <__sfp+0x2c>
    4054:	47b1                	li	a5,12
    4056:	00f92023          	sw	a5,0(s2)
    405a:	4401                	li	s0,0
    405c:	bfe1                	j	4034 <__sfp+0x74>

0000405e <_fwalk_reent>:
_fwalk_reent():
    405e:	7179                	addi	sp,sp,-48
    4060:	d422                	sw	s0,40(sp)
    4062:	d04a                	sw	s2,32(sp)
    4064:	cc52                	sw	s4,24(sp)
    4066:	ca56                	sw	s5,20(sp)
    4068:	c85a                	sw	s6,16(sp)
    406a:	c65e                	sw	s7,12(sp)
    406c:	d606                	sw	ra,44(sp)
    406e:	d226                	sw	s1,36(sp)
    4070:	ce4e                	sw	s3,28(sp)
    4072:	8a2a                	mv	s4,a0
    4074:	8aae                	mv	s5,a1
    4076:	04850413          	addi	s0,a0,72
    407a:	4901                	li	s2,0
    407c:	4b05                	li	s6,1
    407e:	5bfd                	li	s7,-1
    4080:	ec09                	bnez	s0,409a <_fwalk_reent+0x3c>
    4082:	50b2                	lw	ra,44(sp)
    4084:	5422                	lw	s0,40(sp)
    4086:	854a                	mv	a0,s2
    4088:	5492                	lw	s1,36(sp)
    408a:	5902                	lw	s2,32(sp)
    408c:	49f2                	lw	s3,28(sp)
    408e:	4a62                	lw	s4,24(sp)
    4090:	4ad2                	lw	s5,20(sp)
    4092:	4b42                	lw	s6,16(sp)
    4094:	4bb2                	lw	s7,12(sp)
    4096:	6145                	addi	sp,sp,48
    4098:	8082                	ret
    409a:	4404                	lw	s1,8(s0)
    409c:	00442983          	lw	s3,4(s0)
    40a0:	19fd                	addi	s3,s3,-1
    40a2:	0009d463          	bgez	s3,40aa <_fwalk_reent+0x4c>
    40a6:	4000                	lw	s0,0(s0)
    40a8:	bfe1                	j	4080 <_fwalk_reent+0x22>
    40aa:	00c4d783          	lhu	a5,12(s1)
    40ae:	00fb7b63          	bgeu	s6,a5,40c4 <_fwalk_reent+0x66>
    40b2:	00e49783          	lh	a5,14(s1)
    40b6:	01778763          	beq	a5,s7,40c4 <_fwalk_reent+0x66>
    40ba:	85a6                	mv	a1,s1
    40bc:	8552                	mv	a0,s4
    40be:	9a82                	jalr	s5
    40c0:	00a96933          	or	s2,s2,a0
    40c4:	06848493          	addi	s1,s1,104
    40c8:	bfe1                	j	40a0 <_fwalk_reent+0x42>

000040ca <__swhatbuf_r>:
__swhatbuf_r():
    40ca:	7119                	addi	sp,sp,-128
    40cc:	daa6                	sw	s1,116(sp)
    40ce:	84ae                	mv	s1,a1
    40d0:	00e59583          	lh	a1,14(a1)
    40d4:	dca2                	sw	s0,120(sp)
    40d6:	de86                	sw	ra,124(sp)
    40d8:	8432                	mv	s0,a2
    40da:	0005dc63          	bgez	a1,40f2 <__swhatbuf_r+0x28>
    40de:	00c4d783          	lhu	a5,12(s1)
    40e2:	0006a023          	sw	zero,0(a3)
    40e6:	0807f793          	andi	a5,a5,128
    40ea:	e785                	bnez	a5,4112 <__swhatbuf_r+0x48>
    40ec:	40000793          	li	a5,1024
    40f0:	a01d                	j	4116 <__swhatbuf_r+0x4c>
    40f2:	0830                	addi	a2,sp,24
    40f4:	c636                	sw	a3,12(sp)
    40f6:	23f000ef          	jal	ra,4b34 <_fstat_r>
    40fa:	46b2                	lw	a3,12(sp)
    40fc:	fe0541e3          	bltz	a0,40de <__swhatbuf_r+0x14>
    4100:	4772                	lw	a4,28(sp)
    4102:	67bd                	lui	a5,0xf
    4104:	8ff9                	and	a5,a5,a4
    4106:	7779                	lui	a4,0xffffe
    4108:	97ba                	add	a5,a5,a4
    410a:	0017b793          	seqz	a5,a5
    410e:	c29c                	sw	a5,0(a3)
    4110:	bff1                	j	40ec <__swhatbuf_r+0x22>
    4112:	04000793          	li	a5,64
    4116:	c01c                	sw	a5,0(s0)
    4118:	50f6                	lw	ra,124(sp)
    411a:	5466                	lw	s0,120(sp)
    411c:	54d6                	lw	s1,116(sp)
    411e:	4501                	li	a0,0
    4120:	6109                	addi	sp,sp,128
    4122:	8082                	ret

00004124 <__smakebuf_r>:
__smakebuf_r():
    4124:	00c5d783          	lhu	a5,12(a1)
    4128:	1101                	addi	sp,sp,-32
    412a:	cc22                	sw	s0,24(sp)
    412c:	ce06                	sw	ra,28(sp)
    412e:	ca26                	sw	s1,20(sp)
    4130:	c84a                	sw	s2,16(sp)
    4132:	8b89                	andi	a5,a5,2
    4134:	842e                	mv	s0,a1
    4136:	cf89                	beqz	a5,4150 <__smakebuf_r+0x2c>
    4138:	04740793          	addi	a5,s0,71
    413c:	c01c                	sw	a5,0(s0)
    413e:	c81c                	sw	a5,16(s0)
    4140:	4785                	li	a5,1
    4142:	c85c                	sw	a5,20(s0)
    4144:	40f2                	lw	ra,28(sp)
    4146:	4462                	lw	s0,24(sp)
    4148:	44d2                	lw	s1,20(sp)
    414a:	4942                	lw	s2,16(sp)
    414c:	6105                	addi	sp,sp,32
    414e:	8082                	ret
    4150:	0074                	addi	a3,sp,12
    4152:	0030                	addi	a2,sp,8
    4154:	84aa                	mv	s1,a0
    4156:	3f95                	jal	40ca <__swhatbuf_r>
    4158:	45a2                	lw	a1,8(sp)
    415a:	892a                	mv	s2,a0
    415c:	8526                	mv	a0,s1
    415e:	2231                	jal	426a <_malloc_r>
    4160:	ed01                	bnez	a0,4178 <__smakebuf_r+0x54>
    4162:	00c41783          	lh	a5,12(s0)
    4166:	2007f713          	andi	a4,a5,512
    416a:	ff69                	bnez	a4,4144 <__smakebuf_r+0x20>
    416c:	9bf1                	andi	a5,a5,-4
    416e:	0027e793          	ori	a5,a5,2
    4172:	00f41623          	sh	a5,12(s0)
    4176:	b7c9                	j	4138 <__smakebuf_r+0x14>
    4178:	00000797          	auipc	a5,0x0
    417c:	d9278793          	addi	a5,a5,-622 # 3f0a <_cleanup_r>
    4180:	d49c                	sw	a5,40(s1)
    4182:	00c45783          	lhu	a5,12(s0)
    4186:	c008                	sw	a0,0(s0)
    4188:	c808                	sw	a0,16(s0)
    418a:	0807e793          	ori	a5,a5,128
    418e:	00f41623          	sh	a5,12(s0)
    4192:	47a2                	lw	a5,8(sp)
    4194:	c85c                	sw	a5,20(s0)
    4196:	47b2                	lw	a5,12(sp)
    4198:	cf91                	beqz	a5,41b4 <__smakebuf_r+0x90>
    419a:	00e41583          	lh	a1,14(s0)
    419e:	8526                	mv	a0,s1
    41a0:	1bf000ef          	jal	ra,4b5e <_isatty_r>
    41a4:	c901                	beqz	a0,41b4 <__smakebuf_r+0x90>
    41a6:	00c45783          	lhu	a5,12(s0)
    41aa:	9bf1                	andi	a5,a5,-4
    41ac:	0017e793          	ori	a5,a5,1
    41b0:	00f41623          	sh	a5,12(s0)
    41b4:	00c45783          	lhu	a5,12(s0)
    41b8:	00f96933          	or	s2,s2,a5
    41bc:	01241623          	sh	s2,12(s0)
    41c0:	b751                	j	4144 <__smakebuf_r+0x20>

000041c2 <_free_r>:
_free_r():
    41c2:	c1dd                	beqz	a1,4268 <_free_r+0xa6>
    41c4:	ffc5a783          	lw	a5,-4(a1)
    41c8:	1141                	addi	sp,sp,-16
    41ca:	c422                	sw	s0,8(sp)
    41cc:	c606                	sw	ra,12(sp)
    41ce:	c226                	sw	s1,4(sp)
    41d0:	ffc58413          	addi	s0,a1,-4
    41d4:	0007d363          	bgez	a5,41da <_free_r+0x18>
    41d8:	943e                	add	s0,s0,a5
    41da:	84aa                	mv	s1,a0
    41dc:	1f1000ef          	jal	ra,4bcc <__malloc_lock>
    41e0:	87c18793          	addi	a5,gp,-1924 # 20000174 <__malloc_free_list>
    41e4:	439c                	lw	a5,0(a5)
    41e6:	ef81                	bnez	a5,41fe <_free_r+0x3c>
    41e8:	00042223          	sw	zero,4(s0)
    41ec:	8681ae23          	sw	s0,-1924(gp) # 20000174 <__malloc_free_list>
    41f0:	4422                	lw	s0,8(sp)
    41f2:	40b2                	lw	ra,12(sp)
    41f4:	8526                	mv	a0,s1
    41f6:	4492                	lw	s1,4(sp)
    41f8:	0141                	addi	sp,sp,16
    41fa:	1d50006f          	j	4bce <__malloc_unlock>
    41fe:	00f47e63          	bgeu	s0,a5,421a <_free_r+0x58>
    4202:	4014                	lw	a3,0(s0)
    4204:	00d40733          	add	a4,s0,a3
    4208:	00e79663          	bne	a5,a4,4214 <_free_r+0x52>
    420c:	4398                	lw	a4,0(a5)
    420e:	43dc                	lw	a5,4(a5)
    4210:	9736                	add	a4,a4,a3
    4212:	c018                	sw	a4,0(s0)
    4214:	c05c                	sw	a5,4(s0)
    4216:	bfd9                	j	41ec <_free_r+0x2a>
    4218:	87ba                	mv	a5,a4
    421a:	43d8                	lw	a4,4(a5)
    421c:	c319                	beqz	a4,4222 <_free_r+0x60>
    421e:	fee47de3          	bgeu	s0,a4,4218 <_free_r+0x56>
    4222:	4394                	lw	a3,0(a5)
    4224:	00d78633          	add	a2,a5,a3
    4228:	00861f63          	bne	a2,s0,4246 <_free_r+0x84>
    422c:	4010                	lw	a2,0(s0)
    422e:	96b2                	add	a3,a3,a2
    4230:	c394                	sw	a3,0(a5)
    4232:	00d78633          	add	a2,a5,a3
    4236:	fac71de3          	bne	a4,a2,41f0 <_free_r+0x2e>
    423a:	4310                	lw	a2,0(a4)
    423c:	4358                	lw	a4,4(a4)
    423e:	96b2                	add	a3,a3,a2
    4240:	c394                	sw	a3,0(a5)
    4242:	c3d8                	sw	a4,4(a5)
    4244:	b775                	j	41f0 <_free_r+0x2e>
    4246:	00c47563          	bgeu	s0,a2,4250 <_free_r+0x8e>
    424a:	47b1                	li	a5,12
    424c:	c09c                	sw	a5,0(s1)
    424e:	b74d                	j	41f0 <_free_r+0x2e>
    4250:	4010                	lw	a2,0(s0)
    4252:	00c406b3          	add	a3,s0,a2
    4256:	00d71663          	bne	a4,a3,4262 <_free_r+0xa0>
    425a:	4314                	lw	a3,0(a4)
    425c:	4358                	lw	a4,4(a4)
    425e:	96b2                	add	a3,a3,a2
    4260:	c014                	sw	a3,0(s0)
    4262:	c058                	sw	a4,4(s0)
    4264:	c3c0                	sw	s0,4(a5)
    4266:	b769                	j	41f0 <_free_r+0x2e>
    4268:	8082                	ret

0000426a <_malloc_r>:
_malloc_r():
    426a:	1101                	addi	sp,sp,-32
    426c:	ca26                	sw	s1,20(sp)
    426e:	00358493          	addi	s1,a1,3
    4272:	98f1                	andi	s1,s1,-4
    4274:	ce06                	sw	ra,28(sp)
    4276:	cc22                	sw	s0,24(sp)
    4278:	c84a                	sw	s2,16(sp)
    427a:	c64e                	sw	s3,12(sp)
    427c:	04a1                	addi	s1,s1,8
    427e:	47b1                	li	a5,12
    4280:	04f4f363          	bgeu	s1,a5,42c6 <_malloc_r+0x5c>
    4284:	44b1                	li	s1,12
    4286:	04b4e263          	bltu	s1,a1,42ca <_malloc_r+0x60>
    428a:	892a                	mv	s2,a0
    428c:	141000ef          	jal	ra,4bcc <__malloc_lock>
    4290:	87c18793          	addi	a5,gp,-1924 # 20000174 <__malloc_free_list>
    4294:	4398                	lw	a4,0(a5)
    4296:	843a                	mv	s0,a4
    4298:	e039                	bnez	s0,42de <_malloc_r+0x74>
    429a:	88018793          	addi	a5,gp,-1920 # 20000178 <__malloc_sbrk_start>
    429e:	439c                	lw	a5,0(a5)
    42a0:	e791                	bnez	a5,42ac <_malloc_r+0x42>
    42a2:	4581                	li	a1,0
    42a4:	854a                	mv	a0,s2
    42a6:	2f99                	jal	49fc <_sbrk_r>
    42a8:	88a1a023          	sw	a0,-1920(gp) # 20000178 <__malloc_sbrk_start>
    42ac:	85a6                	mv	a1,s1
    42ae:	854a                	mv	a0,s2
    42b0:	27b1                	jal	49fc <_sbrk_r>
    42b2:	59fd                	li	s3,-1
    42b4:	07351963          	bne	a0,s3,4326 <_malloc_r+0xbc>
    42b8:	47b1                	li	a5,12
    42ba:	00f92023          	sw	a5,0(s2)
    42be:	854a                	mv	a0,s2
    42c0:	10f000ef          	jal	ra,4bce <__malloc_unlock>
    42c4:	a029                	j	42ce <_malloc_r+0x64>
    42c6:	fc04d0e3          	bgez	s1,4286 <_malloc_r+0x1c>
    42ca:	47b1                	li	a5,12
    42cc:	c11c                	sw	a5,0(a0)
    42ce:	4501                	li	a0,0
    42d0:	40f2                	lw	ra,28(sp)
    42d2:	4462                	lw	s0,24(sp)
    42d4:	44d2                	lw	s1,20(sp)
    42d6:	4942                	lw	s2,16(sp)
    42d8:	49b2                	lw	s3,12(sp)
    42da:	6105                	addi	sp,sp,32
    42dc:	8082                	ret
    42de:	401c                	lw	a5,0(s0)
    42e0:	8f85                	sub	a5,a5,s1
    42e2:	0207cf63          	bltz	a5,4320 <_malloc_r+0xb6>
    42e6:	46ad                	li	a3,11
    42e8:	00f6f663          	bgeu	a3,a5,42f4 <_malloc_r+0x8a>
    42ec:	c01c                	sw	a5,0(s0)
    42ee:	943e                	add	s0,s0,a5
    42f0:	c004                	sw	s1,0(s0)
    42f2:	a031                	j	42fe <_malloc_r+0x94>
    42f4:	405c                	lw	a5,4(s0)
    42f6:	02871363          	bne	a4,s0,431c <_malloc_r+0xb2>
    42fa:	86f1ae23          	sw	a5,-1924(gp) # 20000174 <__malloc_free_list>
    42fe:	854a                	mv	a0,s2
    4300:	0cf000ef          	jal	ra,4bce <__malloc_unlock>
    4304:	00b40513          	addi	a0,s0,11
    4308:	00440793          	addi	a5,s0,4
    430c:	9961                	andi	a0,a0,-8
    430e:	40f50733          	sub	a4,a0,a5
    4312:	df5d                	beqz	a4,42d0 <_malloc_r+0x66>
    4314:	943a                	add	s0,s0,a4
    4316:	8f89                	sub	a5,a5,a0
    4318:	c01c                	sw	a5,0(s0)
    431a:	bf5d                	j	42d0 <_malloc_r+0x66>
    431c:	c35c                	sw	a5,4(a4)
    431e:	b7c5                	j	42fe <_malloc_r+0x94>
    4320:	8722                	mv	a4,s0
    4322:	4040                	lw	s0,4(s0)
    4324:	bf95                	j	4298 <_malloc_r+0x2e>
    4326:	00350413          	addi	s0,a0,3
    432a:	9871                	andi	s0,s0,-4
    432c:	fc8502e3          	beq	a0,s0,42f0 <_malloc_r+0x86>
    4330:	40a405b3          	sub	a1,s0,a0
    4334:	854a                	mv	a0,s2
    4336:	25d9                	jal	49fc <_sbrk_r>
    4338:	fb351ce3          	bne	a0,s3,42f0 <_malloc_r+0x86>
    433c:	bfb5                	j	42b8 <_malloc_r+0x4e>

0000433e <__sfputc_r>:
__sfputc_r():
    433e:	461c                	lw	a5,8(a2)
    4340:	17fd                	addi	a5,a5,-1
    4342:	c61c                	sw	a5,8(a2)
    4344:	0007da63          	bgez	a5,4358 <__sfputc_r+0x1a>
    4348:	4e18                	lw	a4,24(a2)
    434a:	00e7c563          	blt	a5,a4,4354 <__sfputc_r+0x16>
    434e:	47a9                	li	a5,10
    4350:	00f59463          	bne	a1,a5,4358 <__sfputc_r+0x1a>
    4354:	fdeff06f          	j	3b32 <__swbuf_r>
    4358:	421c                	lw	a5,0(a2)
    435a:	852e                	mv	a0,a1
    435c:	00178713          	addi	a4,a5,1
    4360:	c218                	sw	a4,0(a2)
    4362:	00b78023          	sb	a1,0(a5)
    4366:	8082                	ret

00004368 <__sfputs_r>:
__sfputs_r():
    4368:	1101                	addi	sp,sp,-32
    436a:	cc22                	sw	s0,24(sp)
    436c:	ca26                	sw	s1,20(sp)
    436e:	c84a                	sw	s2,16(sp)
    4370:	c64e                	sw	s3,12(sp)
    4372:	c452                	sw	s4,8(sp)
    4374:	ce06                	sw	ra,28(sp)
    4376:	892a                	mv	s2,a0
    4378:	89ae                	mv	s3,a1
    437a:	8432                	mv	s0,a2
    437c:	00d604b3          	add	s1,a2,a3
    4380:	5a7d                	li	s4,-1
    4382:	00941463          	bne	s0,s1,438a <__sfputs_r+0x22>
    4386:	4501                	li	a0,0
    4388:	a809                	j	439a <__sfputs_r+0x32>
    438a:	00044583          	lbu	a1,0(s0)
    438e:	864e                	mv	a2,s3
    4390:	854a                	mv	a0,s2
    4392:	3775                	jal	433e <__sfputc_r>
    4394:	0405                	addi	s0,s0,1
    4396:	ff4516e3          	bne	a0,s4,4382 <__sfputs_r+0x1a>
    439a:	40f2                	lw	ra,28(sp)
    439c:	4462                	lw	s0,24(sp)
    439e:	44d2                	lw	s1,20(sp)
    43a0:	4942                	lw	s2,16(sp)
    43a2:	49b2                	lw	s3,12(sp)
    43a4:	4a22                	lw	s4,8(sp)
    43a6:	6105                	addi	sp,sp,32
    43a8:	8082                	ret

000043aa <_vfiprintf_r>:
_vfiprintf_r():
    43aa:	7135                	addi	sp,sp,-160
    43ac:	cd22                	sw	s0,152(sp)
    43ae:	cb26                	sw	s1,148(sp)
    43b0:	c94a                	sw	s2,144(sp)
    43b2:	c74e                	sw	s3,140(sp)
    43b4:	cf06                	sw	ra,156(sp)
    43b6:	c552                	sw	s4,136(sp)
    43b8:	c356                	sw	s5,132(sp)
    43ba:	c15a                	sw	s6,128(sp)
    43bc:	dede                	sw	s7,124(sp)
    43be:	dce2                	sw	s8,120(sp)
    43c0:	dae6                	sw	s9,116(sp)
    43c2:	89aa                	mv	s3,a0
    43c4:	84ae                	mv	s1,a1
    43c6:	8932                	mv	s2,a2
    43c8:	8436                	mv	s0,a3
    43ca:	c509                	beqz	a0,43d4 <_vfiprintf_r+0x2a>
    43cc:	4d1c                	lw	a5,24(a0)
    43ce:	e399                	bnez	a5,43d4 <_vfiprintf_r+0x2a>
    43d0:	b8bff0ef          	jal	ra,3f5a <__sinit>
    43d4:	00001797          	auipc	a5,0x1
    43d8:	ba078793          	addi	a5,a5,-1120 # 4f74 <__sf_fake_stdin>
    43dc:	0cf49c63          	bne	s1,a5,44b4 <_vfiprintf_r+0x10a>
    43e0:	0049a483          	lw	s1,4(s3)
    43e4:	00c4d783          	lhu	a5,12(s1)
    43e8:	8ba1                	andi	a5,a5,8
    43ea:	c7fd                	beqz	a5,44d8 <_vfiprintf_r+0x12e>
    43ec:	489c                	lw	a5,16(s1)
    43ee:	c7ed                	beqz	a5,44d8 <_vfiprintf_r+0x12e>
    43f0:	02000793          	li	a5,32
    43f4:	02f104a3          	sb	a5,41(sp)
    43f8:	03000793          	li	a5,48
    43fc:	d202                	sw	zero,36(sp)
    43fe:	02f10523          	sb	a5,42(sp)
    4402:	c622                	sw	s0,12(sp)
    4404:	02500b93          	li	s7,37
    4408:	00001a97          	auipc	s5,0x1
    440c:	baca8a93          	addi	s5,s5,-1108 # 4fb4 <__sf_fake_stdout+0x20>
    4410:	4c05                	li	s8,1
    4412:	4b29                	li	s6,10
    4414:	844a                	mv	s0,s2
    4416:	00044783          	lbu	a5,0(s0)
    441a:	c399                	beqz	a5,4420 <_vfiprintf_r+0x76>
    441c:	0f779163          	bne	a5,s7,44fe <_vfiprintf_r+0x154>
    4420:	41240cb3          	sub	s9,s0,s2
    4424:	000c8e63          	beqz	s9,4440 <_vfiprintf_r+0x96>
    4428:	86e6                	mv	a3,s9
    442a:	864a                	mv	a2,s2
    442c:	85a6                	mv	a1,s1
    442e:	854e                	mv	a0,s3
    4430:	f39ff0ef          	jal	ra,4368 <__sfputs_r>
    4434:	57fd                	li	a5,-1
    4436:	1ef50663          	beq	a0,a5,4622 <_vfiprintf_r+0x278>
    443a:	5692                	lw	a3,36(sp)
    443c:	96e6                	add	a3,a3,s9
    443e:	d236                	sw	a3,36(sp)
    4440:	00044783          	lbu	a5,0(s0)
    4444:	1c078f63          	beqz	a5,4622 <_vfiprintf_r+0x278>
    4448:	57fd                	li	a5,-1
    444a:	00140913          	addi	s2,s0,1
    444e:	c802                	sw	zero,16(sp)
    4450:	ce02                	sw	zero,28(sp)
    4452:	ca3e                	sw	a5,20(sp)
    4454:	cc02                	sw	zero,24(sp)
    4456:	040109a3          	sb	zero,83(sp)
    445a:	d482                	sw	zero,104(sp)
    445c:	00094583          	lbu	a1,0(s2)
    4460:	4615                	li	a2,5
    4462:	8556                	mv	a0,s5
    4464:	27b9                	jal	4bb2 <memchr>
    4466:	00190413          	addi	s0,s2,1
    446a:	47c2                	lw	a5,16(sp)
    446c:	e959                	bnez	a0,4502 <_vfiprintf_r+0x158>
    446e:	0107f713          	andi	a4,a5,16
    4472:	c709                	beqz	a4,447c <_vfiprintf_r+0xd2>
    4474:	02000713          	li	a4,32
    4478:	04e109a3          	sb	a4,83(sp)
    447c:	0087f713          	andi	a4,a5,8
    4480:	c709                	beqz	a4,448a <_vfiprintf_r+0xe0>
    4482:	02b00713          	li	a4,43
    4486:	04e109a3          	sb	a4,83(sp)
    448a:	00094683          	lbu	a3,0(s2)
    448e:	02a00713          	li	a4,42
    4492:	08e68063          	beq	a3,a4,4512 <_vfiprintf_r+0x168>
    4496:	47f2                	lw	a5,28(sp)
    4498:	844a                	mv	s0,s2
    449a:	4681                	li	a3,0
    449c:	4625                	li	a2,9
    449e:	00044703          	lbu	a4,0(s0)
    44a2:	00140593          	addi	a1,s0,1
    44a6:	fd070713          	addi	a4,a4,-48 # ffffdfd0 <_eusrstack+0xdffedfd0>
    44aa:	0ae67963          	bgeu	a2,a4,455c <_vfiprintf_r+0x1b2>
    44ae:	cab5                	beqz	a3,4522 <_vfiprintf_r+0x178>
    44b0:	ce3e                	sw	a5,28(sp)
    44b2:	a885                	j	4522 <_vfiprintf_r+0x178>
    44b4:	00001797          	auipc	a5,0x1
    44b8:	ae078793          	addi	a5,a5,-1312 # 4f94 <__sf_fake_stdout>
    44bc:	00f49563          	bne	s1,a5,44c6 <_vfiprintf_r+0x11c>
    44c0:	0089a483          	lw	s1,8(s3)
    44c4:	b705                	j	43e4 <_vfiprintf_r+0x3a>
    44c6:	00001797          	auipc	a5,0x1
    44ca:	a8e78793          	addi	a5,a5,-1394 # 4f54 <__sf_fake_stderr>
    44ce:	f0f49be3          	bne	s1,a5,43e4 <_vfiprintf_r+0x3a>
    44d2:	00c9a483          	lw	s1,12(s3)
    44d6:	b739                	j	43e4 <_vfiprintf_r+0x3a>
    44d8:	85a6                	mv	a1,s1
    44da:	854e                	mv	a0,s3
    44dc:	f16ff0ef          	jal	ra,3bf2 <__swsetup_r>
    44e0:	d901                	beqz	a0,43f0 <_vfiprintf_r+0x46>
    44e2:	557d                	li	a0,-1
    44e4:	40fa                	lw	ra,156(sp)
    44e6:	446a                	lw	s0,152(sp)
    44e8:	44da                	lw	s1,148(sp)
    44ea:	494a                	lw	s2,144(sp)
    44ec:	49ba                	lw	s3,140(sp)
    44ee:	4a2a                	lw	s4,136(sp)
    44f0:	4a9a                	lw	s5,132(sp)
    44f2:	4b0a                	lw	s6,128(sp)
    44f4:	5bf6                	lw	s7,124(sp)
    44f6:	5c66                	lw	s8,120(sp)
    44f8:	5cd6                	lw	s9,116(sp)
    44fa:	610d                	addi	sp,sp,160
    44fc:	8082                	ret
    44fe:	0405                	addi	s0,s0,1
    4500:	bf19                	j	4416 <_vfiprintf_r+0x6c>
    4502:	41550533          	sub	a0,a0,s5
    4506:	00ac1533          	sll	a0,s8,a0
    450a:	8fc9                	or	a5,a5,a0
    450c:	c83e                	sw	a5,16(sp)
    450e:	8922                	mv	s2,s0
    4510:	b7b1                	j	445c <_vfiprintf_r+0xb2>
    4512:	4732                	lw	a4,12(sp)
    4514:	00470693          	addi	a3,a4,4
    4518:	4318                	lw	a4,0(a4)
    451a:	c636                	sw	a3,12(sp)
    451c:	02074963          	bltz	a4,454e <_vfiprintf_r+0x1a4>
    4520:	ce3a                	sw	a4,28(sp)
    4522:	00044703          	lbu	a4,0(s0)
    4526:	02e00793          	li	a5,46
    452a:	04f71f63          	bne	a4,a5,4588 <_vfiprintf_r+0x1de>
    452e:	00144703          	lbu	a4,1(s0)
    4532:	02a00793          	li	a5,42
    4536:	02f71b63          	bne	a4,a5,456c <_vfiprintf_r+0x1c2>
    453a:	47b2                	lw	a5,12(sp)
    453c:	0409                	addi	s0,s0,2
    453e:	00478713          	addi	a4,a5,4
    4542:	439c                	lw	a5,0(a5)
    4544:	c63a                	sw	a4,12(sp)
    4546:	0207c163          	bltz	a5,4568 <_vfiprintf_r+0x1be>
    454a:	ca3e                	sw	a5,20(sp)
    454c:	a835                	j	4588 <_vfiprintf_r+0x1de>
    454e:	40e00733          	neg	a4,a4
    4552:	0027e793          	ori	a5,a5,2
    4556:	ce3a                	sw	a4,28(sp)
    4558:	c83e                	sw	a5,16(sp)
    455a:	b7e1                	j	4522 <_vfiprintf_r+0x178>
    455c:	036787b3          	mul	a5,a5,s6
    4560:	4685                	li	a3,1
    4562:	842e                	mv	s0,a1
    4564:	97ba                	add	a5,a5,a4
    4566:	bf25                	j	449e <_vfiprintf_r+0xf4>
    4568:	57fd                	li	a5,-1
    456a:	b7c5                	j	454a <_vfiprintf_r+0x1a0>
    456c:	0405                	addi	s0,s0,1
    456e:	ca02                	sw	zero,20(sp)
    4570:	4681                	li	a3,0
    4572:	4781                	li	a5,0
    4574:	4625                	li	a2,9
    4576:	00044703          	lbu	a4,0(s0)
    457a:	00140593          	addi	a1,s0,1
    457e:	fd070713          	addi	a4,a4,-48
    4582:	06e67663          	bgeu	a2,a4,45ee <_vfiprintf_r+0x244>
    4586:	f2f1                	bnez	a3,454a <_vfiprintf_r+0x1a0>
    4588:	00044583          	lbu	a1,0(s0)
    458c:	460d                	li	a2,3
    458e:	00001517          	auipc	a0,0x1
    4592:	a2e50513          	addi	a0,a0,-1490 # 4fbc <__sf_fake_stdout+0x28>
    4596:	2d31                	jal	4bb2 <memchr>
    4598:	cd11                	beqz	a0,45b4 <_vfiprintf_r+0x20a>
    459a:	00001797          	auipc	a5,0x1
    459e:	a2278793          	addi	a5,a5,-1502 # 4fbc <__sf_fake_stdout+0x28>
    45a2:	8d1d                	sub	a0,a0,a5
    45a4:	04000793          	li	a5,64
    45a8:	00a797b3          	sll	a5,a5,a0
    45ac:	4542                	lw	a0,16(sp)
    45ae:	0405                	addi	s0,s0,1
    45b0:	8d5d                	or	a0,a0,a5
    45b2:	c82a                	sw	a0,16(sp)
    45b4:	00044583          	lbu	a1,0(s0)
    45b8:	4619                	li	a2,6
    45ba:	00001517          	auipc	a0,0x1
    45be:	a0650513          	addi	a0,a0,-1530 # 4fc0 <__sf_fake_stdout+0x2c>
    45c2:	00140913          	addi	s2,s0,1
    45c6:	02b10423          	sb	a1,40(sp)
    45ca:	23e5                	jal	4bb2 <memchr>
    45cc:	c13d                	beqz	a0,4632 <_vfiprintf_r+0x288>
    45ce:	ffffc797          	auipc	a5,0xffffc
    45d2:	a3278793          	addi	a5,a5,-1486 # 0 <_sinit>
    45d6:	e795                	bnez	a5,4602 <_vfiprintf_r+0x258>
    45d8:	4742                	lw	a4,16(sp)
    45da:	47b2                	lw	a5,12(sp)
    45dc:	10077713          	andi	a4,a4,256
    45e0:	cf09                	beqz	a4,45fa <_vfiprintf_r+0x250>
    45e2:	0791                	addi	a5,a5,4
    45e4:	c63e                	sw	a5,12(sp)
    45e6:	5792                	lw	a5,36(sp)
    45e8:	97d2                	add	a5,a5,s4
    45ea:	d23e                	sw	a5,36(sp)
    45ec:	b525                	j	4414 <_vfiprintf_r+0x6a>
    45ee:	036787b3          	mul	a5,a5,s6
    45f2:	4685                	li	a3,1
    45f4:	842e                	mv	s0,a1
    45f6:	97ba                	add	a5,a5,a4
    45f8:	bfbd                	j	4576 <_vfiprintf_r+0x1cc>
    45fa:	079d                	addi	a5,a5,7
    45fc:	9be1                	andi	a5,a5,-8
    45fe:	07a1                	addi	a5,a5,8
    4600:	b7d5                	j	45e4 <_vfiprintf_r+0x23a>
    4602:	0078                	addi	a4,sp,12
    4604:	00000697          	auipc	a3,0x0
    4608:	d6468693          	addi	a3,a3,-668 # 4368 <__sfputs_r>
    460c:	8626                	mv	a2,s1
    460e:	080c                	addi	a1,sp,16
    4610:	854e                	mv	a0,s3
    4612:	00000097          	auipc	ra,0x0
    4616:	000000e7          	jalr	zero # 0 <_sinit>
    461a:	57fd                	li	a5,-1
    461c:	8a2a                	mv	s4,a0
    461e:	fcf514e3          	bne	a0,a5,45e6 <_vfiprintf_r+0x23c>
    4622:	00c4d783          	lhu	a5,12(s1)
    4626:	0407f793          	andi	a5,a5,64
    462a:	ea079ce3          	bnez	a5,44e2 <_vfiprintf_r+0x138>
    462e:	5512                	lw	a0,36(sp)
    4630:	bd55                	j	44e4 <_vfiprintf_r+0x13a>
    4632:	0078                	addi	a4,sp,12
    4634:	00000697          	auipc	a3,0x0
    4638:	d3468693          	addi	a3,a3,-716 # 4368 <__sfputs_r>
    463c:	8626                	mv	a2,s1
    463e:	080c                	addi	a1,sp,16
    4640:	854e                	mv	a0,s3
    4642:	2a01                	jal	4752 <_printf_i>
    4644:	bfd9                	j	461a <_vfiprintf_r+0x270>

00004646 <_printf_common>:
_printf_common():
    4646:	7179                	addi	sp,sp,-48
    4648:	ca56                	sw	s5,20(sp)
    464a:	499c                	lw	a5,16(a1)
    464c:	8aba                	mv	s5,a4
    464e:	4598                	lw	a4,8(a1)
    4650:	d422                	sw	s0,40(sp)
    4652:	d226                	sw	s1,36(sp)
    4654:	ce4e                	sw	s3,28(sp)
    4656:	cc52                	sw	s4,24(sp)
    4658:	d606                	sw	ra,44(sp)
    465a:	d04a                	sw	s2,32(sp)
    465c:	c85a                	sw	s6,16(sp)
    465e:	c65e                	sw	s7,12(sp)
    4660:	89aa                	mv	s3,a0
    4662:	842e                	mv	s0,a1
    4664:	84b2                	mv	s1,a2
    4666:	8a36                	mv	s4,a3
    4668:	00e7d363          	bge	a5,a4,466e <_printf_common+0x28>
    466c:	87ba                	mv	a5,a4
    466e:	c09c                	sw	a5,0(s1)
    4670:	04344703          	lbu	a4,67(s0)
    4674:	c319                	beqz	a4,467a <_printf_common+0x34>
    4676:	0785                	addi	a5,a5,1
    4678:	c09c                	sw	a5,0(s1)
    467a:	401c                	lw	a5,0(s0)
    467c:	0207f793          	andi	a5,a5,32
    4680:	c781                	beqz	a5,4688 <_printf_common+0x42>
    4682:	409c                	lw	a5,0(s1)
    4684:	0789                	addi	a5,a5,2
    4686:	c09c                	sw	a5,0(s1)
    4688:	00042903          	lw	s2,0(s0)
    468c:	00697913          	andi	s2,s2,6
    4690:	00091a63          	bnez	s2,46a4 <_printf_common+0x5e>
    4694:	01940b13          	addi	s6,s0,25
    4698:	5bfd                	li	s7,-1
    469a:	445c                	lw	a5,12(s0)
    469c:	4098                	lw	a4,0(s1)
    469e:	8f99                	sub	a5,a5,a4
    46a0:	04f94c63          	blt	s2,a5,46f8 <_printf_common+0xb2>
    46a4:	401c                	lw	a5,0(s0)
    46a6:	04344683          	lbu	a3,67(s0)
    46aa:	0207f793          	andi	a5,a5,32
    46ae:	00d036b3          	snez	a3,a3
    46b2:	eba5                	bnez	a5,4722 <_printf_common+0xdc>
    46b4:	04340613          	addi	a2,s0,67
    46b8:	85d2                	mv	a1,s4
    46ba:	854e                	mv	a0,s3
    46bc:	9a82                	jalr	s5
    46be:	57fd                	li	a5,-1
    46c0:	04f50363          	beq	a0,a5,4706 <_printf_common+0xc0>
    46c4:	401c                	lw	a5,0(s0)
    46c6:	4611                	li	a2,4
    46c8:	4098                	lw	a4,0(s1)
    46ca:	8b99                	andi	a5,a5,6
    46cc:	4454                	lw	a3,12(s0)
    46ce:	4481                	li	s1,0
    46d0:	00c79763          	bne	a5,a2,46de <_printf_common+0x98>
    46d4:	40e684b3          	sub	s1,a3,a4
    46d8:	0004d363          	bgez	s1,46de <_printf_common+0x98>
    46dc:	4481                	li	s1,0
    46de:	441c                	lw	a5,8(s0)
    46e0:	4818                	lw	a4,16(s0)
    46e2:	00f75463          	bge	a4,a5,46ea <_printf_common+0xa4>
    46e6:	8f99                	sub	a5,a5,a4
    46e8:	94be                	add	s1,s1,a5
    46ea:	4901                	li	s2,0
    46ec:	0469                	addi	s0,s0,26
    46ee:	5b7d                	li	s6,-1
    46f0:	05249863          	bne	s1,s2,4740 <_printf_common+0xfa>
    46f4:	4501                	li	a0,0
    46f6:	a809                	j	4708 <_printf_common+0xc2>
    46f8:	4685                	li	a3,1
    46fa:	865a                	mv	a2,s6
    46fc:	85d2                	mv	a1,s4
    46fe:	854e                	mv	a0,s3
    4700:	9a82                	jalr	s5
    4702:	01751e63          	bne	a0,s7,471e <_printf_common+0xd8>
    4706:	557d                	li	a0,-1
    4708:	50b2                	lw	ra,44(sp)
    470a:	5422                	lw	s0,40(sp)
    470c:	5492                	lw	s1,36(sp)
    470e:	5902                	lw	s2,32(sp)
    4710:	49f2                	lw	s3,28(sp)
    4712:	4a62                	lw	s4,24(sp)
    4714:	4ad2                	lw	s5,20(sp)
    4716:	4b42                	lw	s6,16(sp)
    4718:	4bb2                	lw	s7,12(sp)
    471a:	6145                	addi	sp,sp,48
    471c:	8082                	ret
    471e:	0905                	addi	s2,s2,1
    4720:	bfad                	j	469a <_printf_common+0x54>
    4722:	00d40733          	add	a4,s0,a3
    4726:	03000613          	li	a2,48
    472a:	04c701a3          	sb	a2,67(a4)
    472e:	04544703          	lbu	a4,69(s0)
    4732:	00168793          	addi	a5,a3,1
    4736:	97a2                	add	a5,a5,s0
    4738:	0689                	addi	a3,a3,2
    473a:	04e781a3          	sb	a4,67(a5)
    473e:	bf9d                	j	46b4 <_printf_common+0x6e>
    4740:	4685                	li	a3,1
    4742:	8622                	mv	a2,s0
    4744:	85d2                	mv	a1,s4
    4746:	854e                	mv	a0,s3
    4748:	9a82                	jalr	s5
    474a:	fb650ee3          	beq	a0,s6,4706 <_printf_common+0xc0>
    474e:	0905                	addi	s2,s2,1
    4750:	b745                	j	46f0 <_printf_common+0xaa>

00004752 <_printf_i>:
_printf_i():
    4752:	7179                	addi	sp,sp,-48
    4754:	d422                	sw	s0,40(sp)
    4756:	d226                	sw	s1,36(sp)
    4758:	d04a                	sw	s2,32(sp)
    475a:	ce4e                	sw	s3,28(sp)
    475c:	d606                	sw	ra,44(sp)
    475e:	cc52                	sw	s4,24(sp)
    4760:	ca56                	sw	s5,20(sp)
    4762:	c85a                	sw	s6,16(sp)
    4764:	89b6                	mv	s3,a3
    4766:	0185c683          	lbu	a3,24(a1)
    476a:	06900793          	li	a5,105
    476e:	8932                	mv	s2,a2
    4770:	84aa                	mv	s1,a0
    4772:	842e                	mv	s0,a1
    4774:	04358613          	addi	a2,a1,67
    4778:	02f68d63          	beq	a3,a5,47b2 <_printf_i+0x60>
    477c:	06d7e263          	bltu	a5,a3,47e0 <_printf_i+0x8e>
    4780:	05800793          	li	a5,88
    4784:	18f68863          	beq	a3,a5,4914 <_printf_i+0x1c2>
    4788:	00d7ed63          	bltu	a5,a3,47a2 <_printf_i+0x50>
    478c:	22068163          	beqz	a3,49ae <_printf_i+0x25c>
    4790:	04300793          	li	a5,67
    4794:	0af68e63          	beq	a3,a5,4850 <_printf_i+0xfe>
    4798:	04240a93          	addi	s5,s0,66
    479c:	04d40123          	sb	a3,66(s0)
    47a0:	a0c9                	j	4862 <_printf_i+0x110>
    47a2:	06300793          	li	a5,99
    47a6:	0af68563          	beq	a3,a5,4850 <_printf_i+0xfe>
    47aa:	06400793          	li	a5,100
    47ae:	fef695e3          	bne	a3,a5,4798 <_printf_i+0x46>
    47b2:	401c                	lw	a5,0(s0)
    47b4:	4308                	lw	a0,0(a4)
    47b6:	0807f693          	andi	a3,a5,128
    47ba:	00450593          	addi	a1,a0,4
    47be:	c6c5                	beqz	a3,4866 <_printf_i+0x114>
    47c0:	411c                	lw	a5,0(a0)
    47c2:	c30c                	sw	a1,0(a4)
    47c4:	0007d863          	bgez	a5,47d4 <_printf_i+0x82>
    47c8:	02d00713          	li	a4,45
    47cc:	40f007b3          	neg	a5,a5
    47d0:	04e401a3          	sb	a4,67(s0)
    47d4:	00000697          	auipc	a3,0x0
    47d8:	7f468693          	addi	a3,a3,2036 # 4fc8 <__sf_fake_stdout+0x34>
    47dc:	4729                	li	a4,10
    47de:	a86d                	j	4898 <_printf_i+0x146>
    47e0:	07000793          	li	a5,112
    47e4:	16f68463          	beq	a3,a5,494c <_printf_i+0x1fa>
    47e8:	02d7e563          	bltu	a5,a3,4812 <_printf_i+0xc0>
    47ec:	06e00793          	li	a5,110
    47f0:	18f68b63          	beq	a3,a5,4986 <_printf_i+0x234>
    47f4:	06f00793          	li	a5,111
    47f8:	faf690e3          	bne	a3,a5,4798 <_printf_i+0x46>
    47fc:	400c                	lw	a1,0(s0)
    47fe:	431c                	lw	a5,0(a4)
    4800:	0805f813          	andi	a6,a1,128
    4804:	00478513          	addi	a0,a5,4
    4808:	06080763          	beqz	a6,4876 <_printf_i+0x124>
    480c:	c308                	sw	a0,0(a4)
    480e:	439c                	lw	a5,0(a5)
    4810:	a88d                	j	4882 <_printf_i+0x130>
    4812:	07500793          	li	a5,117
    4816:	fef683e3          	beq	a3,a5,47fc <_printf_i+0xaa>
    481a:	07800793          	li	a5,120
    481e:	12f68b63          	beq	a3,a5,4954 <_printf_i+0x202>
    4822:	07300793          	li	a5,115
    4826:	f6f699e3          	bne	a3,a5,4798 <_printf_i+0x46>
    482a:	431c                	lw	a5,0(a4)
    482c:	41d0                	lw	a2,4(a1)
    482e:	4581                	li	a1,0
    4830:	00478693          	addi	a3,a5,4
    4834:	c314                	sw	a3,0(a4)
    4836:	0007aa83          	lw	s5,0(a5)
    483a:	8556                	mv	a0,s5
    483c:	2e9d                	jal	4bb2 <memchr>
    483e:	c501                	beqz	a0,4846 <_printf_i+0xf4>
    4840:	41550533          	sub	a0,a0,s5
    4844:	c048                	sw	a0,4(s0)
    4846:	405c                	lw	a5,4(s0)
    4848:	c81c                	sw	a5,16(s0)
    484a:	040401a3          	sb	zero,67(s0)
    484e:	a871                	j	48ea <_printf_i+0x198>
    4850:	431c                	lw	a5,0(a4)
    4852:	04240a93          	addi	s5,s0,66
    4856:	00478693          	addi	a3,a5,4
    485a:	439c                	lw	a5,0(a5)
    485c:	c314                	sw	a3,0(a4)
    485e:	04f40123          	sb	a5,66(s0)
    4862:	4785                	li	a5,1
    4864:	b7d5                	j	4848 <_printf_i+0xf6>
    4866:	0407f693          	andi	a3,a5,64
    486a:	411c                	lw	a5,0(a0)
    486c:	c30c                	sw	a1,0(a4)
    486e:	dab9                	beqz	a3,47c4 <_printf_i+0x72>
    4870:	07c2                	slli	a5,a5,0x10
    4872:	87c1                	srai	a5,a5,0x10
    4874:	bf81                	j	47c4 <_printf_i+0x72>
    4876:	0405f593          	andi	a1,a1,64
    487a:	c308                	sw	a0,0(a4)
    487c:	d9c9                	beqz	a1,480e <_printf_i+0xbc>
    487e:	0007d783          	lhu	a5,0(a5)
    4882:	06f00713          	li	a4,111
    4886:	0ee68863          	beq	a3,a4,4976 <_printf_i+0x224>
    488a:	00000697          	auipc	a3,0x0
    488e:	73e68693          	addi	a3,a3,1854 # 4fc8 <__sf_fake_stdout+0x34>
    4892:	4729                	li	a4,10
    4894:	040401a3          	sb	zero,67(s0)
    4898:	404c                	lw	a1,4(s0)
    489a:	c40c                	sw	a1,8(s0)
    489c:	0005c563          	bltz	a1,48a6 <_printf_i+0x154>
    48a0:	4008                	lw	a0,0(s0)
    48a2:	996d                	andi	a0,a0,-5
    48a4:	c008                	sw	a0,0(s0)
    48a6:	e399                	bnez	a5,48ac <_printf_i+0x15a>
    48a8:	8ab2                	mv	s5,a2
    48aa:	cd91                	beqz	a1,48c6 <_printf_i+0x174>
    48ac:	8ab2                	mv	s5,a2
    48ae:	02e7f5b3          	remu	a1,a5,a4
    48b2:	1afd                	addi	s5,s5,-1
    48b4:	95b6                	add	a1,a1,a3
    48b6:	0005c583          	lbu	a1,0(a1)
    48ba:	00ba8023          	sb	a1,0(s5)
    48be:	02e7d5b3          	divu	a1,a5,a4
    48c2:	0ce7f063          	bgeu	a5,a4,4982 <_printf_i+0x230>
    48c6:	47a1                	li	a5,8
    48c8:	00f71e63          	bne	a4,a5,48e4 <_printf_i+0x192>
    48cc:	401c                	lw	a5,0(s0)
    48ce:	8b85                	andi	a5,a5,1
    48d0:	cb91                	beqz	a5,48e4 <_printf_i+0x192>
    48d2:	4058                	lw	a4,4(s0)
    48d4:	481c                	lw	a5,16(s0)
    48d6:	00e7c763          	blt	a5,a4,48e4 <_printf_i+0x192>
    48da:	03000793          	li	a5,48
    48de:	fefa8fa3          	sb	a5,-1(s5)
    48e2:	1afd                	addi	s5,s5,-1
    48e4:	41560633          	sub	a2,a2,s5
    48e8:	c810                	sw	a2,16(s0)
    48ea:	874e                	mv	a4,s3
    48ec:	86ca                	mv	a3,s2
    48ee:	0070                	addi	a2,sp,12
    48f0:	85a2                	mv	a1,s0
    48f2:	8526                	mv	a0,s1
    48f4:	d53ff0ef          	jal	ra,4646 <_printf_common>
    48f8:	5a7d                	li	s4,-1
    48fa:	0b451e63          	bne	a0,s4,49b6 <_printf_i+0x264>
    48fe:	557d                	li	a0,-1
    4900:	50b2                	lw	ra,44(sp)
    4902:	5422                	lw	s0,40(sp)
    4904:	5492                	lw	s1,36(sp)
    4906:	5902                	lw	s2,32(sp)
    4908:	49f2                	lw	s3,28(sp)
    490a:	4a62                	lw	s4,24(sp)
    490c:	4ad2                	lw	s5,20(sp)
    490e:	4b42                	lw	s6,16(sp)
    4910:	6145                	addi	sp,sp,48
    4912:	8082                	ret
    4914:	04d582a3          	sb	a3,69(a1)
    4918:	00000697          	auipc	a3,0x0
    491c:	6b068693          	addi	a3,a3,1712 # 4fc8 <__sf_fake_stdout+0x34>
    4920:	400c                	lw	a1,0(s0)
    4922:	4308                	lw	a0,0(a4)
    4924:	0805f813          	andi	a6,a1,128
    4928:	411c                	lw	a5,0(a0)
    492a:	0511                	addi	a0,a0,4
    492c:	02080d63          	beqz	a6,4966 <_printf_i+0x214>
    4930:	c308                	sw	a0,0(a4)
    4932:	0015f713          	andi	a4,a1,1
    4936:	c701                	beqz	a4,493e <_printf_i+0x1ec>
    4938:	0205e593          	ori	a1,a1,32
    493c:	c00c                	sw	a1,0(s0)
    493e:	4741                	li	a4,16
    4940:	fbb1                	bnez	a5,4894 <_printf_i+0x142>
    4942:	400c                	lw	a1,0(s0)
    4944:	fdf5f593          	andi	a1,a1,-33
    4948:	c00c                	sw	a1,0(s0)
    494a:	b7a9                	j	4894 <_printf_i+0x142>
    494c:	419c                	lw	a5,0(a1)
    494e:	0207e793          	ori	a5,a5,32
    4952:	c19c                	sw	a5,0(a1)
    4954:	07800793          	li	a5,120
    4958:	04f402a3          	sb	a5,69(s0)
    495c:	00000697          	auipc	a3,0x0
    4960:	68068693          	addi	a3,a3,1664 # 4fdc <__sf_fake_stdout+0x48>
    4964:	bf75                	j	4920 <_printf_i+0x1ce>
    4966:	0405f813          	andi	a6,a1,64
    496a:	c308                	sw	a0,0(a4)
    496c:	fc0803e3          	beqz	a6,4932 <_printf_i+0x1e0>
    4970:	07c2                	slli	a5,a5,0x10
    4972:	83c1                	srli	a5,a5,0x10
    4974:	bf7d                	j	4932 <_printf_i+0x1e0>
    4976:	00000697          	auipc	a3,0x0
    497a:	65268693          	addi	a3,a3,1618 # 4fc8 <__sf_fake_stdout+0x34>
    497e:	4721                	li	a4,8
    4980:	bf11                	j	4894 <_printf_i+0x142>
    4982:	87ae                	mv	a5,a1
    4984:	b72d                	j	48ae <_printf_i+0x15c>
    4986:	4194                	lw	a3,0(a1)
    4988:	431c                	lw	a5,0(a4)
    498a:	49cc                	lw	a1,20(a1)
    498c:	0806f813          	andi	a6,a3,128
    4990:	00478513          	addi	a0,a5,4
    4994:	00080663          	beqz	a6,49a0 <_printf_i+0x24e>
    4998:	c308                	sw	a0,0(a4)
    499a:	439c                	lw	a5,0(a5)
    499c:	c38c                	sw	a1,0(a5)
    499e:	a801                	j	49ae <_printf_i+0x25c>
    49a0:	c308                	sw	a0,0(a4)
    49a2:	0406f693          	andi	a3,a3,64
    49a6:	439c                	lw	a5,0(a5)
    49a8:	daf5                	beqz	a3,499c <_printf_i+0x24a>
    49aa:	00b79023          	sh	a1,0(a5)
    49ae:	00042823          	sw	zero,16(s0)
    49b2:	8ab2                	mv	s5,a2
    49b4:	bf1d                	j	48ea <_printf_i+0x198>
    49b6:	4814                	lw	a3,16(s0)
    49b8:	8656                	mv	a2,s5
    49ba:	85ca                	mv	a1,s2
    49bc:	8526                	mv	a0,s1
    49be:	9982                	jalr	s3
    49c0:	f3450fe3          	beq	a0,s4,48fe <_printf_i+0x1ac>
    49c4:	401c                	lw	a5,0(s0)
    49c6:	8b89                	andi	a5,a5,2
    49c8:	e78d                	bnez	a5,49f2 <_printf_i+0x2a0>
    49ca:	47b2                	lw	a5,12(sp)
    49cc:	4448                	lw	a0,12(s0)
    49ce:	f2f559e3          	bge	a0,a5,4900 <_printf_i+0x1ae>
    49d2:	853e                	mv	a0,a5
    49d4:	b735                	j	4900 <_printf_i+0x1ae>
    49d6:	4685                	li	a3,1
    49d8:	8656                	mv	a2,s5
    49da:	85ca                	mv	a1,s2
    49dc:	8526                	mv	a0,s1
    49de:	9982                	jalr	s3
    49e0:	f1650fe3          	beq	a0,s6,48fe <_printf_i+0x1ac>
    49e4:	0a05                	addi	s4,s4,1
    49e6:	445c                	lw	a5,12(s0)
    49e8:	4732                	lw	a4,12(sp)
    49ea:	8f99                	sub	a5,a5,a4
    49ec:	fefa45e3          	blt	s4,a5,49d6 <_printf_i+0x284>
    49f0:	bfe9                	j	49ca <_printf_i+0x278>
    49f2:	4a01                	li	s4,0
    49f4:	01940a93          	addi	s5,s0,25
    49f8:	5b7d                	li	s6,-1
    49fa:	b7f5                	j	49e6 <_printf_i+0x294>

000049fc <_sbrk_r>:
_sbrk_r():
    49fc:	1141                	addi	sp,sp,-16
    49fe:	c422                	sw	s0,8(sp)
    4a00:	842a                	mv	s0,a0
    4a02:	852e                	mv	a0,a1
    4a04:	8a01a423          	sw	zero,-1880(gp) # 200001a0 <errno>
    4a08:	c606                	sw	ra,12(sp)
    4a0a:	243d                	jal	4c38 <_sbrk>
    4a0c:	57fd                	li	a5,-1
    4a0e:	00f51763          	bne	a0,a5,4a1c <_sbrk_r+0x20>
    4a12:	8a818793          	addi	a5,gp,-1880 # 200001a0 <errno>
    4a16:	439c                	lw	a5,0(a5)
    4a18:	c391                	beqz	a5,4a1c <_sbrk_r+0x20>
    4a1a:	c01c                	sw	a5,0(s0)
    4a1c:	40b2                	lw	ra,12(sp)
    4a1e:	4422                	lw	s0,8(sp)
    4a20:	0141                	addi	sp,sp,16
    4a22:	8082                	ret

00004a24 <__sread>:
__sread():
    4a24:	1141                	addi	sp,sp,-16
    4a26:	c422                	sw	s0,8(sp)
    4a28:	842e                	mv	s0,a1
    4a2a:	00e59583          	lh	a1,14(a1)
    4a2e:	c606                	sw	ra,12(sp)
    4a30:	2245                	jal	4bd0 <_read_r>
    4a32:	00054963          	bltz	a0,4a44 <__sread+0x20>
    4a36:	487c                	lw	a5,84(s0)
    4a38:	97aa                	add	a5,a5,a0
    4a3a:	c87c                	sw	a5,84(s0)
    4a3c:	40b2                	lw	ra,12(sp)
    4a3e:	4422                	lw	s0,8(sp)
    4a40:	0141                	addi	sp,sp,16
    4a42:	8082                	ret
    4a44:	00c45783          	lhu	a5,12(s0)
    4a48:	777d                	lui	a4,0xfffff
    4a4a:	177d                	addi	a4,a4,-1
    4a4c:	8ff9                	and	a5,a5,a4
    4a4e:	00f41623          	sh	a5,12(s0)
    4a52:	b7ed                	j	4a3c <__sread+0x18>

00004a54 <__swrite>:
__swrite():
    4a54:	00c5d783          	lhu	a5,12(a1)
    4a58:	1101                	addi	sp,sp,-32
    4a5a:	cc22                	sw	s0,24(sp)
    4a5c:	ca26                	sw	s1,20(sp)
    4a5e:	c84a                	sw	s2,16(sp)
    4a60:	c64e                	sw	s3,12(sp)
    4a62:	ce06                	sw	ra,28(sp)
    4a64:	1007f793          	andi	a5,a5,256
    4a68:	84aa                	mv	s1,a0
    4a6a:	842e                	mv	s0,a1
    4a6c:	8932                	mv	s2,a2
    4a6e:	89b6                	mv	s3,a3
    4a70:	c791                	beqz	a5,4a7c <__swrite+0x28>
    4a72:	00e59583          	lh	a1,14(a1)
    4a76:	4689                	li	a3,2
    4a78:	4601                	li	a2,0
    4a7a:	2231                	jal	4b86 <_lseek_r>
    4a7c:	00c45783          	lhu	a5,12(s0)
    4a80:	777d                	lui	a4,0xfffff
    4a82:	177d                	addi	a4,a4,-1
    4a84:	8ff9                	and	a5,a5,a4
    4a86:	00f41623          	sh	a5,12(s0)
    4a8a:	00e41583          	lh	a1,14(s0)
    4a8e:	4462                	lw	s0,24(sp)
    4a90:	40f2                	lw	ra,28(sp)
    4a92:	86ce                	mv	a3,s3
    4a94:	864a                	mv	a2,s2
    4a96:	49b2                	lw	s3,12(sp)
    4a98:	4942                	lw	s2,16(sp)
    4a9a:	8526                	mv	a0,s1
    4a9c:	44d2                	lw	s1,20(sp)
    4a9e:	6105                	addi	sp,sp,32
    4aa0:	a83d                	j	4ade <_write_r>

00004aa2 <__sseek>:
__sseek():
    4aa2:	1141                	addi	sp,sp,-16
    4aa4:	c422                	sw	s0,8(sp)
    4aa6:	842e                	mv	s0,a1
    4aa8:	00e59583          	lh	a1,14(a1)
    4aac:	c606                	sw	ra,12(sp)
    4aae:	28e1                	jal	4b86 <_lseek_r>
    4ab0:	57fd                	li	a5,-1
    4ab2:	00c45703          	lhu	a4,12(s0)
    4ab6:	00f51b63          	bne	a0,a5,4acc <__sseek+0x2a>
    4aba:	77fd                	lui	a5,0xfffff
    4abc:	17fd                	addi	a5,a5,-1
    4abe:	8ff9                	and	a5,a5,a4
    4ac0:	00f41623          	sh	a5,12(s0)
    4ac4:	40b2                	lw	ra,12(sp)
    4ac6:	4422                	lw	s0,8(sp)
    4ac8:	0141                	addi	sp,sp,16
    4aca:	8082                	ret
    4acc:	6785                	lui	a5,0x1
    4ace:	8fd9                	or	a5,a5,a4
    4ad0:	00f41623          	sh	a5,12(s0)
    4ad4:	c868                	sw	a0,84(s0)
    4ad6:	b7fd                	j	4ac4 <__sseek+0x22>

00004ad8 <__sclose>:
__sclose():
    4ad8:	00e59583          	lh	a1,14(a1)
    4adc:	a805                	j	4b0c <_close_r>

00004ade <_write_r>:
_write_r():
    4ade:	1141                	addi	sp,sp,-16
    4ae0:	c422                	sw	s0,8(sp)
    4ae2:	842a                	mv	s0,a0
    4ae4:	852e                	mv	a0,a1
    4ae6:	85b2                	mv	a1,a2
    4ae8:	8636                	mv	a2,a3
    4aea:	8a01a423          	sw	zero,-1880(gp) # 200001a0 <errno>
    4aee:	c606                	sw	ra,12(sp)
    4af0:	fbcfc0ef          	jal	ra,12ac <_write>
    4af4:	57fd                	li	a5,-1
    4af6:	00f51763          	bne	a0,a5,4b04 <_write_r+0x26>
    4afa:	8a818793          	addi	a5,gp,-1880 # 200001a0 <errno>
    4afe:	439c                	lw	a5,0(a5)
    4b00:	c391                	beqz	a5,4b04 <_write_r+0x26>
    4b02:	c01c                	sw	a5,0(s0)
    4b04:	40b2                	lw	ra,12(sp)
    4b06:	4422                	lw	s0,8(sp)
    4b08:	0141                	addi	sp,sp,16
    4b0a:	8082                	ret

00004b0c <_close_r>:
_close_r():
    4b0c:	1141                	addi	sp,sp,-16
    4b0e:	c422                	sw	s0,8(sp)
    4b10:	842a                	mv	s0,a0
    4b12:	852e                	mv	a0,a1
    4b14:	8a01a423          	sw	zero,-1880(gp) # 200001a0 <errno>
    4b18:	c606                	sw	ra,12(sp)
    4b1a:	20cd                	jal	4bfc <_close>
    4b1c:	57fd                	li	a5,-1
    4b1e:	00f51763          	bne	a0,a5,4b2c <_close_r+0x20>
    4b22:	8a818793          	addi	a5,gp,-1880 # 200001a0 <errno>
    4b26:	439c                	lw	a5,0(a5)
    4b28:	c391                	beqz	a5,4b2c <_close_r+0x20>
    4b2a:	c01c                	sw	a5,0(s0)
    4b2c:	40b2                	lw	ra,12(sp)
    4b2e:	4422                	lw	s0,8(sp)
    4b30:	0141                	addi	sp,sp,16
    4b32:	8082                	ret

00004b34 <_fstat_r>:
_fstat_r():
    4b34:	1141                	addi	sp,sp,-16
    4b36:	c422                	sw	s0,8(sp)
    4b38:	842a                	mv	s0,a0
    4b3a:	852e                	mv	a0,a1
    4b3c:	85b2                	mv	a1,a2
    4b3e:	8a01a423          	sw	zero,-1880(gp) # 200001a0 <errno>
    4b42:	c606                	sw	ra,12(sp)
    4b44:	20d1                	jal	4c08 <_fstat>
    4b46:	57fd                	li	a5,-1
    4b48:	00f51763          	bne	a0,a5,4b56 <_fstat_r+0x22>
    4b4c:	8a818793          	addi	a5,gp,-1880 # 200001a0 <errno>
    4b50:	439c                	lw	a5,0(a5)
    4b52:	c391                	beqz	a5,4b56 <_fstat_r+0x22>
    4b54:	c01c                	sw	a5,0(s0)
    4b56:	40b2                	lw	ra,12(sp)
    4b58:	4422                	lw	s0,8(sp)
    4b5a:	0141                	addi	sp,sp,16
    4b5c:	8082                	ret

00004b5e <_isatty_r>:
_isatty_r():
    4b5e:	1141                	addi	sp,sp,-16
    4b60:	c422                	sw	s0,8(sp)
    4b62:	842a                	mv	s0,a0
    4b64:	852e                	mv	a0,a1
    4b66:	8a01a423          	sw	zero,-1880(gp) # 200001a0 <errno>
    4b6a:	c606                	sw	ra,12(sp)
    4b6c:	2065                	jal	4c14 <_isatty>
    4b6e:	57fd                	li	a5,-1
    4b70:	00f51763          	bne	a0,a5,4b7e <_isatty_r+0x20>
    4b74:	8a818793          	addi	a5,gp,-1880 # 200001a0 <errno>
    4b78:	439c                	lw	a5,0(a5)
    4b7a:	c391                	beqz	a5,4b7e <_isatty_r+0x20>
    4b7c:	c01c                	sw	a5,0(s0)
    4b7e:	40b2                	lw	ra,12(sp)
    4b80:	4422                	lw	s0,8(sp)
    4b82:	0141                	addi	sp,sp,16
    4b84:	8082                	ret

00004b86 <_lseek_r>:
_lseek_r():
    4b86:	1141                	addi	sp,sp,-16
    4b88:	c422                	sw	s0,8(sp)
    4b8a:	842a                	mv	s0,a0
    4b8c:	852e                	mv	a0,a1
    4b8e:	85b2                	mv	a1,a2
    4b90:	8636                	mv	a2,a3
    4b92:	8a01a423          	sw	zero,-1880(gp) # 200001a0 <errno>
    4b96:	c606                	sw	ra,12(sp)
    4b98:	2061                	jal	4c20 <_lseek>
    4b9a:	57fd                	li	a5,-1
    4b9c:	00f51763          	bne	a0,a5,4baa <_lseek_r+0x24>
    4ba0:	8a818793          	addi	a5,gp,-1880 # 200001a0 <errno>
    4ba4:	439c                	lw	a5,0(a5)
    4ba6:	c391                	beqz	a5,4baa <_lseek_r+0x24>
    4ba8:	c01c                	sw	a5,0(s0)
    4baa:	40b2                	lw	ra,12(sp)
    4bac:	4422                	lw	s0,8(sp)
    4bae:	0141                	addi	sp,sp,16
    4bb0:	8082                	ret

00004bb2 <memchr>:
memchr():
    4bb2:	0ff5f593          	andi	a1,a1,255
    4bb6:	962a                	add	a2,a2,a0
    4bb8:	00c51463          	bne	a0,a2,4bc0 <memchr+0xe>
    4bbc:	4501                	li	a0,0
    4bbe:	8082                	ret
    4bc0:	00054783          	lbu	a5,0(a0)
    4bc4:	feb78de3          	beq	a5,a1,4bbe <memchr+0xc>
    4bc8:	0505                	addi	a0,a0,1
    4bca:	b7fd                	j	4bb8 <memchr+0x6>

00004bcc <__malloc_lock>:
__malloc_lock():
    4bcc:	8082                	ret

00004bce <__malloc_unlock>:
__malloc_unlock():
    4bce:	8082                	ret

00004bd0 <_read_r>:
_read_r():
    4bd0:	1141                	addi	sp,sp,-16
    4bd2:	c422                	sw	s0,8(sp)
    4bd4:	842a                	mv	s0,a0
    4bd6:	852e                	mv	a0,a1
    4bd8:	85b2                	mv	a1,a2
    4bda:	8636                	mv	a2,a3
    4bdc:	8a01a423          	sw	zero,-1880(gp) # 200001a0 <errno>
    4be0:	c606                	sw	ra,12(sp)
    4be2:	20a9                	jal	4c2c <_read>
    4be4:	57fd                	li	a5,-1
    4be6:	00f51763          	bne	a0,a5,4bf4 <_read_r+0x24>
    4bea:	8a818793          	addi	a5,gp,-1880 # 200001a0 <errno>
    4bee:	439c                	lw	a5,0(a5)
    4bf0:	c391                	beqz	a5,4bf4 <_read_r+0x24>
    4bf2:	c01c                	sw	a5,0(s0)
    4bf4:	40b2                	lw	ra,12(sp)
    4bf6:	4422                	lw	s0,8(sp)
    4bf8:	0141                	addi	sp,sp,16
    4bfa:	8082                	ret

00004bfc <_close>:
_close():
    4bfc:	05800793          	li	a5,88
    4c00:	8af1a423          	sw	a5,-1880(gp) # 200001a0 <errno>
    4c04:	557d                	li	a0,-1
    4c06:	8082                	ret

00004c08 <_fstat>:
_fstat():
    4c08:	05800793          	li	a5,88
    4c0c:	8af1a423          	sw	a5,-1880(gp) # 200001a0 <errno>
    4c10:	557d                	li	a0,-1
    4c12:	8082                	ret

00004c14 <_isatty>:
_isatty():
    4c14:	05800793          	li	a5,88
    4c18:	8af1a423          	sw	a5,-1880(gp) # 200001a0 <errno>
    4c1c:	4501                	li	a0,0
    4c1e:	8082                	ret

00004c20 <_lseek>:
_lseek():
    4c20:	05800793          	li	a5,88
    4c24:	8af1a423          	sw	a5,-1880(gp) # 200001a0 <errno>
    4c28:	557d                	li	a0,-1
    4c2a:	8082                	ret

00004c2c <_read>:
_read():
    4c2c:	05800793          	li	a5,88
    4c30:	8af1a423          	sw	a5,-1880(gp) # 200001a0 <errno>
    4c34:	557d                	li	a0,-1
    4c36:	8082                	ret

00004c38 <_sbrk>:
_sbrk():
    4c38:	88418793          	addi	a5,gp,-1916 # 2000017c <heap_end.1518>
    4c3c:	439c                	lw	a5,0(a5)
    4c3e:	c791                	beqz	a5,4c4a <_sbrk+0x12>
    4c40:	953e                	add	a0,a0,a5
    4c42:	88a1a223          	sw	a0,-1916(gp) # 2000017c <heap_end.1518>
    4c46:	853e                	mv	a0,a5
    4c48:	8082                	ret
    4c4a:	8ac18793          	addi	a5,gp,-1876 # 200001a4 <_ebss>
    4c4e:	953e                	add	a0,a0,a5
    4c50:	88a1a223          	sw	a0,-1916(gp) # 2000017c <heap_end.1518>
    4c54:	853e                	mv	a0,a5
    4c56:	8082                	ret
    4c58:	3141                	jal	48d8 <_printf_i+0x186>
    4c5a:	373a                	fld	fa4,424(sp)
    4c5c:	3a42                	fld	fs4,48(sp)
    4c5e:	3931                	jal	487a <_printf_i+0x128>
    4c60:	323a                	fld	ft4,424(sp)
    4c62:	3a36                	fld	fs4,360(sp)
    4c64:	333a4233          	0x333a4233
    4c68:	2c38                	fld	fa4,88(s0)
    4c6a:	3030                	fld	fa2,96(s0)
    4c6c:	3030                	fld	fa2,96(s0)
    4c6e:	3030                	fld	fa2,96(s0)
    4c70:	0000                	unimp
    4c72:	0000                	unimp
    4c74:	0a0d4b4f          	fnmadd.d	fs6,fs10,ft0,ft1,rmm
    4c78:	0000                	unimp
    4c7a:	0000                	unimp
    4c7c:	0a0d                	addi	s4,s4,3
    4c7e:	0000                	unimp
    4c80:	5441                	li	s0,-16
    4c82:	003d002b          	0x3d002b
    4c86:	0000                	unimp
    4c88:	5441                	li	s0,-16
    4c8a:	2e2e                	fld	ft8,200(sp)
    4c8c:	002e                	c.slli	zero,0xb
    4c8e:	0000                	unimp
    4c90:	5441                	li	s0,-16
    4c92:	4958452b          	0x4958452b
    4c96:	0054                	addi	a3,sp,4
    4c98:	5441                	li	s0,-16
    4c9a:	5345522b          	0x5345522b
    4c9e:	5445                	li	s0,-15
    4ca0:	0000                	unimp
    4ca2:	0000                	unimp
    4ca4:	5441                	li	s0,-16
    4ca6:	43414d2b          	0x43414d2b
    4caa:	5054003f 4c42004c 	0x4c42004c5054003f
    4cb2:	4d45                	li	s10,17
    4cb4:	0045444f          	fnmadd.s	fs0,fa0,ft4,ft0,rmm
    4cb8:	5441                	li	s0,-16
    4cba:	454c422b          	0x454c422b
    4cbe:	3f415453          	0x3f415453
    4cc2:	0000                	unimp
    4cc4:	414e                	lw	sp,208(sp)
    4cc6:	454d                	li	a0,19
    4cc8:	0000                	unimp
    4cca:	0000                	unimp
    4ccc:	4e50                	lw	a2,28(a2)
    4cce:	4d41                	li	s10,16
    4cd0:	0045                	c.nop	17
    4cd2:	0000                	unimp
    4cd4:	0046464f          	fnmadd.s	fa2,fa2,ft4,ft0,rmm
    4cd8:	4150                	lw	a2,4(a0)
    4cda:	004e4553          	fadd.s	fa0,ft8,ft4,rmm
    4cde:	0000                	unimp
    4ce0:	00004e4f          	fnmadd.s	ft8,ft0,ft0,ft0,rmm
    4ce4:	4150                	lw	a2,4(a0)
    4ce6:	00005353          	fadd.s	ft6,ft0,ft0,unknown
    4cea:	0000                	unimp
    4cec:	4e4e4f43          	fmadd.q	ft10,ft8,ft4,fs1,rmm
    4cf0:	0000                	unimp
    4cf2:	0000                	unimp
    4cf4:	414e4f43          	fmadd.s	ft10,ft8,fs4,fs0,rmm
    4cf8:	4444                	lw	s1,12(s0)
    4cfa:	0000                	unimp
    4cfc:	302c4e4f          	fnmadd.s	ft8,fs8,ft2,ft6,rmm
    4d00:	0000                	unimp
    4d02:	0000                	unimp
    4d04:	5352                	lw	t1,52(sp)
    4d06:	00004953          	fadd.s	fs2,ft0,ft0,rmm
    4d0a:	0000                	unimp
    4d0c:	552f3a43          	0x552f3a43
    4d10:	73726573          	csrrsi	a0,0x737,4
    4d14:	6e61592f          	0x6e61592f
    4d18:	7265                	lui	tp,0xffff9
    4d1a:	7365442f          	0x7365442f
    4d1e:	706f746b          	0x706f746b
    4d22:	6d61632f          	0x6d61632f
    4d26:	7265                	lui	tp,0xffff9
    4d28:	2f61                	jal	54c0 <_data_lma+0x4d0>
    4d2a:	696c                	flw	fa1,84(a0)
    4d2c:	7262                	flw	ft4,56(sp)
    4d2e:	7261                	lui	tp,0xffff8
    4d30:	6569                	lui	a0,0x1a
    4d32:	667a2f73          	csrrs	t5,0x667,s4
    4d36:	645f 7665 6369      	0x63697665645f
    4d3c:	2f65                	jal	54f4 <_data_lma+0x504>
    4d3e:	667a                	flw	fa2,156(sp)
    4d40:	645f 7665 6369      	0x63697665645f
    4d46:	5f65                	li	t5,-7
    4d48:	6c62                	flw	fs8,24(sp)
    4d4a:	6575                	lui	a0,0x1d
    4d4c:	6f74                	flw	fa3,92(a4)
    4d4e:	5f68746f          	jal	s0,8c344 <_data_lma+0x87354>
    4d52:	31396863          	bltu	s2,s3,5062 <_data_lma+0x72>
    4d56:	3134                	fld	fa3,96(a0)
    4d58:	632e                	flw	ft6,200(sp)
    4d5a:	0000                	unimp
    4d5c:	6c62                	flw	fs8,24(sp)
    4d5e:	0065                	c.nop	25
    4d60:	3030                	fld	fa2,96(s0)
    4d62:	3030                	fld	fa2,96(s0)
    4d64:	3030                	fld	fa2,96(s0)
    4d66:	0000                	unimp
    4d68:	6168                	flw	fa0,68(a0)
    4d6a:	6472                	flw	fs0,28(sp)
    4d6c:	6166                	flw	ft2,88(sp)
    4d6e:	6c75                	lui	s8,0x1d
    4d70:	2174                	fld	fa3,192(a0)
    4d72:	0000                	unimp
    4d74:	420a                	lw	tp,128(sp)
    4d76:	7561                	lui	a0,0xffff8
    4d78:	2064                	fld	fs1,192(s0)
    4d7a:	6152                	flw	ft2,20(sp)
    4d7c:	6574                	flw	fa3,76(a0)
    4d7e:	3d20                	fld	fs0,120(a0)
    4d80:	2520                	fld	fs0,72(a0)
    4d82:	0064                	addi	s1,sp,12
    4d84:	640a                	flw	fs0,128(sp)
    4d86:	7461                	lui	s0,0xffff8
    4d88:	4261                	li	tp,24
    4d8a:	7469                	lui	s0,0xffffa
    4d8c:	3d20                	fld	fs0,120(a0)
    4d8e:	2520                	fld	fs0,72(a0)
    4d90:	0064                	addi	s1,sp,12
    4d92:	0000                	unimp
    4d94:	730a                	flw	ft6,160(sp)
    4d96:	6f74                	flw	fa3,92(a4)
    4d98:	4270                	lw	a2,68(a2)
    4d9a:	7469                	lui	s0,0xffffa
    4d9c:	3d20                	fld	fs0,120(a0)
    4d9e:	2520                	fld	fs0,72(a0)
    4da0:	0064                	addi	s1,sp,12
    4da2:	0000                	unimp
    4da4:	700a                	flw	ft0,160(sp)
    4da6:	7261                	lui	tp,0xffff8
    4da8:	7469                	lui	s0,0xffffa
    4daa:	5479                	li	s0,-2
    4dac:	7079                	c.lui	zero,0xffffe
    4dae:	2065                	jal	4e56 <MyReportDescHD+0x12>
    4db0:	203d                	jal	4dde <uart_index+0x12>
    4db2:	6425                	lui	s0,0x9
    4db4:	0000                	unimp
	...

00004db8 <gpio_group>:
    4db8:	0800 4001 0c00 4001 1000 4001 1400 4001     ...@...@...@...@
    4dc8:	1800 4001                                   ...@

00004dcc <uart_index>:
    4dcc:	3800 4001 4400 4000 4800 4000 4c00 4000     .8.@.D.@.H.@.L.@
    4ddc:	5000 4000 1800 4000 1c00 4000 2000 4000     .P.@...@...@. .@

00004dec <MyDevDescrHD>:
    4dec:	0112 0200 0002 0800 1a86 5722 0100 0201     .........."W....
    4dfc:	0103 0000                                   ....

00004e00 <MyCfgDescrHD>:
    4e00:	0209 0043 0102 a000 0932 0004 0100 0202     ..C.....2.......
    4e10:	0001 2405 1000 0501 0124 0000 2404 0202     ...$....$....$..
    4e20:	2405 0006 0701 8105 4003 ff00 0409 0001     .$.......@......
    4e30:	0a02 0000 0700 0205 4002 0000 0507 0282     .........@......
    4e40:	0040 0000                                   @...

00004e44 <MyReportDescHD>:
    4e44:	0314 0032 0030 0031 0037 002d 0032 002d     ..2.0.1.7.-.2.-.
    4e54:	0032 0035                                   2.5.

00004e58 <MyManuInfoHD>:
    4e58:	030e 0077 0063 0068 002e 0063 006e 0000     ..w.c.h...c.n...

00004e68 <MyProdInfoHD>:
    4e68:	030c 0043 0048 0033 0030 0037               ..C.H.3.0.7.

00004e74 <MySerNumInfoHD>:
    4e74:	0316 0030 0031 0032 0033 0034 0035 0036     ..0.1.2.3.4.5.6.
    4e84:	0037 0038 0039 0000                         7.8.9...

00004e8c <MyUSBQUADescHD>:
    4e8c:	060a 0200 00ff 40ff 0001 0000 337e 0000     .......@....~3..
    4e9c:	30d2 0000 348c 0000 31c8 0000 348c 0000     .0...4...1...4..
    4eac:	3068 0000 2eaa 0000 348c 0000 308c 0000     h0.......4...0..
    4ebc:	30b4 0000 3342 0000 3362 0000 2ff2 0000     .0..B3..b3.../..
    4ecc:	2edc 0000 2eee 0000 2f02 0000 2ff2 0000     ........./.../..
    4edc:	2ff2 0000 2f9a 0000 2fac 0000 2ff2 0000     ./.../.../.../..
    4eec:	2ff2 0000 2ff2 0000 2ff2 0000 2ff2 0000     ./.../.../.../..
    4efc:	2ff2 0000 2ff2 0000 2fea 0000 2ff2 0000     ./.../.../.../..
    4f0c:	2ff2 0000 2ff2 0000 2ff2 0000 2ff2 0000     ./.../.../.../..
    4f1c:	2ff2 0000 2ff2 0000 2ff2 0000 2ff2 0000     ./.../.../.../..
    4f2c:	2ff2 0000 2ff2 0000 2ff2 0000 2ff2 0000     ./.../.../.../..
    4f3c:	2ff2 0000 2ff2 0000 2ff2 0000 2ff2 0000     ./.../.../.../..
    4f4c:	2ff2 0000 2f88 0000                         ./.../..

00004f54 <__sf_fake_stderr>:
	...

00004f74 <__sf_fake_stdin>:
	...

00004f94 <__sf_fake_stdout>:
	...
    4fb4:	2d23 2b30 0020 0000 6c68 004c 6665 4567     #-0+ ...hlL.efgE
    4fc4:	4746 0000 3130 3332 3534 3736 3938 4241     FG..0123456789AB
    4fd4:	4443 4645 0000 0000 3130 3332 3534 3736     CDEF....01234567
    4fe4:	3938 6261 6463 6665 0000 0000               89abcdef....
